
TcpClient.elf:     file format elf32-littleriscv
TcpClient.elf
architecture: riscv:rv32, flags 0x00000112:
EXEC_P, HAS_SYMS, D_PAGED
start address 0x00000000

Program Header:
    LOAD off    0x00001000 vaddr 0x00000000 paddr 0x00000000 align 2**12
         filesz 0x0000bc54 memsz 0x0000bc54 flags r-x
    LOAD off    0x0000d000 vaddr 0x20000000 paddr 0x0000bc54 align 2**12
         filesz 0x00000078 memsz 0x000062e8 flags rw-
    LOAD off    0x0000d800 vaddr 0x2000f800 paddr 0x2000f800 align 2**12
         filesz 0x00000000 memsz 0x00000800 flags rw-

Sections:
Idx Name           Size      VMA       LMA       File off  Algn  Flags
  0 .init          00000038  00000000  00000000  00001000  2**1  CONTENTS, ALLOC, LOAD, READONLY, CODE
  1 .vector        000001c8  00000038  00000038  00001038  2**1  CONTENTS, ALLOC, LOAD, READONLY, CODE
  2 .text          0000ba54  00000200  00000200  00001200  2**2  CONTENTS, ALLOC, LOAD, READONLY, CODE
  3 .fini          00000000  0000bc54  0000bc54  0000d078  2**0  CONTENTS, ALLOC, LOAD, CODE
  4 .dalign        00000000  20000000  20000000  0000d078  2**0  CONTENTS
  5 .dlalign       00000000  0000bc54  0000bc54  0000d078  2**0  CONTENTS
  6 .data          00000078  20000000  0000bc54  0000d000  2**2  CONTENTS, ALLOC, LOAD, DATA
  7 .bss           00006270  20000078  0000bccc  0000d078  2**2  ALLOC
  8 .stack         00000800  2000f800  2000f800  0000d800  2**0  ALLOC
  9 .debug_info    00015077  00000000  00000000  0000d078  2**0  CONTENTS, READONLY, DEBUGGING
 10 .debug_abbrev  0000327d  00000000  00000000  000220ef  2**0  CONTENTS, READONLY, DEBUGGING
 11 .debug_aranges 00000d78  00000000  00000000  00025370  2**3  CONTENTS, READONLY, DEBUGGING
 12 .debug_ranges  00000db8  00000000  00000000  000260e8  2**3  CONTENTS, READONLY, DEBUGGING
 13 .debug_line    0000fad5  00000000  00000000  00026ea0  2**0  CONTENTS, READONLY, DEBUGGING
 14 .debug_str     00004843  00000000  00000000  00036975  2**0  CONTENTS, READONLY, DEBUGGING
 15 .comment       00000033  00000000  00000000  0003b1b8  2**0  CONTENTS, READONLY
 16 .debug_frame   00001e80  00000000  00000000  0003b1ec  2**2  CONTENTS, READONLY, DEBUGGING
 17 .debug_loc     00005663  00000000  00000000  0003d06c  2**0  CONTENTS, READONLY, DEBUGGING
SYMBOL TABLE:
00000000 l    d  .init	00000000 .init
00000038 l    d  .vector	00000000 .vector
00000200 l    d  .text	00000000 .text
0000bc54 l    d  .fini	00000000 .fini
20000000 l    d  .dalign	00000000 .dalign
0000bc54 l    d  .dlalign	00000000 .dlalign
20000000 l    d  .data	00000000 .data
20000078 l    d  .bss	00000000 .bss
2000f800 l    d  .stack	00000000 .stack
00000000 l    d  .debug_info	00000000 .debug_info
00000000 l    d  .debug_abbrev	00000000 .debug_abbrev
00000000 l    d  .debug_aranges	00000000 .debug_aranges
00000000 l    d  .debug_ranges	00000000 .debug_ranges
00000000 l    d  .debug_line	00000000 .debug_line
00000000 l    d  .debug_str	00000000 .debug_str
00000000 l    d  .comment	00000000 .comment
00000000 l    d  .debug_frame	00000000 .debug_frame
00000000 l    d  .debug_loc	00000000 .debug_loc
00000000 l    df *ABS*	00000000 ./Startup/startup_ch32v30x_D8C.o
00000038 l       .vector	00000000 _vector_base
00000000 l    df *ABS*	00000000 ch32v30x_it.c
00000000 l    df *ABS*	00000000 main.c
00000000 l    df *ABS*	00000000 system_ch32v30x.c
00000000 l    df *ABS*	00000000 ch32v30x_dbgmcu.c
00000000 l    df *ABS*	00000000 ch32v30x_eth.c
00000000 l    df *ABS*	00000000 ch32v30x_exti.c
00000000 l    df *ABS*	00000000 ch32v30x_gpio.c
00000000 l    df *ABS*	00000000 ch32v30x_rcc.c
20000010 l     O .data	00000010 APBAHBPrescTable
20000038 l     O .data	00000004 ADCPrescTable
00000000 l    df *ABS*	00000000 ch32v30x_tim.c
00000000 l    df *ABS*	00000000 ch32v30x_usart.c
00000000 l    df *ABS*	00000000 eth_driver.c
00000000 l    df *ABS*	00000000 st7789.c
00000000 l    df *ABS*	00000000 system.c
00000000 l    df *ABS*	00000000 debug.c
200000ac l     O .bss	00000002 p_ms
200000ae l     O .bss	00000001 p_us
00000000 l    df *ABS*	00000000 core_riscv.c
00000000 l    df *ABS*	00000000 eth_api.c
00000000 l    df *ABS*	00000000 ipcheck.c
00000000 l    df *ABS*	00000000 socket.c
00000000 l    df *ABS*	00000000 etharp.c
00003272 l     F .text	0000017e find_entry
000033f0 l     F .text	000000ae update_arp_entry
200000dc l     O .bss	00000001 etharp_cached_entry
00000000 l    df *ABS*	00000000 ethernetif.c
00003a7c l     F .text	00000052 low_level_output
00000000 l    df *ABS*	00000000 inet.c
00000000 l    df *ABS*	00000000 ip.c
200000e8 l     O .bss	00000002 ip_id.2933
00000000 l    df *ABS*	00000000 ip_addr.c
00000000 l    df *ABS*	00000000 ip_frag.c
200000ea l     O .bss	00000002 ip_reass_pbufcount
200000ec l     O .bss	00000004 reassdatagrams
00000000 l    df *ABS*	00000000 dhcp.c
00004700 l     F .text	0000000e dhcp_set_state
0000470e l     F .text	00000020 dhcp_option
0000472e l     F .text	00000012 dhcp_option_byte
00004740 l     F .text	00000048 dhcp_option_long
00004788 l     F .text	00000034 dhcp_option_trailer
000047bc l     F .text	0000017e dhcp_create_request
0000493a l     F .text	0000001e dhcp_delete_request
20000044 l     O .data	00000004 xid.3253
00000000 l    df *ABS*	00000000 init.c
00000000 l    df *ABS*	00000000 mem.c
200000f0 l     O .bss	00000004 lfree
200000f4 l     O .bss	00000004 ram
200000f8 l     O .bss	00000004 ram_end
00000000 l    df *ABS*	00000000 memp.c
200062b4 l     O .bss	00000020 memp_tab
00000000 l    df *ABS*	00000000 netif.c
20000104 l     O .bss	00000001 netifnum.2468
00000000 l    df *ABS*	00000000 pbuf.c
00000000 l    df *ABS*	00000000 raw.c
20000108 l     O .bss	00000004 raw_pcbs
00000000 l    df *ABS*	00000000 tcp.c
000053c6 l     F .text	0000005c tcp_new_port
2000011c l     O .bss	00000001 tcp_timer
20000050 l     O .data	00000004 iss.3173
20000054 l     O .data	00000002 port.3015
00000000 l    df *ABS*	00000000 tcp_in.c
00005e46 l     F .text	000000ce tcp_oos_insert_segment
00005f14 l     F .text	000008f0 tcp_receive
00006804 l     F .text	000000a6 tcp_parseopt.isra.0
200062d4 l     O .bss	00000014 inseg
20000128 l     O .bss	00000004 ackno
2000012c l     O .bss	00000001 flags
20000130 l     O .bss	00000004 iphdr
20000134 l     O .bss	00000004 recv_data
20000138 l     O .bss	00000001 recv_flags
2000013c l     O .bss	00000004 seqno
20000144 l     O .bss	00000004 tcphdr
20000148 l     O .bss	00000002 tcplen
00000000 l    df *ABS*	00000000 tcp_out.c
0000727e l     F .text	000000d4 tcp_output_set_header.isra.0.constprop.1
00000000 l    df *ABS*	00000000 udp.c
00000000 l    df *ABS*	00000000 icmp.c
000083a4 l     F .text	00000076 icmp_send_response.isra.0
00000000 l    df *ABS*	00000000 inet_chksum.c
00008692 l     F .text	0000007e lwip_standard_chksum
00000000 l    df *ABS*	00000000 wchprintf.c
00000000 l    df *ABS*	00000000 memcpy.c
00000000 l    df *ABS*	00000000 stpncpy.c
00000000 l    df *ABS*	00000000 font.c
00008ab8  w    F .text	00000004 printDouble
00000998  w      .text	00000000 EXTI2_IRQHandler
00008e4a g     F .text	00000018 putchar
0000881a g     F .text	00000014 inet_chksum
0000065e g     F .text	0000005e WCHNET_HandleGlobalInt
000009e2  w      .text	00000000 TIM8_TRG_COM_IRQHandler
000052c6 g     F .text	0000001e raw_bind
000041a6 g     F .text	000003dc ip_reass
000009e4  w      .text	00000000 TIM8_CC_IRQHandler
0000511e g     F .text	00000058 pbuf_realloc
200000aa g     O .bss	00000002 LED_Status
20000032 g     O .data	00000002 srcport
00005baa g     F .text	00000010 tcp_next_iss
00005538 g     F .text	00000048 tcp_update_rcv_ann_wnd
000022f6 g     F .text	00000012 setRxBuffAddr
00000d0a g     F .text	00000010 ETH_FlushTransmitFIFO
00001094 g     F .text	0000001e RCC_AHBPeriphResetCmd
20000100 g     O .bss	00000004 netif_list
00000a1a  w      .text	00000000 UART8_IRQHandler
00007bc8 g     F .text	00000108 tcp_rst
2000003e g     O .data	00000002 BACK_COLOR
00008abc  w    F .text	00000320 print
200000c8 g     O .bss	00000004 TCPTimer
000036ae g     F .text	000000ce etharp_request
00008ddc  w    F .text	00000024 printf
20000820 g       .data	00000000 __global_pointer$
00000208 g     F .text	00000028 .hidden __riscv_save_8
0000563c g     F .text	00000006 tcp_err
20000068 g     O .data	00000004 ip_addr_any
000009be  w      .text	00000000 TIM1_CC_IRQHandler
00008710 g     F .text	0000010a inet_chksum_pseudo
00000ae4 g     F .text	000000d8 ETH_StructInit
00002848 g     F .text	00000016 WCHNET_ConfigKeepLive
0000779a g     F .text	00000016 tcp_send_ctrl
0000030c g     F .text	00000044 HardFault_Handler
00003ee6 g     F .text	0000015a ip_output_if
00004dbe g     F .text	00000018 memp_free
000089c2  w    F .text	000000f2 printInt
00004f90 g     F .text	0000004e pbuf_free
00000254 g     F .text	0000000c .hidden __riscv_restore_3
00003136 g     F .text	00000014 WCHNET_GetGlobalInt
00005630 g     F .text	00000006 tcp_recv
00001f10 g     F .text	00000032 TIM6_IRQHandler
000018f4 g     F .text	00000056 ETH_Init
00000984  w      .text	00000000 SysTick_Handler
00005192 g     F .text	0000001c pbuf_cat
0000098a  w      .text	00000000 PVD_IRQHandler
000009ea  w      .text	00000000 SDIO_IRQHandler
00004040 g     F .text	00000036 ip_output
00000a1c  w      .text	00000000 TIM9_BRK_IRQHandler
00000240 g     F .text	00000020 .hidden __riscv_restore_10
000082bc g     F .text	0000002e udp_sendto
00001280 g     F .text	0000004a ETH_TxPktChainMode
200000d0 g     O .bss	00000004 phydatatime
00000a30  w      .text	00000000 DMA2_Channel8_IRQHandler
00000308 g     F .text	00000004 NMI_Handler
00007de4 g     F .text	0000005e tcp_keepalive
00000a0a  w      .text	00000000 CAN2_RX1_IRQHandler
0000099a  w      .text	00000000 EXTI3_IRQHandler
0000279c g     F .text	000000ac WCHNET_Init
00000208 g     F .text	00000028 .hidden __riscv_save_11
0000349e g     F .text	0000004e etharp_tmr
00001b70 g     F .text	0000000e lcd_display_off
00000ac6 g     F .text	0000000a DBGMCU_GetCHIPID
00005bba g     F .text	00000134 tcp_alloc
00002218 g     F .text	00000014 WCHNET_NetInput
000090d0 g     O .text	00000010 MemSize
000081e6 g     F .text	000000d6 udp_sendto_if
00001882 g     F .text	00000072 WCHNET_ETHIsr
0000562c g     F .text	00000004 tcp_arg
00000a12  w      .text	00000000 USBHS_IRQHandler
00003546 g     F .text	00000168 etharp_arp_input
2000010c g     O .bss	00000004 tcp_active_pcbs
00001276 g     F .text	0000000a USART_GetFlagStatus
00000a32  w      .text	00000000 DMA2_Channel9_IRQHandler
2000014c g     O .bss	00000004 udp_pcbs
00000a2a  w      .text	00000000 TIM10_CC_IRQHandler
20000078 g     O .bss	00000006 MACAddr
00003992 g     F .text	00000086 ethernet_input
20000078 g       .bss	00000000 _sbss
00000800 g       *ABS*	00000000 __stack_size
00005188 g     F .text	0000000a pbuf_ref
00001fd4 g     F .text	0000005a USART_Printf_Init
00002faa g     F .text	00000056 WCHNET_SocketSend
200000a8 g     O .bss	00000002 POINT_COLOR
00005a5c g     F .text	00000030 tcp_recv_null
200000d4 g     O .bss	00000001 SockNumber
000059aa g     F .text	000000b2 tcp_close
20006188 g     O .bss	0000000c SelARP
00005580 g     F .text	0000003c tcp_recved
000005ae g     F .text	000000b0 WCHNET_HandleSockInt
00000254 g     F .text	0000000c .hidden __riscv_restore_2
0000564c g     F .text	0000004e tcp_pcb_purge
000012ca g     F .text	0000001e ETH_LedDataSet
20000070 g     O .data	00000007 tcp_persist_backoff
200000d8 g     O .bss	00000004 tcpSendDataTime
00000ad0 g     F .text	00000014 ETH_DeInit
00008e62 g     F .text	000000b2 memcpy
00004b30 g     F .text	00000084 mem_free
20000118 g     O .bss	00000004 tcp_ticks
20000114 g     O .bss	00000004 tcp_listen_pcbs
00007cd0 g     F .text	00000036 tcp_rexmit_rto
00004076 g     F .text	0000004a ip_addr_isbroadcast
00008ab4  w    F .text	00000004 printLongLongInt
20000084 g     O .bss	00000004 DMARxDescToGet
00005cee g     F .text	00000010 tcp_new
00001ee2 g     F .text	0000002e EXTI0_IRQHandler
000009ca  w      .text	00000000 I2C2_EV_IRQHandler
00000a28  w      .text	00000000 TIM10_TRG_COM_IRQHandler
000023dc g     F .text	0000003e IPCheckTmr
0000115c g     F .text	00000018 TIM_Cmd
00008e00 g     F .text	0000004a puts
20006194 g     O .bss	00000018 DHCPCtrl
20000034 g     O .data	00000004 SystemCoreClock
00005386 g     F .text	00000010 raw_send
0000882e g     F .text	0000006a inet_chksum_pbuf
00000442 g     F .text	00000068 WCHNET_CreateTcpSocket
00001186 g     F .text	0000000c TIM_ClearFlag
0000841a g     F .text	00000250 icmp_input
00000038 g       .init	00000000 _einit
00001192 g     F .text	0000000c TIM_ClearITPendingBit
00004eba g     F .text	0000005a netif_add
00000fe4 g     F .text	0000001e RCC_APB2PeriphClockCmd
00000200 g     F .text	00000030 .hidden __riscv_save_12
000055e6 g     F .text	0000001e tcp_segs_free
000030f8 g     F .text	0000003e WCHNET_QueryGlobalInt
00000a0c  w      .text	00000000 CAN2_SCE_IRQHandler
000009ac  w      .text	00000000 ADC1_2_IRQHandler
0000317e g     F .text	00000054 WCHNET_SocketSetKeepLive
00000d7e g     F .text	000000c0 GPIO_Init
2000009c g     O .bss	00000001 phyLinkCnt
00000982  w      .text	00000000 Break_Point_Handler
00004dd6 g     F .text	00000096 netif_set_ipaddr
00000240 g     F .text	00000020 .hidden __riscv_restore_11
000009ce  w      .text	00000000 SPI1_IRQHandler
000004aa g     F .text	00000060 show_lcd_data
00001258 g     F .text	00000016 USART_Cmd
0000314a g     F .text	0000002a WCHNET_GetSocketInt
000077b0 g     F .text	00000030 tcp_write
0000098c  w      .text	00000000 TAMPER_IRQHandler
00000230 g     F .text	0000000c .hidden __riscv_save_1
000096d0 g     O .text	00000d5c asc2_2412
20000080 g     O .bss	00000001 socket
20006250 g     O .bss	0000002c WCHCfg
00000254 g     F .text	0000000c .hidden __riscv_restore_0
0000168a g     F .text	0000011a ETH_RegInit
00000216 g     F .text	0000001a .hidden __riscv_save_7
00000a08  w      .text	00000000 CAN2_RX0_IRQHandler
00005422 g     F .text	00000116 tcp_bind
0000867e g     F .text	00000014 icmp_time_exceeded
20000d18 g     O .bss	00001800 MACRxBuf
000009e0  w      .text	00000000 TIM8_UP_IRQHandler
00004582 g     F .text	0000017e ip_frag
00001002 g     F .text	0000001e RCC_APB1PeriphClockCmd
00002c3a g     F .text	000000f4 WCHNET_SocketRecv
20000094 g     O .bss	00000004 pDMARxSet
0000097e  w      .text	00000000 Ecall_M_Mode_Handler
2000f800 g       .stack	00000000 _heap_end
200061ac g     O .bss	00000040 dhcp_host_name
00005308 g     F .text	0000007e raw_sendto
00001f68 g     F .text	00000036 Delay_Us
0000024a g     F .text	00000016 .hidden __riscv_restore_5
2000007e g     O .bss	00000001 SocketId
000009fa  w      .text	00000000 DMA2_Channel2_IRQHandler
00000fc6 g     F .text	0000001e RCC_AHBPeriphClockCmd
000009a4  w      .text	00000000 DMA1_Channel4_IRQHandler
00001b7e g     F .text	00000046 lcd_clear
000051c2 g     F .text	0000009c pbuf_copy
00007d06 g     F .text	0000007c tcp_rexmit
00002488 g     F .text	00000004 LwipTCPPollCallBack
20000088 g     O .bss	00000004 DMATxDescToSet
00001bc4 g     F .text	0000001e lcd_draw_point
2000002c g     O .data	00000004 IPMask
00000a1e  w      .text	00000000 TIM9_UP_IRQHandler
0000024a g     F .text	00000016 .hidden __riscv_restore_6
000009d6  w      .text	00000000 USART3_IRQHandler
00000d74 g     F .text	0000000a EXTI_ClearITPendingBit
0000098e  w      .text	00000000 RTC_IRQHandler
20000120 g     O .bss	00000004 tcp_tmp_pcb
200062e8 g       .bss	00000000 _ebss
200035c8 g     O .bss	00001244 Mem_Heap_Memory
000009aa  w      .text	00000000 DMA1_Channel7_IRQHandler
00001be2 g     F .text	00000110 lcd_show_char
200000b8 g     O .bss	00000004 DHCPcoarseTimer
000009b2  w      .text	00000000 CAN1_RX1_IRQHandler
00001f42 g     F .text	00000026 Delay_Init
00004af2 g     F .text	0000003e mem_init
00000d02 g     F .text	00000008 ETH_DMAClearITPendingBit
00000a14  w      .text	00000000 DVP_IRQHandler
000009f2  w      .text	00000000 UART5_IRQHandler
00001020 g     F .text	0000002e RCC_GetFlagStatus
20000090 g     O .bss	00000002 gPHYAddress
00007854 g     F .text	00000374 tcp_output
00001a06 g     F .text	0000007e lcd_write_reg
000012e8 g     F .text	0000001e ETH_LedLinkSet
00000e3e g     F .text	00000004 GPIO_SetBits
000009c4  w      .text	00000000 TIM4_IRQHandler
20000140 g     O .bss	00000004 tcp_input_pcb
0000525e g     F .text	00000068 raw_input
000077e0 g     F .text	00000074 tcp_send_empty_ack
00000208 g     F .text	00000028 .hidden __riscv_save_9
00000e46 g     F .text	0000000a GPIO_WriteBit
00007d82 g     F .text	00000062 tcp_rexmit_fast
000009f8  w      .text	00000000 DMA2_Channel1_IRQHandler
2000480c g     O .bss	0000193f Memp_Memory
00000d4c g     F .text	0000001e ETH_DMAITConfig
00003b3e g     F .text	00000076 wch_ethernetif_init
0000233a g     F .text	0000004c getTxBuffAddr
00003bf4 g     F .text	0000000c ntohl
00000cf4 g     F .text	0000000e ETH_SoftwareReset
00000216 g     F .text	0000001a .hidden __riscv_save_4
00004f14 g     F .text	00000006 netif_set_default
00002750 g     F .text	0000004c WCHSocketInit
00000c14 g     F .text	00000052 ETH_WritePHYRegister
0000837a g     F .text	00000006 udp_recv
000009c6  w      .text	00000000 I2C1_EV_IRQHandler
0000241a g     F .text	0000002e IPConflictHandle
00004fde g     F .text	00000140 pbuf_alloc
000023a4 g     F .text	00000038 SelIPARPSend
00003000 g     F .text	00000052 WCHScokedIntHandle
00000e50 g     F .text	00000176 RCC_GetClocksFreq
000014da g     F .text	0000002c WCHNET_HandlePhyNegotiation
000009a8  w      .text	00000000 DMA1_Channel6_IRQHandler
2000003c g     O .data	00000001 phyPN
000009f0  w      .text	00000000 UART4_IRQHandler
000009fe  w      .text	00000000 DMA2_Channel4_IRQHandler
2000006c g     O .data	00000004 ip_addr_broadcast
000040c0 g     F .text	000000e6 ip_reass_tmr
0000119e g     F .text	000000ba USART_Init
2000004c g     O .data	00000004 memp_sizes
00001306 g     F .text	00000020 WCHNET_GetMacAddr
000009c2  w      .text	00000000 TIM3_IRQHandler
00000992  w      .text	00000000 RCC_IRQHandler
20000cf8 g     O .bss	00000020 DMATxDscrTab
00000230 g     F .text	0000000c .hidden __riscv_save_3
000082fc g     F .text	0000007e udp_connect
000009bc  w      .text	00000000 TIM1_TRG_COM_IRQHandler
0000bbec g     O .text	00000010 ErrTable
0000099e  w      .text	00000000 DMA1_Channel1_IRQHandler
00004e6c g     F .text	0000004e netif_set_addr
00004958 g     F .text	00000182 dhcp_arp_reply
00000000 g       .init	00000000 _start
00000a2e  w      .text	00000000 DMA2_Channel7_IRQHandler
20000000 g     O .data	00000010 AHBPrescTable
00000d6a g     F .text	0000000a EXTI_ClearFlag
00004d9e g     F .text	00000020 memp_malloc
00007e42 g     F .text	000000d2 tcp_zero_window_probe
000088e2  w    F .text	000000e0 prints
000009d8  w      .text	00000000 EXTI15_10_IRQHandler
00001174 g     F .text	00000012 TIM_ITConfig
20006200 g     O .bss	0000000c KeepLiveCfg
000029e0 g     F .text	000001d2 WCHNET_SocketCreat
000019cc g     F .text	0000003a ST7789_GPIO_init
200000a5 g     O .bss	00000001 phyStatus
00001b10 g     F .text	00000052 lcd_set_address
00002be8 g     F .text	00000052 WCHNET_ModifyRecvBuf
2000627c g     O .bss	00000038 WCHNetIf
20000110 g     O .bss	00000004 tcp_bound_pcbs
00003bd0 g     F .text	00000024 htonl
000055bc g     F .text	0000002a tcp_seg_free
00003052 g     F .text	000000a6 LwipRemoveTcpPcb
00000e42 g     F .text	00000004 GPIO_ResetBits
00002072 g     F .text	00000006 __get_MCAUSE
000009f6  w      .text	00000000 TIM7_IRQHandler
00005d2c g     F .text	000000e8 tcp_connect
00004c7e g     F .text	000000d0 mem_malloc
00000a06  w      .text	00000000 CAN2_TX_IRQHandler
20000000 g       .dalign	00000000 _data_vma
0000155c g     F .text	00000022 ETH_SetClock
000009ec  w      .text	00000000 TIM5_IRQHandler
00001b02 g     F .text	0000000e lcd_write_ram
00000ca8 g     F .text	0000004c ETH_DMARxDescChainInit
00000bbc g     F .text	00000058 ETH_ReadPHYRegister
00000350 g     F .text	00000050 EXTI9_5_IRQHandler
00007352 g     F .text	00000448 tcp_enqueue
00005cfe g     F .text	0000002e tcp_eff_send_mss
00002982 g     F .text	0000005e WCHFindCorrectTCBPcb
00000208 g     F .text	00000028 .hidden __riscv_save_10
0000194a g     F .text	00000082 ETH_LibInit
0000104e g     F .text	00000010 RCC_PREDIV2Config
00002622 g     F .text	000000d2 WCHSocketTCPReceive
00000a04  w      .text	00000000 ETH_WKUP_IRQHandler
0000024a g     F .text	00000016 .hidden __riscv_restore_4
00002078 g     F .text	00000006 __get_MTVAL
00000240 g     F .text	00000020 .hidden __riscv_restore_8
0000206c g     F .text	00000006 __get_MEPC
00000216 g     F .text	0000001a .hidden __riscv_save_6
000052e4 g     F .text	0000001e raw_connect
000009d0  w      .text	00000000 SPI2_IRQHandler
00001518 g     F .text	00000044 ETH_LedConfiguration
20000020 g     O .data	00000004 DESIP
00000260 g     F .text	000000a8 memset
00000240 g     F .text	00000020 .hidden __riscv_restore_9
00001cf2 g     F .text	000001f0 lcd_init
0000024a g     F .text	00000016 .hidden __riscv_restore_7
000006bc g     F .text	0000010a main
00001332 g     F .text	000001a8 WCHNET_LinkProcess
000090e0 g     O .text	000005f0 asc2_1608
2000008c g     O .bss	00000004 LocalTime
20000048 g     O .data	00000004 memp_num
00000a24  w      .text	00000000 TIM10_BRK_IRQHandler
20000024 g     O .data	00000004 GWIPAddr
000003bc g     F .text	00000018 mStopIfError
00000a22  w      .text	00000000 TIM9_CC_IRQHandler
0000866a g     F .text	00000014 icmp_dest_unreach
0000248c g     F .text	000000c0 SocketIPRAWReceive
00005636 g     F .text	00000006 tcp_sent
00004f1a g     F .text	00000008 netif_is_up
00000a00  w      .text	00000000 DMA2_Channel5_IRQHandler
00003bc2 g     F .text	0000000e ntohs
00005396 g     F .text	00000030 raw_new
200000c4 g     O .bss	00000004 IPFragTimer
00002448 g     F .text	00000002 NET_TCPError
00003ace g     F .text	00000070 ethernetif_input
000009a6  w      .text	00000000 DMA1_Channel5_IRQHandler
200000a6 g     O .bss	00000001 phySucCnt
0000099c  w      .text	00000000 EXTI4_IRQHandler
00001f9e g     F .text	00000036 Delay_Ms
000009b0  w      .text	00000000 USB_LP_CAN1_RX0_IRQHandler
200061ec g     O .bss	00000014 DNSInf
00002dec g     F .text	000000be SocketUdpSend
0000814c g     F .text	0000009a udp_bind
00005aee g     F .text	00000022 tcp_tmr
0000377c g     F .text	000000e2 etharp_query
00001506 g     F .text	00000012 WCHNET_MainTask
00004ada g     F .text	00000018 lwip_init
00002308 g     F .text	00000032 WCHNET_Tx
0000385e g     F .text	00000134 etharp_output
000007c6 g     F .text	000000fa SystemInit
000009e6  w      .text	00000000 RNG_IRQHandler
20000cb8 g     O .bss	00000040 DMARxDscrTab
200000a0 g     O .bss	00000004 phyLinkTime
00008898  w    F .text	0000004a printchar
00002eaa g     F .text	00000100 SocketTcpSend
000009ae  w      .text	00000000 USB_HP_CAN1_TX_IRQHandler
00005176 g     F .text	00000012 pbuf_clen
00000000 g       .init	00000000 _sinit
00002736 g     F .text	0000001a ErrorEncode
000082ea g     F .text	00000012 udp_send
000009a2  w      .text	00000000 DMA1_Channel3_IRQHandler
00001a84 g     F .text	0000007e lcd_write_data
00005302 g     F .text	00000006 raw_recv
0000050a g     F .text	000000a4 WCHNET_DataLoopback
200000e0 g     O .bss	00000008 frame
000009e8  w      .text	00000000 FSMC_IRQHandler
000090c0 g     O .text	00000010 MemNum
000003a0 g     F .text	00000008 ETH_IRQHandler
000009ba  w      .text	00000000 TIM1_UP_IRQHandler
0000569a g     F .text	0000029e tcp_slowtmr
00001b62 g     F .text	0000000e lcd_display_on
0000227a g     F .text	0000007c WCHNET_Rx
20000028 g     O .data	00000004 IPAddr
00000988  w      .text	00000000 WWDG_IRQHandler
00000a10  w      .text	00000000 USBHSWakeup_IRQHandler
00000a36  w      .text	00000000 DMA2_Channel11_IRQHandler
00000d1a g     F .text	00000032 ETH_Start
00000980  w      .text	00000000 Ecall_U_Mode_Handler
00003a18 g     F .text	00000064 ethernetif_init
00000a2c  w      .text	00000000 DMA2_Channel6_IRQHandler
000003a8 g     F .text	00000014 TIM2_IRQHandler
20010000 g       .stack	00000000 _eusrstack
00000230 g     F .text	0000000c .hidden __riscv_save_2
00000986  w      .text	00000000 SW_Handler
00002bb2 g     F .text	00000036 tcp_recved_socket
20002518 g     O .bss	00000c00 MACTxBuf
20000098 g     O .bss	00000004 pDMATxSet
00003174 g     F .text	0000000a WCHNET_GetPHYStatus
00002386 g     F .text	0000001e IPCheckParaInit
000009b8  w      .text	00000000 TIM1_BRK_IRQHandler
0000126e g     F .text	00000008 USART_SendData
20000124 g     O .bss	00000004 tcp_tw_pcbs
00000a34  w      .text	00000000 DMA2_Channel10_IRQHandler
00000996  w      .text	00000000 EXTI1_IRQHandler
00008f14 g     F .text	00000030 stpncpy
00007f14 g     F .text	00000238 udp_input
00000216 g     F .text	0000001a .hidden __riscv_save_5
200000bc g     O .bss	00000004 DHCPfineTimer
200000cc g     O .bss	00000004 TxTimer
0000202e g     F .text	0000003e _write
20000078 g       .data	00000000 _edata
200062e8 g       .bss	00000000 _end
00003bb4 g     F .text	0000000e htons
200000c0 g     O .bss	00000004 DNSTimer
0000a42c g     O .text	000017c0 asc2_3216
000017a4 g     F .text	000000de ETH_Configuration
200000b4 g     O .bss	00000004 ArpCheckTime
000010b2 g     F .text	000000aa TIM_TimeBaseInit
00003c00 g     F .text	0000004c ip_route
000009da  w      .text	00000000 RTCAlarm_IRQHandler
0000bc54 g       .dlalign	00000000 _data_lma
00000a26  w      .text	00000000 TIM10_UP_IRQHandler
00000a20  w      .text	00000000 TIM9_TRG_COM_IRQHandler
00000a18  w      .text	00000000 UART7_IRQHandler
00004f22 g     F .text	0000006e pbuf_header
00004bb4 g     F .text	000000ca mem_realloc
200000fc g     O .bss	00000004 netif_default
00005938 g     F .text	00000072 tcp_pcb_remove
000009d4  w      .text	00000000 USART2_IRQHandler
00000a16  w      .text	00000000 UART6_IRQHandler
2000009d g     O .bss	00000001 phyLinkStatus
000051ae g     F .text	00000014 pbuf_chain
20003118 g     O .bss	000004b0 Mem_ArpTable
200000b0 g     O .bss	00000004 ARPTimer
20000030 g     O .data	00000002 desport
00005b10 g     F .text	0000009a tcp_abandon
20000040 g     O .data	00000004 arp_table
0000254c g     F .text	000000d6 SocketUdpReceive
000026f4 g     F .text	00000042 LwipTcpConnectedCallBack
000008c0 g     F .text	000000ba SystemCoreClockUpdate
2000614c g     O .bss	0000003c SocketInf
00004d4e g     F .text	00000050 memp_init
00005a8c g     F .text	00000062 tcp_fasttmr
00002d2e g     F .text	000000be SocketIPRawSend
0000297e g     F .text	00000004 WCHNET_GetVer
000009cc  w      .text	00000000 I2C2_ER_IRQHandler
200000d5 g     O .bss	00000001 phydata
000009a0  w      .text	00000000 DMA1_Channel2_IRQHandler
00001070 g     F .text	00000024 RCC_PLL3Cmd
000034ec g     F .text	0000005a etharp_ip_input
0000023c g     F .text	00000024 .hidden __riscv_restore_12
000009de  w      .text	00000000 TIM8_BRK_IRQHandler
00000a38  w      .text	00000000 handle_reset
000009b4  w      .text	00000000 CAN1_SCE_IRQHandler
20000150 g     O .bss	00000b68 SocketRecvBuf
0000157e g     F .text	0000010c ETH_PHYLink
00000990  w      .text	00000000 FLASH_IRQHandler
00000230 g     F .text	0000000c .hidden __riscv_save_0
0000323e g     F .text	0000000e QueryPingEnable
00005604 g     F .text	00000028 tcp_seg_copy
000003d4 g     F .text	0000006e TIM2_Init
000009d2  w      .text	00000000 USART1_IRQHandler
00005642 g     F .text	0000000a tcp_poll
00000a0e  w      .text	00000000 OTG_FS_IRQHandler
000009ee  w      .text	00000000 SPI3_IRQHandler
00008380 g     F .text	00000024 udp_new
000009c8  w      .text	00000000 I2C1_ER_IRQHandler
20000058 g     O .data	00000006 ethbroadcast
0000bc1c g     O .text	0000000d tcp_backoff
00001326 g     F .text	0000000c WCHNET_TimeIsr
00000254 g     F .text	0000000c .hidden __riscv_restore_1
2000620c g     O .bss	00000044 NetInf
0000244a g     F .text	0000003e LwipTCPSendCallBack
00003266 g     F .text	0000000c LwipArpCheck
000031d2 g     F .text	0000006c WCHNET_SocketConnect
000068aa g     F .text	000009d4 tcp_input
00005e14 g     F .text	00000032 RemoveTimeWaiTCP
00003c4c g     F .text	0000029a ip_input
20000060 g     O .data	00000006 ethzero
000009dc  w      .text	00000000 USBWakeUp_IRQHandler
0000105e g     F .text	00000012 RCC_PLL3Config
0000285e g     F .text	00000120 WCHNET_ConfigLIB
0000324c g     F .text	0000001a LwipUnreachPort
200000a4 g     O .bss	00000001 phyRetryCnt
000009fc  w      .text	00000000 DMA2_Channel3_IRQHandler
0000222c g     F .text	0000004e WCHNET_PhyStatus
0000207e g     F .text	0000019a WCHNET_PeriodicHandle
00000c66 g     F .text	00000042 ETH_DMATxDescChainInit



Disassembly of section .init:

00000000 <_sinit>:
_start():
C:/ch32/data/CH32V307EVT/EVT/EXAM/SRC/Startup/startup_ch32v30x_D8C.S:17

	.section	.init,"ax",@progbits
	.global	_start
	.align	1
_start:
	j	handle_reset
   0:	2390006f          	j	a38 <handle_reset>
   4:	00000013          	nop
   8:	00000013          	nop
   c:	00000013          	nop
  10:	00000013          	nop
  14:	00000013          	nop
  18:	00000013          	nop
  1c:	00000013          	nop
  20:	00000013          	nop
  24:	00000013          	nop
  28:	00000013          	nop
  2c:	00000013          	nop
  30:	00000013          	nop
  34:	00100073          	ebreak

Disassembly of section .vector:

00000038 <_vector_base>:
	...
_vector_base():
  40:	0308                	addi	a0,sp,384
  42:	0000                	unimp
  44:	030c                	addi	a1,sp,384
  46:	0000                	unimp
  48:	0000                	unimp
  4a:	0000                	unimp
  4c:	097e                	slli	s2,s2,0x1f
	...
  56:	0000                	unimp
  58:	0980                	addi	s0,sp,208
  5a:	0000                	unimp
  5c:	0982                	c.slli64	s3
	...
  66:	0000                	unimp
  68:	0984                	addi	s1,sp,208
  6a:	0000                	unimp
  6c:	0000                	unimp
  6e:	0000                	unimp
  70:	0986                	slli	s3,s3,0x1
  72:	0000                	unimp
  74:	0000                	unimp
  76:	0000                	unimp
  78:	0988                	addi	a0,sp,208
  7a:	0000                	unimp
  7c:	098a                	slli	s3,s3,0x2
  7e:	0000                	unimp
  80:	098c                	addi	a1,sp,208
  82:	0000                	unimp
  84:	098e                	slli	s3,s3,0x3
  86:	0000                	unimp
  88:	0990                	addi	a2,sp,208
  8a:	0000                	unimp
  8c:	0992                	slli	s3,s3,0x4
  8e:	0000                	unimp
  90:	1ee2                	slli	t4,t4,0x38
  92:	0000                	unimp
  94:	0996                	slli	s3,s3,0x5
  96:	0000                	unimp
  98:	0998                	addi	a4,sp,208
  9a:	0000                	unimp
  9c:	099a                	slli	s3,s3,0x6
  9e:	0000                	unimp
  a0:	099c                	addi	a5,sp,208
  a2:	0000                	unimp
  a4:	099e                	slli	s3,s3,0x7
  a6:	0000                	unimp
  a8:	09a0                	addi	s0,sp,216
  aa:	0000                	unimp
  ac:	09a2                	slli	s3,s3,0x8
  ae:	0000                	unimp
  b0:	09a4                	addi	s1,sp,216
  b2:	0000                	unimp
  b4:	09a6                	slli	s3,s3,0x9
  b6:	0000                	unimp
  b8:	09a8                	addi	a0,sp,216
  ba:	0000                	unimp
  bc:	09aa                	slli	s3,s3,0xa
  be:	0000                	unimp
  c0:	09ac                	addi	a1,sp,216
  c2:	0000                	unimp
  c4:	09ae                	slli	s3,s3,0xb
  c6:	0000                	unimp
  c8:	09b0                	addi	a2,sp,216
  ca:	0000                	unimp
  cc:	09b2                	slli	s3,s3,0xc
  ce:	0000                	unimp
  d0:	09b4                	addi	a3,sp,216
  d2:	0000                	unimp
  d4:	0350                	addi	a2,sp,388
  d6:	0000                	unimp
  d8:	09b8                	addi	a4,sp,216
  da:	0000                	unimp
  dc:	09ba                	slli	s3,s3,0xe
  de:	0000                	unimp
  e0:	09bc                	addi	a5,sp,216
  e2:	0000                	unimp
  e4:	09be                	slli	s3,s3,0xf
  e6:	0000                	unimp
  e8:	03a8                	addi	a0,sp,456
  ea:	0000                	unimp
  ec:	09c2                	slli	s3,s3,0x10
  ee:	0000                	unimp
  f0:	09c4                	addi	s1,sp,212
  f2:	0000                	unimp
  f4:	09c6                	slli	s3,s3,0x11
  f6:	0000                	unimp
  f8:	09c8                	addi	a0,sp,212
  fa:	0000                	unimp
  fc:	09ca                	slli	s3,s3,0x12
  fe:	0000                	unimp
 100:	09cc                	addi	a1,sp,212
 102:	0000                	unimp
 104:	09ce                	slli	s3,s3,0x13
 106:	0000                	unimp
 108:	09d0                	addi	a2,sp,212
 10a:	0000                	unimp
 10c:	09d2                	slli	s3,s3,0x14
 10e:	0000                	unimp
 110:	09d4                	addi	a3,sp,212
 112:	0000                	unimp
 114:	09d6                	slli	s3,s3,0x15
 116:	0000                	unimp
 118:	09d8                	addi	a4,sp,212
 11a:	0000                	unimp
 11c:	09da                	slli	s3,s3,0x16
 11e:	0000                	unimp
 120:	09dc                	addi	a5,sp,212
 122:	0000                	unimp
 124:	09de                	slli	s3,s3,0x17
 126:	0000                	unimp
 128:	09e0                	addi	s0,sp,220
 12a:	0000                	unimp
 12c:	09e2                	slli	s3,s3,0x18
 12e:	0000                	unimp
 130:	09e4                	addi	s1,sp,220
 132:	0000                	unimp
 134:	09e6                	slli	s3,s3,0x19
 136:	0000                	unimp
 138:	09e8                	addi	a0,sp,220
 13a:	0000                	unimp
 13c:	09ea                	slli	s3,s3,0x1a
 13e:	0000                	unimp
 140:	09ec                	addi	a1,sp,220
 142:	0000                	unimp
 144:	09ee                	slli	s3,s3,0x1b
 146:	0000                	unimp
 148:	09f0                	addi	a2,sp,220
 14a:	0000                	unimp
 14c:	09f2                	slli	s3,s3,0x1c
 14e:	0000                	unimp
 150:	1f10                	addi	a2,sp,944
 152:	0000                	unimp
 154:	09f6                	slli	s3,s3,0x1d
 156:	0000                	unimp
 158:	09f8                	addi	a4,sp,220
 15a:	0000                	unimp
 15c:	09fa                	slli	s3,s3,0x1e
 15e:	0000                	unimp
 160:	09fc                	addi	a5,sp,220
 162:	0000                	unimp
 164:	09fe                	slli	s3,s3,0x1f
 166:	0000                	unimp
 168:	0a00                	addi	s0,sp,272
 16a:	0000                	unimp
 16c:	03a0                	addi	s0,sp,456
 16e:	0000                	unimp
 170:	0a04                	addi	s1,sp,272
 172:	0000                	unimp
 174:	0a06                	slli	s4,s4,0x1
 176:	0000                	unimp
 178:	0a08                	addi	a0,sp,272
 17a:	0000                	unimp
 17c:	0a0a                	slli	s4,s4,0x2
 17e:	0000                	unimp
 180:	0a0c                	addi	a1,sp,272
 182:	0000                	unimp
 184:	0a0e                	slli	s4,s4,0x3
 186:	0000                	unimp
 188:	0a10                	addi	a2,sp,272
 18a:	0000                	unimp
 18c:	0a12                	slli	s4,s4,0x4
 18e:	0000                	unimp
 190:	0a14                	addi	a3,sp,272
 192:	0000                	unimp
 194:	0a16                	slli	s4,s4,0x5
 196:	0000                	unimp
 198:	0a18                	addi	a4,sp,272
 19a:	0000                	unimp
 19c:	0a1a                	slli	s4,s4,0x6
 19e:	0000                	unimp
 1a0:	0a1c                	addi	a5,sp,272
 1a2:	0000                	unimp
 1a4:	0a1e                	slli	s4,s4,0x7
 1a6:	0000                	unimp
 1a8:	0a20                	addi	s0,sp,280
 1aa:	0000                	unimp
 1ac:	0a22                	slli	s4,s4,0x8
 1ae:	0000                	unimp
 1b0:	0a24                	addi	s1,sp,280
 1b2:	0000                	unimp
 1b4:	0a26                	slli	s4,s4,0x9
 1b6:	0000                	unimp
 1b8:	0a28                	addi	a0,sp,280
 1ba:	0000                	unimp
 1bc:	0a2a                	slli	s4,s4,0xa
 1be:	0000                	unimp
 1c0:	0a2c                	addi	a1,sp,280
 1c2:	0000                	unimp
 1c4:	0a2e                	slli	s4,s4,0xb
 1c6:	0000                	unimp
 1c8:	0a30                	addi	a2,sp,280
 1ca:	0000                	unimp
 1cc:	0a32                	slli	s4,s4,0xc
 1ce:	0000                	unimp
 1d0:	0a34                	addi	a3,sp,280
 1d2:	0000                	unimp
 1d4:	0a36                	slli	s4,s4,0xd
	...

Disassembly of section .text:

00000200 <__riscv_save_12>:
__riscv_save_12():
     200:	7139                	addi	sp,sp,-64
     202:	4301                	li	t1,0
     204:	c66e                	sw	s11,12(sp)
     206:	a019                	j	20c <__riscv_save_10+0x4>

00000208 <__riscv_save_10>:
     208:	7139                	addi	sp,sp,-64
     20a:	5341                	li	t1,-16
     20c:	c86a                	sw	s10,16(sp)
     20e:	ca66                	sw	s9,20(sp)
     210:	cc62                	sw	s8,24(sp)
     212:	ce5e                	sw	s7,28(sp)
     214:	a019                	j	21a <__riscv_save_4+0x4>

00000216 <__riscv_save_4>:
     216:	7139                	addi	sp,sp,-64
     218:	5301                	li	t1,-32
     21a:	d05a                	sw	s6,32(sp)
     21c:	d256                	sw	s5,36(sp)
     21e:	d452                	sw	s4,40(sp)
     220:	d64e                	sw	s3,44(sp)
     222:	d84a                	sw	s2,48(sp)
     224:	da26                	sw	s1,52(sp)
     226:	dc22                	sw	s0,56(sp)
     228:	de06                	sw	ra,60(sp)
     22a:	40610133          	sub	sp,sp,t1
     22e:	8282                	jr	t0

00000230 <__riscv_save_0>:
__riscv_save_1():
     230:	1141                	addi	sp,sp,-16
     232:	c04a                	sw	s2,0(sp)
     234:	c226                	sw	s1,4(sp)
     236:	c422                	sw	s0,8(sp)
     238:	c606                	sw	ra,12(sp)
     23a:	8282                	jr	t0

0000023c <__riscv_restore_12>:
__riscv_restore_12():
     23c:	4db2                	lw	s11,12(sp)
     23e:	0141                	addi	sp,sp,16

00000240 <__riscv_restore_10>:
     240:	4d02                	lw	s10,0(sp)
     242:	4c92                	lw	s9,4(sp)
     244:	4c22                	lw	s8,8(sp)
     246:	4bb2                	lw	s7,12(sp)
     248:	0141                	addi	sp,sp,16

0000024a <__riscv_restore_4>:
     24a:	4b02                	lw	s6,0(sp)
     24c:	4a92                	lw	s5,4(sp)
     24e:	4a22                	lw	s4,8(sp)
     250:	49b2                	lw	s3,12(sp)
     252:	0141                	addi	sp,sp,16

00000254 <__riscv_restore_0>:
     254:	4902                	lw	s2,0(sp)
     256:	4492                	lw	s1,4(sp)
     258:	4422                	lw	s0,8(sp)
     25a:	40b2                	lw	ra,12(sp)
     25c:	0141                	addi	sp,sp,16
     25e:	8082                	ret

00000260 <memset>:
memset():
     260:	433d                	li	t1,15
     262:	872a                	mv	a4,a0
     264:	02c37363          	bgeu	t1,a2,28a <memset+0x2a>
     268:	00f77793          	andi	a5,a4,15
     26c:	efbd                	bnez	a5,2ea <memset+0x8a>
     26e:	e5ad                	bnez	a1,2d8 <memset+0x78>
     270:	ff067693          	andi	a3,a2,-16
     274:	8a3d                	andi	a2,a2,15
     276:	96ba                	add	a3,a3,a4
     278:	c30c                	sw	a1,0(a4)
     27a:	c34c                	sw	a1,4(a4)
     27c:	c70c                	sw	a1,8(a4)
     27e:	c74c                	sw	a1,12(a4)
     280:	0741                	addi	a4,a4,16
     282:	fed76be3          	bltu	a4,a3,278 <memset+0x18>
     286:	e211                	bnez	a2,28a <memset+0x2a>
     288:	8082                	ret
     28a:	40c306b3          	sub	a3,t1,a2
     28e:	068a                	slli	a3,a3,0x2
     290:	00000297          	auipc	t0,0x0
     294:	9696                	add	a3,a3,t0
     296:	00a68067          	jr	10(a3)
     29a:	00b70723          	sb	a1,14(a4)
     29e:	00b706a3          	sb	a1,13(a4)
     2a2:	00b70623          	sb	a1,12(a4)
     2a6:	00b705a3          	sb	a1,11(a4)
     2aa:	00b70523          	sb	a1,10(a4)
     2ae:	00b704a3          	sb	a1,9(a4)
     2b2:	00b70423          	sb	a1,8(a4)
     2b6:	00b703a3          	sb	a1,7(a4)
     2ba:	00b70323          	sb	a1,6(a4)
     2be:	00b702a3          	sb	a1,5(a4)
     2c2:	00b70223          	sb	a1,4(a4)
     2c6:	00b701a3          	sb	a1,3(a4)
     2ca:	00b70123          	sb	a1,2(a4)
     2ce:	00b700a3          	sb	a1,1(a4)
     2d2:	00b70023          	sb	a1,0(a4)
     2d6:	8082                	ret
     2d8:	0ff5f593          	andi	a1,a1,255
     2dc:	00859693          	slli	a3,a1,0x8
     2e0:	8dd5                	or	a1,a1,a3
     2e2:	01059693          	slli	a3,a1,0x10
     2e6:	8dd5                	or	a1,a1,a3
     2e8:	b761                	j	270 <memset+0x10>
     2ea:	00279693          	slli	a3,a5,0x2
     2ee:	00000297          	auipc	t0,0x0
     2f2:	9696                	add	a3,a3,t0
     2f4:	8286                	mv	t0,ra
     2f6:	fa8680e7          	jalr	-88(a3)
     2fa:	8096                	mv	ra,t0
     2fc:	17c1                	addi	a5,a5,-16
     2fe:	8f1d                	sub	a4,a4,a5
     300:	963e                	add	a2,a2,a5
     302:	f8c374e3          	bgeu	t1,a2,28a <memset+0x2a>
     306:	b7a5                	j	26e <memset+0xe>

00000308 <NMI_Handler>:
NMI_Handler():
C:\ch32\data\CH32V307EVT\EVT\EXAM\ETH\TcpClient\obj/../User/ch32v30x_it.c:31
 *
 * @return  none
 */
void NMI_Handler(void)
{
}
     308:	30200073          	mret

0000030c <HardFault_Handler>:
HardFault_Handler():
C:\ch32\data\CH32V307EVT\EVT\EXAM\ETH\TcpClient\obj/../User/ch32v30x_it.c:42
 *
 * @return  none
 */
void HardFault_Handler(void)
{
    printf("HardFault_Handler\r\n");
     30c:	00009537          	lui	a0,0x9
     310:	f4450513          	addi	a0,a0,-188 # 8f44 <stpncpy+0x30>
     314:	2ed080ef          	jal	ra,8e00 <puts>
C:\ch32\data\CH32V307EVT\EVT\EXAM\ETH\TcpClient\obj/../User/ch32v30x_it.c:44

    printf("mepc  :%08x\r\n", __get_MEPC());
     318:	555010ef          	jal	ra,206c <__get_MEPC>
     31c:	85aa                	mv	a1,a0
     31e:	00009537          	lui	a0,0x9
     322:	f5850513          	addi	a0,a0,-168 # 8f58 <stpncpy+0x44>
     326:	2b7080ef          	jal	ra,8ddc <printf>
C:\ch32\data\CH32V307EVT\EVT\EXAM\ETH\TcpClient\obj/../User/ch32v30x_it.c:45
    printf("mcause:%08x\r\n", __get_MCAUSE());
     32a:	549010ef          	jal	ra,2072 <__get_MCAUSE>
     32e:	85aa                	mv	a1,a0
     330:	00009537          	lui	a0,0x9
     334:	f6850513          	addi	a0,a0,-152 # 8f68 <stpncpy+0x54>
     338:	2a5080ef          	jal	ra,8ddc <printf>
C:\ch32\data\CH32V307EVT\EVT\EXAM\ETH\TcpClient\obj/../User/ch32v30x_it.c:46
    printf("mtval :%08x\r\n", __get_MTVAL());
     33c:	53d010ef          	jal	ra,2078 <__get_MTVAL>
     340:	85aa                	mv	a1,a0
     342:	00009537          	lui	a0,0x9
     346:	f7850513          	addi	a0,a0,-136 # 8f78 <stpncpy+0x64>
     34a:	293080ef          	jal	ra,8ddc <printf>
C:\ch32\data\CH32V307EVT\EVT\EXAM\ETH\TcpClient\obj/../User/ch32v30x_it.c:47 (discriminator 1)
    while(1);
     34e:	a001                	j	34e <HardFault_Handler+0x42>

00000350 <EXTI9_5_IRQHandler>:
EXTI9_5_IRQHandler():
C:\ch32\data\CH32V307EVT\EVT\EXAM\ETH\TcpClient\obj/../User/ch32v30x_it.c:58
 * @brief   This function handles GPIO exception.
 *
 * @return  none
 */
void EXTI9_5_IRQHandler(void)
{
     350:	7139                	addi	sp,sp,-64
     352:	d62a                	sw	a0,44(sp)
C:\ch32\data\CH32V307EVT\EVT\EXAM\ETH\TcpClient\obj/../User/ch32v30x_it.c:60
    // ETH_PHYLink( );
    EXTI_ClearITPendingBit(EXTI_Line7);     /* Clear Flag */
     354:	08000513          	li	a0,128
C:\ch32\data\CH32V307EVT\EVT\EXAM\ETH\TcpClient\obj/../User/ch32v30x_it.c:58
{
     358:	de06                	sw	ra,60(sp)
     35a:	dc16                	sw	t0,56(sp)
     35c:	da1a                	sw	t1,52(sp)
     35e:	d81e                	sw	t2,48(sp)
     360:	d42e                	sw	a1,40(sp)
     362:	d232                	sw	a2,36(sp)
     364:	d036                	sw	a3,32(sp)
     366:	ce3a                	sw	a4,28(sp)
     368:	cc3e                	sw	a5,24(sp)
     36a:	ca42                	sw	a6,20(sp)
     36c:	c846                	sw	a7,16(sp)
     36e:	c672                	sw	t3,12(sp)
     370:	c476                	sw	t4,8(sp)
     372:	c27a                	sw	t5,4(sp)
     374:	c07e                	sw	t6,0(sp)
C:\ch32\data\CH32V307EVT\EVT\EXAM\ETH\TcpClient\obj/../User/ch32v30x_it.c:60
    EXTI_ClearITPendingBit(EXTI_Line7);     /* Clear Flag */
     376:	1ff000ef          	jal	ra,d74 <EXTI_ClearITPendingBit>
C:\ch32\data\CH32V307EVT\EVT\EXAM\ETH\TcpClient\obj/../User/ch32v30x_it.c:61
}
     37a:	50f2                	lw	ra,60(sp)
     37c:	52e2                	lw	t0,56(sp)
     37e:	5352                	lw	t1,52(sp)
     380:	53c2                	lw	t2,48(sp)
     382:	5532                	lw	a0,44(sp)
     384:	55a2                	lw	a1,40(sp)
     386:	5612                	lw	a2,36(sp)
     388:	5682                	lw	a3,32(sp)
     38a:	4772                	lw	a4,28(sp)
     38c:	47e2                	lw	a5,24(sp)
     38e:	4852                	lw	a6,20(sp)
     390:	48c2                	lw	a7,16(sp)
     392:	4e32                	lw	t3,12(sp)
     394:	4ea2                	lw	t4,8(sp)
     396:	4f12                	lw	t5,4(sp)
     398:	4f82                	lw	t6,0(sp)
     39a:	6121                	addi	sp,sp,64
     39c:	30200073          	mret

000003a0 <ETH_IRQHandler>:
ETH_IRQHandler():
C:\ch32\data\CH32V307EVT\EVT\EXAM\ETH\TcpClient\obj/../User/ch32v30x_it.c:72
 *
 * @return  none
 */
void ETH_IRQHandler(void)
{
    WCHNET_ETHIsr();
     3a0:	4e2010ef          	jal	ra,1882 <WCHNET_ETHIsr>
C:\ch32\data\CH32V307EVT\EVT\EXAM\ETH\TcpClient\obj/../User/ch32v30x_it.c:73
}
     3a4:	30200073          	mret

000003a8 <TIM2_IRQHandler>:
TIM2_IRQHandler():
C:\ch32\data\CH32V307EVT\EVT\EXAM\ETH\TcpClient\obj/../User/ch32v30x_it.c:84
 *
 * @return  none
 */
void TIM2_IRQHandler(void)
{
    WCHNET_TimeIsr(WCHNETTIMERPERIOD);
     3a8:	4529                	li	a0,10
     3aa:	77d000ef          	jal	ra,1326 <WCHNET_TimeIsr>
C:\ch32\data\CH32V307EVT\EVT\EXAM\ETH\TcpClient\obj/../User/ch32v30x_it.c:85
    TIM_ClearITPendingBit(TIM2, TIM_IT_Update);
     3ae:	4585                	li	a1,1
     3b0:	40000537          	lui	a0,0x40000
     3b4:	5df000ef          	jal	ra,1192 <TIM_ClearITPendingBit>
C:\ch32\data\CH32V307EVT\EVT\EXAM\ETH\TcpClient\obj/../User/ch32v30x_it.c:86
}
     3b8:	30200073          	mret

000003bc <mStopIfError>:
mStopIfError():
C:\ch32\data\CH32V307EVT\EVT\EXAM\ETH\TcpClient\obj/../User/main.c:51
 *
 * @return  none
 */
void mStopIfError(u8 iError)
{
    if (iError == WCHNET_ERR_SUCCESS)
     3bc:	c919                	beqz	a0,3d2 <mStopIfError+0x16>
C:\ch32\data\CH32V307EVT\EVT\EXAM\ETH\TcpClient\obj/../User/main.c:50
{
     3be:	e73ff2ef          	jal	t0,230 <__riscv_save_0>
     3c2:	85aa                	mv	a1,a0
C:\ch32\data\CH32V307EVT\EVT\EXAM\ETH\TcpClient\obj/../User/main.c:53
        return;
    printf("Error: %02X\r\n", (u16) iError);
     3c4:	00009537          	lui	a0,0x9
     3c8:	03850513          	addi	a0,a0,56 # 9038 <stpncpy+0x124>
     3cc:	211080ef          	jal	ra,8ddc <printf>
C:\ch32\data\CH32V307EVT\EVT\EXAM\ETH\TcpClient\obj/../User/main.c:54
}
     3d0:	b551                	j	254 <__riscv_restore_0>
     3d2:	8082                	ret

000003d4 <TIM2_Init>:
TIM2_Init():
C:\ch32\data\CH32V307EVT\EVT\EXAM\ETH\TcpClient\obj/../User/main.c:64
 * @brief   Initializes TIM2.
 *
 * @return  none
 */
void TIM2_Init(void)
{
     3d4:	e5dff2ef          	jal	t0,230 <__riscv_save_0>
     3d8:	1141                	addi	sp,sp,-16
C:\ch32\data\CH32V307EVT\EVT\EXAM\ETH\TcpClient\obj/../User/main.c:67
    TIM_TimeBaseInitTypeDef TIM_TimeBaseStructure = { 0 };

    RCC_APB1PeriphClockCmd(RCC_APB1Periph_TIM2, ENABLE);
     3da:	4585                	li	a1,1
     3dc:	4505                	li	a0,1
C:\ch32\data\CH32V307EVT\EVT\EXAM\ETH\TcpClient\obj/../User/main.c:65
    TIM_TimeBaseInitTypeDef TIM_TimeBaseStructure = { 0 };
     3de:	c202                	sw	zero,4(sp)
     3e0:	c402                	sw	zero,8(sp)
     3e2:	00011623          	sh	zero,12(sp)
C:\ch32\data\CH32V307EVT\EVT\EXAM\ETH\TcpClient\obj/../User/main.c:67
    RCC_APB1PeriphClockCmd(RCC_APB1Periph_TIM2, ENABLE);
     3e6:	41d000ef          	jal	ra,1002 <RCC_APB1PeriphClockCmd>
C:\ch32\data\CH32V307EVT\EVT\EXAM\ETH\TcpClient\obj/../User/main.c:69

    TIM_TimeBaseStructure.TIM_Period = SystemCoreClock / 1000000 - 1;
     3ea:	8141a783          	lw	a5,-2028(gp) # 20000034 <SystemCoreClock>
     3ee:	000f4737          	lui	a4,0xf4
     3f2:	24070713          	addi	a4,a4,576 # f4240 <_data_lma+0xe85ec>
     3f6:	02e7d7b3          	divu	a5,a5,a4
C:\ch32\data\CH32V307EVT\EVT\EXAM\ETH\TcpClient\obj/../User/main.c:73
    TIM_TimeBaseStructure.TIM_Prescaler = WCHNETTIMERPERIOD * 1000 - 1;
    TIM_TimeBaseStructure.TIM_ClockDivision = 0;
    TIM_TimeBaseStructure.TIM_CounterMode = TIM_CounterMode_Up;
    TIM_TimeBaseInit(TIM2, &TIM_TimeBaseStructure);
     3fa:	004c                	addi	a1,sp,4
     3fc:	40000537          	lui	a0,0x40000
C:\ch32\data\CH32V307EVT\EVT\EXAM\ETH\TcpClient\obj/../User/main.c:71
    TIM_TimeBaseStructure.TIM_ClockDivision = 0;
     400:	00011523          	sh	zero,10(sp)
C:\ch32\data\CH32V307EVT\EVT\EXAM\ETH\TcpClient\obj/../User/main.c:69
    TIM_TimeBaseStructure.TIM_Period = SystemCoreClock / 1000000 - 1;
     404:	17fd                	addi	a5,a5,-1
     406:	847c                	sh	a5,8(sp)
C:\ch32\data\CH32V307EVT\EVT\EXAM\ETH\TcpClient\obj/../User/main.c:70
    TIM_TimeBaseStructure.TIM_Prescaler = WCHNETTIMERPERIOD * 1000 - 1;
     408:	6789                	lui	a5,0x2
     40a:	70f78793          	addi	a5,a5,1807 # 270f <LwipTcpConnectedCallBack+0x1b>
     40e:	c23e                	sw	a5,4(sp)
C:\ch32\data\CH32V307EVT\EVT\EXAM\ETH\TcpClient\obj/../User/main.c:73
    TIM_TimeBaseInit(TIM2, &TIM_TimeBaseStructure);
     410:	4a3000ef          	jal	ra,10b2 <TIM_TimeBaseInit>
C:\ch32\data\CH32V307EVT\EVT\EXAM\ETH\TcpClient\obj/../User/main.c:74
    TIM_ITConfig(TIM2, TIM_IT_Update, ENABLE);
     414:	4605                	li	a2,1
     416:	4585                	li	a1,1
     418:	40000537          	lui	a0,0x40000
     41c:	559000ef          	jal	ra,1174 <TIM_ITConfig>
C:\ch32\data\CH32V307EVT\EVT\EXAM\ETH\TcpClient\obj/../User/main.c:76

    TIM_Cmd(TIM2, ENABLE);
     420:	4585                	li	a1,1
     422:	40000537          	lui	a0,0x40000
     426:	537000ef          	jal	ra,115c <TIM_Cmd>
C:\ch32\data\CH32V307EVT\EVT\EXAM\ETH\TcpClient\obj/../User/main.c:77
    TIM_ClearITPendingBit(TIM2, TIM_IT_Update);
     42a:	4585                	li	a1,1
     42c:	40000537          	lui	a0,0x40000
     430:	563000ef          	jal	ra,1192 <TIM_ClearITPendingBit>
NVIC_EnableIRQ():
C:\ch32\data\CH32V307EVT\EVT\EXAM\SRC\Core/core_riscv.h:169
 *
 * @return  none
 */
RV_STATIC_INLINE void NVIC_EnableIRQ(IRQn_Type IRQn)
{
  NVIC->IENR[((uint32_t)(IRQn) >> 5)] = (1 << ((uint32_t)(IRQn) & 0x1F));
     434:	e000e7b7          	lui	a5,0xe000e
     438:	6705                	lui	a4,0x1
     43a:	10e7a223          	sw	a4,260(a5) # e000e104 <_eusrstack+0xbfffe104>
TIM2_Init():
C:\ch32\data\CH32V307EVT\EVT\EXAM\ETH\TcpClient\obj/../User/main.c:79
    NVIC_EnableIRQ(TIM2_IRQn);
}
     43e:	0141                	addi	sp,sp,16
     440:	bd11                	j	254 <__riscv_restore_0>

00000442 <WCHNET_CreateTcpSocket>:
WCHNET_CreateTcpSocket():
C:\ch32\data\CH32V307EVT\EVT\EXAM\ETH\TcpClient\obj/../User/main.c:89
 * @brief   Create TCP Socket
 *
 * @return  none
 */
void WCHNET_CreateTcpSocket(void)
{
     442:	defff2ef          	jal	t0,230 <__riscv_save_0>
     446:	7139                	addi	sp,sp,-64
C:\ch32\data\CH32V307EVT\EVT\EXAM\ETH\TcpClient\obj/../User/main.c:93
    u8 i;
    SOCK_INF TmpSocketInf;

    memset((void *) &TmpSocketInf, 0, sizeof(SOCK_INF));
     448:	03c00613          	li	a2,60
     44c:	4581                	li	a1,0
     44e:	0048                	addi	a0,sp,4
     450:	3d01                	jal	260 <memset>
C:\ch32\data\CH32V307EVT\EVT\EXAM\ETH\TcpClient\obj/../User/main.c:94
    memcpy((void *) TmpSocketInf.IPAddr, DESIP, 4);
     452:	200007b7          	lui	a5,0x20000
     456:	0207a783          	lw	a5,32(a5) # 20000020 <DESIP>
C:\ch32\data\CH32V307EVT\EVT\EXAM\ETH\TcpClient\obj/../User/main.c:99
    TmpSocketInf.DesPort = desport;
    TmpSocketInf.SourPort = srcport++;
    TmpSocketInf.ProtoType = PROTO_TYPE_TCP;
    TmpSocketInf.RecvBufLen = RECE_BUF_LEN;
    i = WCHNET_SocketCreat(&SocketId, &TmpSocketInf);
     45a:	85e18413          	addi	s0,gp,-1954 # 2000007e <SocketId>
C:\ch32\data\CH32V307EVT\EVT\EXAM\ETH\TcpClient\obj/../User/main.c:94
    memcpy((void *) TmpSocketInf.IPAddr, DESIP, 4);
     45e:	d83e                	sw	a5,48(sp)
C:\ch32\data\CH32V307EVT\EVT\EXAM\ETH\TcpClient\obj/../User/main.c:95
    TmpSocketInf.DesPort = desport;
     460:	8101d783          	lhu	a5,-2032(gp) # 20000030 <desport>
C:\ch32\data\CH32V307EVT\EVT\EXAM\ETH\TcpClient\obj/../User/main.c:99
    i = WCHNET_SocketCreat(&SocketId, &TmpSocketInf);
     464:	004c                	addi	a1,sp,4
     466:	85e18513          	addi	a0,gp,-1954 # 2000007e <SocketId>
C:\ch32\data\CH32V307EVT\EVT\EXAM\ETH\TcpClient\obj/../User/main.c:95
    TmpSocketInf.DesPort = desport;
     46a:	d43e                	sw	a5,40(sp)
C:\ch32\data\CH32V307EVT\EVT\EXAM\ETH\TcpClient\obj/../User/main.c:96
    TmpSocketInf.SourPort = srcport++;
     46c:	81218793          	addi	a5,gp,-2030 # 20000032 <srcport>
     470:	239a                	lhu	a4,0(a5)
     472:	00170693          	addi	a3,a4,1 # 1001 <RCC_APB2PeriphClockCmd+0x1d>
     476:	a396                	sh	a3,0(a5)
C:\ch32\data\CH32V307EVT\EVT\EXAM\ETH\TcpClient\obj/../User/main.c:97
    TmpSocketInf.ProtoType = PROTO_TYPE_TCP;
     478:	478d                	li	a5,3
     47a:	d03e                	sw	a5,32(sp)
C:\ch32\data\CH32V307EVT\EVT\EXAM\ETH\TcpClient\obj/../User/main.c:98
    TmpSocketInf.RecvBufLen = RECE_BUF_LEN;
     47c:	6785                	lui	a5,0x1
     47e:	b6878793          	addi	a5,a5,-1176 # b68 <ETH_StructInit+0x84>
C:\ch32\data\CH32V307EVT\EVT\EXAM\ETH\TcpClient\obj/../User/main.c:96
    TmpSocketInf.SourPort = srcport++;
     482:	d63a                	sw	a4,44(sp)
C:\ch32\data\CH32V307EVT\EVT\EXAM\ETH\TcpClient\obj/../User/main.c:98
    TmpSocketInf.RecvBufLen = RECE_BUF_LEN;
     484:	c83e                	sw	a5,16(sp)
C:\ch32\data\CH32V307EVT\EVT\EXAM\ETH\TcpClient\obj/../User/main.c:99
    i = WCHNET_SocketCreat(&SocketId, &TmpSocketInf);
     486:	55a020ef          	jal	ra,29e0 <WCHNET_SocketCreat>
C:\ch32\data\CH32V307EVT\EVT\EXAM\ETH\TcpClient\obj/../User/main.c:100
    printf("WCHNET_SocketCreat %d\r\n", SocketId);
     48a:	200c                	lbu	a1,0(s0)
C:\ch32\data\CH32V307EVT\EVT\EXAM\ETH\TcpClient\obj/../User/main.c:99
    i = WCHNET_SocketCreat(&SocketId, &TmpSocketInf);
     48c:	84aa                	mv	s1,a0
C:\ch32\data\CH32V307EVT\EVT\EXAM\ETH\TcpClient\obj/../User/main.c:100
    printf("WCHNET_SocketCreat %d\r\n", SocketId);
     48e:	00009537          	lui	a0,0x9
     492:	f8850513          	addi	a0,a0,-120 # 8f88 <stpncpy+0x74>
     496:	147080ef          	jal	ra,8ddc <printf>
C:\ch32\data\CH32V307EVT\EVT\EXAM\ETH\TcpClient\obj/../User/main.c:101
    mStopIfError(i);
     49a:	8526                	mv	a0,s1
     49c:	3705                	jal	3bc <mStopIfError>
C:\ch32\data\CH32V307EVT\EVT\EXAM\ETH\TcpClient\obj/../User/main.c:102
    i = WCHNET_SocketConnect(SocketId);                        //make a TCP connection
     49e:	2008                	lbu	a0,0(s0)
     4a0:	533020ef          	jal	ra,31d2 <WCHNET_SocketConnect>
C:\ch32\data\CH32V307EVT\EVT\EXAM\ETH\TcpClient\obj/../User/main.c:103
    mStopIfError(i);
     4a4:	3f21                	jal	3bc <mStopIfError>
C:\ch32\data\CH32V307EVT\EVT\EXAM\ETH\TcpClient\obj/../User/main.c:104
}
     4a6:	6121                	addi	sp,sp,64
     4a8:	b375                	j	254 <__riscv_restore_0>

000004aa <show_lcd_data>:
show_lcd_data():
C:\ch32\data\CH32V307EVT\EVT\EXAM\ETH\TcpClient\obj/../User/main.c:106

void show_lcd_data(char *server_data,u32 len){
     4aa:	d6dff2ef          	jal	t0,216 <__riscv_save_4>
     4ae:	842a                	mv	s0,a0
C:\ch32\data\CH32V307EVT\EVT\EXAM\ETH\TcpClient\obj/../User/main.c:109


    lcd_clear(RED);
     4b0:	6541                	lui	a0,0x10
C:\ch32\data\CH32V307EVT\EVT\EXAM\ETH\TcpClient\obj/../User/main.c:106
void show_lcd_data(char *server_data,u32 len){
     4b2:	89ae                	mv	s3,a1
C:\ch32\data\CH32V307EVT\EVT\EXAM\ETH\TcpClient\obj/../User/main.c:109
    lcd_clear(RED);
     4b4:	80050513          	addi	a0,a0,-2048 # f800 <_data_lma+0x3bac>
     4b8:	6c6010ef          	jal	ra,1b7e <lcd_clear>
C:\ch32\data\CH32V307EVT\EVT\EXAM\ETH\TcpClient\obj/../User/main.c:112
    int y=0;
    int x=0;
    for(int t=0;t<len;t++){
     4bc:	99a2                	add	s3,s3,s0
C:\ch32\data\CH32V307EVT\EVT\EXAM\ETH\TcpClient\obj/../User/main.c:111
    int x=0;
     4be:	4901                	li	s2,0
C:\ch32\data\CH32V307EVT\EVT\EXAM\ETH\TcpClient\obj/../User/main.c:110
    int y=0;
     4c0:	4481                	li	s1,0
C:\ch32\data\CH32V307EVT\EVT\EXAM\ETH\TcpClient\obj/../User/main.c:113
        if(y==13*24)
     4c2:	13800a13          	li	s4,312
C:\ch32\data\CH32V307EVT\EVT\EXAM\ETH\TcpClient\obj/../User/main.c:115
            break;
        if(server_data[t]=='\n'){
     4c6:	4aa9                	li	s5,10
C:\ch32\data\CH32V307EVT\EVT\EXAM\ETH\TcpClient\obj/../User/main.c:120
            y=y+24;
            x=0;
            continue;
        }
        if(x==240){
     4c8:	0f000b13          	li	s6,240
C:\ch32\data\CH32V307EVT\EVT\EXAM\ETH\TcpClient\obj/../User/main.c:112 (discriminator 1)
    for(int t=0;t<len;t++){
     4cc:	00899363          	bne	s3,s0,4d2 <show_lcd_data+0x28>
C:\ch32\data\CH32V307EVT\EVT\EXAM\ETH\TcpClient\obj/../User/main.c:131
        x=x+24;

    }


}
     4d0:	bbad                	j	24a <__riscv_restore_4>
C:\ch32\data\CH32V307EVT\EVT\EXAM\ETH\TcpClient\obj/../User/main.c:113
        if(y==13*24)
     4d2:	ff448fe3          	beq	s1,s4,4d0 <show_lcd_data+0x26>
C:\ch32\data\CH32V307EVT\EVT\EXAM\ETH\TcpClient\obj/../User/main.c:115
        if(server_data[t]=='\n'){
     4d6:	00040603          	lb	a2,0(s0)
     4da:	01561663          	bne	a2,s5,4e6 <show_lcd_data+0x3c>
C:\ch32\data\CH32V307EVT\EVT\EXAM\ETH\TcpClient\obj/../User/main.c:116
            y=y+24;
     4de:	04e1                	addi	s1,s1,24
C:\ch32\data\CH32V307EVT\EVT\EXAM\ETH\TcpClient\obj/../User/main.c:117
            x=0;
     4e0:	4901                	li	s2,0
     4e2:	0405                	addi	s0,s0,1
     4e4:	b7e5                	j	4cc <show_lcd_data+0x22>
C:\ch32\data\CH32V307EVT\EVT\EXAM\ETH\TcpClient\obj/../User/main.c:120
        if(x==240){
     4e6:	01691463          	bne	s2,s6,4ee <show_lcd_data+0x44>
C:\ch32\data\CH32V307EVT\EVT\EXAM\ETH\TcpClient\obj/../User/main.c:122
            y=y+24;
     4ea:	04e1                	addi	s1,s1,24
C:\ch32\data\CH32V307EVT\EVT\EXAM\ETH\TcpClient\obj/../User/main.c:121
            x=0;
     4ec:	4901                	li	s2,0
C:\ch32\data\CH32V307EVT\EVT\EXAM\ETH\TcpClient\obj/../User/main.c:125
        lcd_show_char(x,y,server_data[t],24,1);
     4ee:	01091513          	slli	a0,s2,0x10
     4f2:	01049593          	slli	a1,s1,0x10
     4f6:	4705                	li	a4,1
     4f8:	46e1                	li	a3,24
     4fa:	0ff67613          	andi	a2,a2,255
     4fe:	81c1                	srli	a1,a1,0x10
     500:	8141                	srli	a0,a0,0x10
     502:	6e0010ef          	jal	ra,1be2 <lcd_show_char>
C:\ch32\data\CH32V307EVT\EVT\EXAM\ETH\TcpClient\obj/../User/main.c:126
        x=x+24;
     506:	0961                	addi	s2,s2,24
     508:	bfe9                	j	4e2 <show_lcd_data+0x38>

0000050a <WCHNET_DataLoopback>:
WCHNET_DataLoopback():
C:\ch32\data\CH32V307EVT\EVT\EXAM\ETH\TcpClient\obj/../User/main.c:149
void WCHNET_DataLoopback(u8 id)
{
#if 1
    u8 i;
    u32 len;
    u32 endAddr = SocketInf[id].RecvStartPoint + SocketInf[id].RecvBufLen;       //Receive buffer end address
     50a:	03c00693          	li	a3,60
     50e:	02d506b3          	mul	a3,a0,a3
C:\ch32\data\CH32V307EVT\EVT\EXAM\ETH\TcpClient\obj/../User/main.c:145
{
     512:	7179                	addi	sp,sp,-48
C:\ch32\data\CH32V307EVT\EVT\EXAM\ETH\TcpClient\obj/../User/main.c:149
    u32 endAddr = SocketInf[id].RecvStartPoint + SocketInf[id].RecvBufLen;       //Receive buffer end address
     514:	200067b7          	lui	a5,0x20006
C:\ch32\data\CH32V307EVT\EVT\EXAM\ETH\TcpClient\obj/../User/main.c:145
{
     518:	d422                	sw	s0,40(sp)
     51a:	d226                	sw	s1,36(sp)
     51c:	d04a                	sw	s2,32(sp)
     51e:	d606                	sw	ra,44(sp)
     520:	ce4e                	sw	s3,28(sp)
     522:	1800                	addi	s0,sp,48
C:\ch32\data\CH32V307EVT\EVT\EXAM\ETH\TcpClient\obj/../User/main.c:149
    u32 endAddr = SocketInf[id].RecvStartPoint + SocketInf[id].RecvBufLen;       //Receive buffer end address
     524:	14c78713          	addi	a4,a5,332 # 2000614c <SocketInf>
     528:	9736                	add	a4,a4,a3
     52a:	4750                	lw	a2,12(a4)
     52c:	4714                	lw	a3,8(a4)
C:\ch32\data\CH32V307EVT\EVT\EXAM\ETH\TcpClient\obj/../User/main.c:151

    if ((SocketInf[id].RecvReadPoint + SocketInf[id].RecvRemLen) > endAddr) {    //Calculate the length of the received data
     52e:	4b4c                	lw	a1,20(a4)
     530:	4f18                	lw	a4,24(a4)
C:\ch32\data\CH32V307EVT\EVT\EXAM\ETH\TcpClient\obj/../User/main.c:149
    u32 endAddr = SocketInf[id].RecvStartPoint + SocketInf[id].RecvBufLen;       //Receive buffer end address
     532:	96b2                	add	a3,a3,a2
C:\ch32\data\CH32V307EVT\EVT\EXAM\ETH\TcpClient\obj/../User/main.c:145
{
     534:	892a                	mv	s2,a0
C:\ch32\data\CH32V307EVT\EVT\EXAM\ETH\TcpClient\obj/../User/main.c:151
    if ((SocketInf[id].RecvReadPoint + SocketInf[id].RecvRemLen) > endAddr) {    //Calculate the length of the received data
     536:	00e58633          	add	a2,a1,a4
     53a:	14c78493          	addi	s1,a5,332
     53e:	00c6f463          	bgeu	a3,a2,546 <WCHNET_DataLoopback+0x3c>
C:\ch32\data\CH32V307EVT\EVT\EXAM\ETH\TcpClient\obj/../User/main.c:152
        len = endAddr - SocketInf[id].RecvReadPoint;
     542:	40b68733          	sub	a4,a3,a1
C:\ch32\data\CH32V307EVT\EVT\EXAM\ETH\TcpClient\obj/../User/main.c:157
    }
    else {
        len = SocketInf[id].RecvRemLen;
    }
    i = WCHNET_SocketSend(id, (u8 *) SocketInf[id].RecvReadPoint, &len);         //send data
     546:	fdc40613          	addi	a2,s0,-36
     54a:	854a                	mv	a0,s2
     54c:	fce42e23          	sw	a4,-36(s0)
     550:	25b020ef          	jal	ra,2faa <WCHNET_SocketSend>
C:\ch32\data\CH32V307EVT\EVT\EXAM\ETH\TcpClient\obj/../User/main.c:159
//    printf("server_data=%s",(char *)SocketInf[id].RecvReadPoint);
    char server_data[len];
     554:	fdc42603          	lw	a2,-36(s0)
C:\ch32\data\CH32V307EVT\EVT\EXAM\ETH\TcpClient\obj/../User/main.c:157
    i = WCHNET_SocketSend(id, (u8 *) SocketInf[id].RecvReadPoint, &len);         //send data
     558:	89aa                	mv	s3,a0
C:\ch32\data\CH32V307EVT\EVT\EXAM\ETH\TcpClient\obj/../User/main.c:159
    char server_data[len];
     55a:	00f60793          	addi	a5,a2,15
     55e:	9bc1                	andi	a5,a5,-16
     560:	40f10133          	sub	sp,sp,a5
C:\ch32\data\CH32V307EVT\EVT\EXAM\ETH\TcpClient\obj/../User/main.c:161

    stpncpy(server_data,(char *)SocketInf[id].RecvReadPoint,len);
     564:	03c00793          	li	a5,60
     568:	02f907b3          	mul	a5,s2,a5
     56c:	850a                	mv	a0,sp
     56e:	97a6                	add	a5,a5,s1
     570:	4bcc                	lw	a1,20(a5)
     572:	1a3080ef          	jal	ra,8f14 <stpncpy>
C:\ch32\data\CH32V307EVT\EVT\EXAM\ETH\TcpClient\obj/../User/main.c:162
    printf("server_data=%s",server_data);
     576:	00009537          	lui	a0,0x9
     57a:	858a                	mv	a1,sp
     57c:	fa050513          	addi	a0,a0,-96 # 8fa0 <stpncpy+0x8c>
     580:	05d080ef          	jal	ra,8ddc <printf>
C:\ch32\data\CH32V307EVT\EVT\EXAM\ETH\TcpClient\obj/../User/main.c:167

//    lcd_show_string(0,0,,12,server_data,24,0);
//    char s_data_one=server_data[0];

    show_lcd_data(server_data,len);
     584:	fdc42583          	lw	a1,-36(s0)
     588:	850a                	mv	a0,sp
     58a:	3705                	jal	4aa <show_lcd_data>
C:\ch32\data\CH32V307EVT\EVT\EXAM\ETH\TcpClient\obj/../User/main.c:171

//    lcd_show_chinese(0, 0,ye, 64, 1, 1);

    if (i == WCHNET_ERR_SUCCESS) {
     58c:	00099863          	bnez	s3,59c <WCHNET_DataLoopback+0x92>
C:\ch32\data\CH32V307EVT\EVT\EXAM\ETH\TcpClient\obj/../User/main.c:172
        WCHNET_SocketRecv(id, NULL, &len);                                       //Clear sent data
     590:	fdc40613          	addi	a2,s0,-36
     594:	4581                	li	a1,0
     596:	854a                	mv	a0,s2
     598:	6a2020ef          	jal	ra,2c3a <WCHNET_SocketRecv>
C:\ch32\data\CH32V307EVT\EVT\EXAM\ETH\TcpClient\obj/../User/main.c:190
        p += len;                                                        //offset buffer pointer
        if(totallen) continue;                                           //If the data is not sent, continue to send
        break;                                                           //After sending, exit
    }
#endif
}
     59c:	fd040113          	addi	sp,s0,-48
     5a0:	50b2                	lw	ra,44(sp)
     5a2:	5422                	lw	s0,40(sp)
     5a4:	5492                	lw	s1,36(sp)
     5a6:	5902                	lw	s2,32(sp)
     5a8:	49f2                	lw	s3,28(sp)
     5aa:	6145                	addi	sp,sp,48
     5ac:	8082                	ret

000005ae <WCHNET_HandleSockInt>:
WCHNET_HandleSockInt():
C:\ch32\data\CH32V307EVT\EVT\EXAM\ETH\TcpClient\obj/../User/main.c:203
 *          intstat - interrupt status
 *
 * @return  none
 */
void WCHNET_HandleSockInt(u8 socketid, u8 intstat)
{
     5ae:	c69ff2ef          	jal	t0,216 <__riscv_save_4>
C:\ch32\data\CH32V307EVT\EVT\EXAM\ETH\TcpClient\obj/../User/main.c:206
    u8 i;

    if (intstat & SINT_STAT_RECV)                              //receive data
     5b2:	0045f793          	andi	a5,a1,4
C:\ch32\data\CH32V307EVT\EVT\EXAM\ETH\TcpClient\obj/../User/main.c:203
{
     5b6:	84aa                	mv	s1,a0
     5b8:	892e                	mv	s2,a1
C:\ch32\data\CH32V307EVT\EVT\EXAM\ETH\TcpClient\obj/../User/main.c:206
    if (intstat & SINT_STAT_RECV)                              //receive data
     5ba:	c391                	beqz	a5,5be <WCHNET_HandleSockInt+0x10>
C:\ch32\data\CH32V307EVT\EVT\EXAM\ETH\TcpClient\obj/../User/main.c:208
    {
        WCHNET_DataLoopback(socketid);                         //Data loopback
     5bc:	37b9                	jal	50a <WCHNET_DataLoopback>
C:\ch32\data\CH32V307EVT\EVT\EXAM\ETH\TcpClient\obj/../User/main.c:210
    }
    if (intstat & SINT_STAT_CONNECT)                           //connect successfully
     5be:	00897793          	andi	a5,s2,8
     5c2:	cbb9                	beqz	a5,618 <WCHNET_HandleSockInt+0x6a>
C:\ch32\data\CH32V307EVT\EVT\EXAM\ETH\TcpClient\obj/../User/main.c:213
    {
#if KEEPALIVE_ENABLE
        WCHNET_SocketSetKeepLive(socketid, ENABLE);
     5c4:	4585                	li	a1,1
     5c6:	8526                	mv	a0,s1
     5c8:	3b7020ef          	jal	ra,317e <WCHNET_SocketSetKeepLive>
C:\ch32\data\CH32V307EVT\EVT\EXAM\ETH\TcpClient\obj/../User/main.c:215
#endif
        WCHNET_ModifyRecvBuf(socketid, (u32) SocketRecvBuf[socketid], RECE_BUF_LEN);
     5cc:	6605                	lui	a2,0x1
     5ce:	b6860613          	addi	a2,a2,-1176 # b68 <ETH_StructInit+0x84>
     5d2:	02c485b3          	mul	a1,s1,a2
     5d6:	200007b7          	lui	a5,0x20000
     5da:	15078793          	addi	a5,a5,336 # 20000150 <SocketRecvBuf>
     5de:	8526                	mv	a0,s1
C:\ch32\data\CH32V307EVT\EVT\EXAM\ETH\TcpClient\obj/../User/main.c:216
        for (i = 0; i < WCHNET_MAX_SOCKET_NUM; i++) {
     5e0:	4985                	li	s3,1
C:\ch32\data\CH32V307EVT\EVT\EXAM\ETH\TcpClient\obj/../User/main.c:215
        WCHNET_ModifyRecvBuf(socketid, (u32) SocketRecvBuf[socketid], RECE_BUF_LEN);
     5e2:	95be                	add	a1,a1,a5
     5e4:	604020ef          	jal	ra,2be8 <WCHNET_ModifyRecvBuf>
C:\ch32\data\CH32V307EVT\EVT\EXAM\ETH\TcpClient\obj/../User/main.c:217
            if (socket[i] == 0xff) {                           //save connected socket id
     5e8:	8601c703          	lbu	a4,-1952(gp) # 20000080 <socket>
     5ec:	0ff00793          	li	a5,255
     5f0:	86018413          	addi	s0,gp,-1952 # 20000080 <socket>
     5f4:	00f71463          	bne	a4,a5,5fc <WCHNET_HandleSockInt+0x4e>
C:\ch32\data\CH32V307EVT\EVT\EXAM\ETH\TcpClient\obj/../User/main.c:218
                socket[i] = socketid;
     5f8:	a004                	sb	s1,0(s0)
C:\ch32\data\CH32V307EVT\EVT\EXAM\ETH\TcpClient\obj/../User/main.c:219
                break;
     5fa:	4981                	li	s3,0
C:\ch32\data\CH32V307EVT\EVT\EXAM\ETH\TcpClient\obj/../User/main.c:222
            }
        }
        printf("TCP Connect Success\r\n");
     5fc:	00009537          	lui	a0,0x9
     600:	ff050513          	addi	a0,a0,-16 # 8ff0 <stpncpy+0xdc>
     604:	7fc080ef          	jal	ra,8e00 <puts>
C:\ch32\data\CH32V307EVT\EVT\EXAM\ETH\TcpClient\obj/../User/main.c:223
        printf("socket id: %d\r\n", socket[i]);
     608:	944e                	add	s0,s0,s3
     60a:	200c                	lbu	a1,0(s0)
     60c:	00009537          	lui	a0,0x9
     610:	00850513          	addi	a0,a0,8 # 9008 <stpncpy+0xf4>
     614:	7c8080ef          	jal	ra,8ddc <printf>
C:\ch32\data\CH32V307EVT\EVT\EXAM\ETH\TcpClient\obj/../User/main.c:225
    }
    if (intstat & SINT_STAT_DISCONNECT)                         //disconnect
     618:	01097793          	andi	a5,s2,16
     61c:	cf91                	beqz	a5,638 <WCHNET_HandleSockInt+0x8a>
C:\ch32\data\CH32V307EVT\EVT\EXAM\ETH\TcpClient\obj/../User/main.c:228
    {
        for (i = 0; i < WCHNET_MAX_SOCKET_NUM; i++) {           //delete disconnected socket id
            if (socket[i] == socketid) {
     61e:	86018793          	addi	a5,gp,-1952 # 20000080 <socket>
     622:	2398                	lbu	a4,0(a5)
     624:	00971463          	bne	a4,s1,62c <WCHNET_HandleSockInt+0x7e>
C:\ch32\data\CH32V307EVT\EVT\EXAM\ETH\TcpClient\obj/../User/main.c:229
                socket[i] = 0xff;
     628:	577d                	li	a4,-1
     62a:	a398                	sb	a4,0(a5)
C:\ch32\data\CH32V307EVT\EVT\EXAM\ETH\TcpClient\obj/../User/main.c:233
                break;
            }
        }
        printf("TCP Disconnect\r\n");
     62c:	00009537          	lui	a0,0x9
     630:	01850513          	addi	a0,a0,24 # 9018 <stpncpy+0x104>
     634:	7cc080ef          	jal	ra,8e00 <puts>
C:\ch32\data\CH32V307EVT\EVT\EXAM\ETH\TcpClient\obj/../User/main.c:235
    }
    if (intstat & SINT_STAT_TIM_OUT)                             //timeout disconnect
     638:	04097913          	andi	s2,s2,64
     63c:	02090063          	beqz	s2,65c <WCHNET_HandleSockInt+0xae>
C:\ch32\data\CH32V307EVT\EVT\EXAM\ETH\TcpClient\obj/../User/main.c:238
    {
        for (i = 0; i < WCHNET_MAX_SOCKET_NUM; i++) {            //delete disconnected socket id
            if (socket[i] == socketid) {
     640:	86018793          	addi	a5,gp,-1952 # 20000080 <socket>
     644:	2398                	lbu	a4,0(a5)
     646:	00971463          	bne	a4,s1,64e <WCHNET_HandleSockInt+0xa0>
C:\ch32\data\CH32V307EVT\EVT\EXAM\ETH\TcpClient\obj/../User/main.c:239
                socket[i] = 0xff;
     64a:	577d                	li	a4,-1
     64c:	a398                	sb	a4,0(a5)
C:\ch32\data\CH32V307EVT\EVT\EXAM\ETH\TcpClient\obj/../User/main.c:243
                break;
            }
        }
        printf("TCP Timeout\r\n");
     64e:	00009537          	lui	a0,0x9
     652:	02850513          	addi	a0,a0,40 # 9028 <stpncpy+0x114>
     656:	7aa080ef          	jal	ra,8e00 <puts>
C:\ch32\data\CH32V307EVT\EVT\EXAM\ETH\TcpClient\obj/../User/main.c:244
        WCHNET_CreateTcpSocket();
     65a:	33e5                	jal	442 <WCHNET_CreateTcpSocket>
C:\ch32\data\CH32V307EVT\EVT\EXAM\ETH\TcpClient\obj/../User/main.c:246
    }
}
     65c:	b6fd                	j	24a <__riscv_restore_4>

0000065e <WCHNET_HandleGlobalInt>:
WCHNET_HandleGlobalInt():
C:\ch32\data\CH32V307EVT\EVT\EXAM\ETH\TcpClient\obj/../User/main.c:256
 * @brief   Global Interrupt Handle
 *
 * @return  none
 */
void WCHNET_HandleGlobalInt(void)
{
     65e:	bd3ff2ef          	jal	t0,230 <__riscv_save_0>
C:\ch32\data\CH32V307EVT\EVT\EXAM\ETH\TcpClient\obj/../User/main.c:261
    u8 intstat;
    u16 i;
    u8 socketint;

    intstat = WCHNET_GetGlobalInt();                              //get global interrupt flag
     662:	2d5020ef          	jal	ra,3136 <WCHNET_GetGlobalInt>
C:\ch32\data\CH32V307EVT\EVT\EXAM\ETH\TcpClient\obj/../User/main.c:262
    if (intstat & GINT_STAT_UNREACH)                              //Unreachable interrupt
     666:	00157793          	andi	a5,a0,1
C:\ch32\data\CH32V307EVT\EVT\EXAM\ETH\TcpClient\obj/../User/main.c:261
    intstat = WCHNET_GetGlobalInt();                              //get global interrupt flag
     66a:	842a                	mv	s0,a0
C:\ch32\data\CH32V307EVT\EVT\EXAM\ETH\TcpClient\obj/../User/main.c:262
    if (intstat & GINT_STAT_UNREACH)                              //Unreachable interrupt
     66c:	c799                	beqz	a5,67a <WCHNET_HandleGlobalInt+0x1c>
C:\ch32\data\CH32V307EVT\EVT\EXAM\ETH\TcpClient\obj/../User/main.c:264
    {
        printf("GINT_STAT_UNREACH\r\n");
     66e:	00009537          	lui	a0,0x9
     672:	fb050513          	addi	a0,a0,-80 # 8fb0 <stpncpy+0x9c>
     676:	78a080ef          	jal	ra,8e00 <puts>
C:\ch32\data\CH32V307EVT\EVT\EXAM\ETH\TcpClient\obj/../User/main.c:266
    }
    if (intstat & GINT_STAT_IP_CONFLI)                            //IP conflict
     67a:	00247793          	andi	a5,s0,2
     67e:	c799                	beqz	a5,68c <WCHNET_HandleGlobalInt+0x2e>
C:\ch32\data\CH32V307EVT\EVT\EXAM\ETH\TcpClient\obj/../User/main.c:268
    {
        printf("GINT_STAT_IP_CONFLI\r\n");
     680:	00009537          	lui	a0,0x9
     684:	fc450513          	addi	a0,a0,-60 # 8fc4 <stpncpy+0xb0>
     688:	778080ef          	jal	ra,8e00 <puts>
C:\ch32\data\CH32V307EVT\EVT\EXAM\ETH\TcpClient\obj/../User/main.c:270
    }
    if (intstat & GINT_STAT_PHY_CHANGE)                           //PHY status change
     68c:	00447793          	andi	a5,s0,4
     690:	cb99                	beqz	a5,6a6 <WCHNET_HandleGlobalInt+0x48>
C:\ch32\data\CH32V307EVT\EVT\EXAM\ETH\TcpClient\obj/../User/main.c:272
    {
        i = WCHNET_GetPHYStatus();
     692:	2e3020ef          	jal	ra,3174 <WCHNET_GetPHYStatus>
C:\ch32\data\CH32V307EVT\EVT\EXAM\ETH\TcpClient\obj/../User/main.c:273
        if (i & PHY_Linked_Status)
     696:	8911                	andi	a0,a0,4
     698:	c519                	beqz	a0,6a6 <WCHNET_HandleGlobalInt+0x48>
C:\ch32\data\CH32V307EVT\EVT\EXAM\ETH\TcpClient\obj/../User/main.c:274
            printf("PHY Link Success\r\n");
     69a:	00009537          	lui	a0,0x9
     69e:	fdc50513          	addi	a0,a0,-36 # 8fdc <stpncpy+0xc8>
     6a2:	75e080ef          	jal	ra,8e00 <puts>
C:\ch32\data\CH32V307EVT\EVT\EXAM\ETH\TcpClient\obj/../User/main.c:276
    }
    if (intstat & GINT_STAT_SOCKET) {                             //socket related interrupt
     6a6:	8841                	andi	s0,s0,16
     6a8:	e011                	bnez	s0,6ac <WCHNET_HandleGlobalInt+0x4e>
C:\ch32\data\CH32V307EVT\EVT\EXAM\ETH\TcpClient\obj/../User/main.c:283
            socketint = WCHNET_GetSocketInt(i);
            if (socketint)
                WCHNET_HandleSockInt(i, socketint);
        }
    }
}
     6aa:	b66d                	j	254 <__riscv_restore_0>
C:\ch32\data\CH32V307EVT\EVT\EXAM\ETH\TcpClient\obj/../User/main.c:278
            socketint = WCHNET_GetSocketInt(i);
     6ac:	4501                	li	a0,0
     6ae:	29d020ef          	jal	ra,314a <WCHNET_GetSocketInt>
     6b2:	85aa                	mv	a1,a0
C:\ch32\data\CH32V307EVT\EVT\EXAM\ETH\TcpClient\obj/../User/main.c:279
            if (socketint)
     6b4:	d97d                	beqz	a0,6aa <WCHNET_HandleGlobalInt+0x4c>
C:\ch32\data\CH32V307EVT\EVT\EXAM\ETH\TcpClient\obj/../User/main.c:280
                WCHNET_HandleSockInt(i, socketint);
     6b6:	4501                	li	a0,0
     6b8:	3ddd                	jal	5ae <WCHNET_HandleSockInt>
     6ba:	bfc5                	j	6aa <WCHNET_HandleGlobalInt+0x4c>

000006bc <main>:
main():
C:\ch32\data\CH32V307EVT\EVT\EXAM\ETH\TcpClient\obj/../User/main.c:293
 * @brief   Main program
 *
 * @return  none
 */
int main(void)
{
     6bc:	b5bff2ef          	jal	t0,216 <__riscv_save_4>
     6c0:	1141                	addi	sp,sp,-16
C:\ch32\data\CH32V307EVT\EVT\EXAM\ETH\TcpClient\obj/../User/main.c:294
    lcd_init();
     6c2:	630010ef          	jal	ra,1cf2 <lcd_init>
C:\ch32\data\CH32V307EVT\EVT\EXAM\ETH\TcpClient\obj/../User/main.c:295
    lcd_clear(RED);
     6c6:	6541                	lui	a0,0x10
     6c8:	80050513          	addi	a0,a0,-2048 # f800 <_data_lma+0x3bac>
     6cc:	4b2010ef          	jal	ra,1b7e <lcd_clear>
C:\ch32\data\CH32V307EVT\EVT\EXAM\ETH\TcpClient\obj/../User/main.c:299

    u8 i;

    SystemCoreClockUpdate();
     6d0:	2ac5                	jal	8c0 <SystemCoreClockUpdate>
C:\ch32\data\CH32V307EVT\EVT\EXAM\ETH\TcpClient\obj/../User/main.c:300
    Delay_Init();
     6d2:	071010ef          	jal	ra,1f42 <Delay_Init>
C:\ch32\data\CH32V307EVT\EVT\EXAM\ETH\TcpClient\obj/../User/main.c:301
    USART_Printf_Init(115200);                                   //USART initialize
     6d6:	6571                	lui	a0,0x1c
     6d8:	20050513          	addi	a0,a0,512 # 1c200 <_data_lma+0x105ac>
     6dc:	0f9010ef          	jal	ra,1fd4 <USART_Printf_Init>
C:\ch32\data\CH32V307EVT\EVT\EXAM\ETH\TcpClient\obj/../User/main.c:302
    printf("TcpClient Test\r\n");   	
     6e0:	00009537          	lui	a0,0x9
     6e4:	04850513          	addi	a0,a0,72 # 9048 <stpncpy+0x134>
     6e8:	718080ef          	jal	ra,8e00 <puts>
C:\ch32\data\CH32V307EVT\EVT\EXAM\ETH\TcpClient\obj/../User/main.c:303
    printf("SystemClk:%d\r\n", SystemCoreClock);
     6ec:	8141a583          	lw	a1,-2028(gp) # 20000034 <SystemCoreClock>
     6f0:	00009537          	lui	a0,0x9
     6f4:	05850513          	addi	a0,a0,88 # 9058 <stpncpy+0x144>
     6f8:	6e4080ef          	jal	ra,8ddc <printf>
C:\ch32\data\CH32V307EVT\EVT\EXAM\ETH\TcpClient\obj/../User/main.c:304
    printf( "ChipID:%08x\r\n", DBGMCU_GetCHIPID() );
     6fc:	26e9                	jal	ac6 <DBGMCU_GetCHIPID>
     6fe:	85aa                	mv	a1,a0
     700:	00009537          	lui	a0,0x9
     704:	06850513          	addi	a0,a0,104 # 9068 <stpncpy+0x154>
     708:	6d4080ef          	jal	ra,8ddc <printf>
C:\ch32\data\CH32V307EVT\EVT\EXAM\ETH\TcpClient\obj/../User/main.c:305
    printf("net version:%x\n", WCHNET_GetVer());
     70c:	272020ef          	jal	ra,297e <WCHNET_GetVer>
     710:	85aa                	mv	a1,a0
     712:	00009537          	lui	a0,0x9
     716:	07850513          	addi	a0,a0,120 # 9078 <stpncpy+0x164>
     71a:	6c2080ef          	jal	ra,8ddc <printf>
C:\ch32\data\CH32V307EVT\EVT\EXAM\ETH\TcpClient\obj/../User/main.c:306
    if ( WCHNET_LIB_VER != WCHNET_GetVer()) {
     71e:	260020ef          	jal	ra,297e <WCHNET_GetVer>
     722:	47dd                	li	a5,23
     724:	00f50863          	beq	a0,a5,734 <main+0x78>
C:\ch32\data\CH32V307EVT\EVT\EXAM\ETH\TcpClient\obj/../User/main.c:307
        printf("version error.\n");
     728:	00009537          	lui	a0,0x9
     72c:	08850513          	addi	a0,a0,136 # 9088 <stpncpy+0x174>
     730:	6d0080ef          	jal	ra,8e00 <puts>
C:\ch32\data\CH32V307EVT\EVT\EXAM\ETH\TcpClient\obj/../User/main.c:309
    }
    WCHNET_GetMacAddr(MACAddr);                                  //get the chip MAC address
     734:	85818513          	addi	a0,gp,-1960 # 20000078 <_edata>
     738:	3cf000ef          	jal	ra,1306 <WCHNET_GetMacAddr>
C:\ch32\data\CH32V307EVT\EVT\EXAM\ETH\TcpClient\obj/../User/main.c:310
    printf("mac addr:");
     73c:	00009537          	lui	a0,0x9
     740:	09850513          	addi	a0,a0,152 # 9098 <stpncpy+0x184>
     744:	698080ef          	jal	ra,8ddc <printf>
     748:	4481                	li	s1,0
C:\ch32\data\CH32V307EVT\EVT\EXAM\ETH\TcpClient\obj/../User/main.c:312
    for(i = 0; i < 6; i++)
        printf("%x ",MACAddr[i]);
     74a:	85818a13          	addi	s4,gp,-1960 # 20000078 <_edata>
     74e:	000099b7          	lui	s3,0x9
C:\ch32\data\CH32V307EVT\EVT\EXAM\ETH\TcpClient\obj/../User/main.c:311
    for(i = 0; i < 6; i++)
     752:	4919                	li	s2,6
C:\ch32\data\CH32V307EVT\EVT\EXAM\ETH\TcpClient\obj/../User/main.c:312 (discriminator 3)
        printf("%x ",MACAddr[i]);
     754:	009a07b3          	add	a5,s4,s1
     758:	238c                	lbu	a1,0(a5)
     75a:	0a498513          	addi	a0,s3,164 # 90a4 <stpncpy+0x190>
     75e:	0485                	addi	s1,s1,1
     760:	67c080ef          	jal	ra,8ddc <printf>
C:\ch32\data\CH32V307EVT\EVT\EXAM\ETH\TcpClient\obj/../User/main.c:311 (discriminator 3)
    for(i = 0; i < 6; i++)
     764:	ff2498e3          	bne	s1,s2,754 <main+0x98>
C:\ch32\data\CH32V307EVT\EVT\EXAM\ETH\TcpClient\obj/../User/main.c:313
    printf("\n");
     768:	4529                	li	a0,10
     76a:	6e0080ef          	jal	ra,8e4a <putchar>
C:\ch32\data\CH32V307EVT\EVT\EXAM\ETH\TcpClient\obj/../User/main.c:314
    TIM2_Init();
     76e:	319d                	jal	3d4 <TIM2_Init>
C:\ch32\data\CH32V307EVT\EVT\EXAM\ETH\TcpClient\obj/../User/main.c:315
    i = ETH_LibInit(IPAddr, GWIPAddr, IPMask, MACAddr);          //Ethernet library initialize
     770:	85818693          	addi	a3,gp,-1960 # 20000078 <_edata>
     774:	80c18613          	addi	a2,gp,-2036 # 2000002c <IPMask>
     778:	80418593          	addi	a1,gp,-2044 # 20000024 <GWIPAddr>
     77c:	80818513          	addi	a0,gp,-2040 # 20000028 <IPAddr>
     780:	1ca010ef          	jal	ra,194a <ETH_LibInit>
     784:	842a                	mv	s0,a0
C:\ch32\data\CH32V307EVT\EVT\EXAM\ETH\TcpClient\obj/../User/main.c:316
    mStopIfError(i);
     786:	391d                	jal	3bc <mStopIfError>
C:\ch32\data\CH32V307EVT\EVT\EXAM\ETH\TcpClient\obj/../User/main.c:317
    if (i == WCHNET_ERR_SUCCESS)
     788:	e419                	bnez	s0,796 <main+0xda>
C:\ch32\data\CH32V307EVT\EVT\EXAM\ETH\TcpClient\obj/../User/main.c:318
        printf("WCHNET_LibInit Success\r\n");
     78a:	00009537          	lui	a0,0x9
     78e:	0a850513          	addi	a0,a0,168 # 90a8 <stpncpy+0x194>
     792:	66e080ef          	jal	ra,8e00 <puts>
C:\ch32\data\CH32V307EVT\EVT\EXAM\ETH\TcpClient\obj/../User/main.c:323
#if KEEPALIVE_ENABLE                                             //Configure keep alive parameters
    {
        struct _KEEP_CFG cfg;

        cfg.KLIdle = 20000;
     796:	6795                	lui	a5,0x5
     798:	e2078793          	addi	a5,a5,-480 # 4e20 <netif_set_ipaddr+0x4a>
     79c:	c23e                	sw	a5,4(sp)
C:\ch32\data\CH32V307EVT\EVT\EXAM\ETH\TcpClient\obj/../User/main.c:324
        cfg.KLIntvl = 15000;
     79e:	6791                	lui	a5,0x4
     7a0:	a9878793          	addi	a5,a5,-1384 # 3a98 <low_level_output+0x1c>
     7a4:	c43e                	sw	a5,8(sp)
C:\ch32\data\CH32V307EVT\EVT\EXAM\ETH\TcpClient\obj/../User/main.c:326
        cfg.KLCount = 9;
        WCHNET_ConfigKeepLive(&cfg);
     7a6:	0048                	addi	a0,sp,4
C:\ch32\data\CH32V307EVT\EVT\EXAM\ETH\TcpClient\obj/../User/main.c:325
        cfg.KLCount = 9;
     7a8:	47a5                	li	a5,9
     7aa:	c63e                	sw	a5,12(sp)
C:\ch32\data\CH32V307EVT\EVT\EXAM\ETH\TcpClient\obj/../User/main.c:326
        WCHNET_ConfigKeepLive(&cfg);
     7ac:	09c020ef          	jal	ra,2848 <WCHNET_ConfigKeepLive>
C:\ch32\data\CH32V307EVT\EVT\EXAM\ETH\TcpClient\obj/../User/main.c:329
    }
#endif
    memset(socket, 0xff, WCHNET_MAX_SOCKET_NUM);
     7b0:	577d                	li	a4,-1
     7b2:	86e18023          	sb	a4,-1952(gp) # 20000080 <socket>
C:\ch32\data\CH32V307EVT\EVT\EXAM\ETH\TcpClient\obj/../User/main.c:331
    for (i = 0; i < WCHNET_MAX_SOCKET_NUM; i++)
        WCHNET_CreateTcpSocket();                                //Create TCP Socket
     7b6:	3171                	jal	442 <WCHNET_CreateTcpSocket>
C:\ch32\data\CH32V307EVT\EVT\EXAM\ETH\TcpClient\obj/../User/main.c:337

    while(1)
    {
        /*Ethernet library main task function,
         * which needs to be called cyclically*/
        WCHNET_MainTask();
     7b8:	54f000ef          	jal	ra,1506 <WCHNET_MainTask>
C:\ch32\data\CH32V307EVT\EVT\EXAM\ETH\TcpClient\obj/../User/main.c:340
        /*Query the Ethernet global interrupt,
         * if there is an interrupt, call the global interrupt handler*/
        if(WCHNET_QueryGlobalInt())
     7bc:	13d020ef          	jal	ra,30f8 <WCHNET_QueryGlobalInt>
     7c0:	dd65                	beqz	a0,7b8 <main+0xfc>
C:\ch32\data\CH32V307EVT\EVT\EXAM\ETH\TcpClient\obj/../User/main.c:342
        {
            WCHNET_HandleGlobalInt();
     7c2:	3d71                	jal	65e <WCHNET_HandleGlobalInt>
     7c4:	bfd5                	j	7b8 <main+0xfc>

000007c6 <SystemInit>:
SystemInit():
C:\ch32\data\CH32V307EVT\EVT\EXAM\ETH\TcpClient\obj/../User/system_ch32v30x.c:113
 *
 * @return  none
 */
void SystemInit (void)
{
  RCC->CTLR |= (uint32_t)0x00000001;
     7c6:	400217b7          	lui	a5,0x40021
     7ca:	4398                	lw	a4,0(a5)
C:\ch32\data\CH32V307EVT\EVT\EXAM\ETH\TcpClient\obj/../User/system_ch32v30x.c:116

#ifdef CH32V30x_D8C
  RCC->CFGR0 &= (uint32_t)0xF8FF0000;
     7cc:	f8ff06b7          	lui	a3,0xf8ff0
C:\ch32\data\CH32V307EVT\EVT\EXAM\ETH\TcpClient\obj/../User/system_ch32v30x.c:112
{
     7d0:	1141                	addi	sp,sp,-16
C:\ch32\data\CH32V307EVT\EVT\EXAM\ETH\TcpClient\obj/../User/system_ch32v30x.c:113
  RCC->CTLR |= (uint32_t)0x00000001;
     7d2:	00176713          	ori	a4,a4,1
     7d6:	c398                	sw	a4,0(a5)
C:\ch32\data\CH32V307EVT\EVT\EXAM\ETH\TcpClient\obj/../User/system_ch32v30x.c:116
  RCC->CFGR0 &= (uint32_t)0xF8FF0000;
     7d8:	43d8                	lw	a4,4(a5)
SetSysClockTo96_HSE():
C:\ch32\data\CH32V307EVT\EVT\EXAM\ETH\TcpClient\obj/../User/system_ch32v30x.c:544
  RCC->CTLR |= ((uint32_t)RCC_HSEON);

  /* Wait till HSE is ready and if Time out is reached exit */
  do
  {
    HSEStatus = RCC->CTLR & RCC_HSERDY;
     7da:	00020637          	lui	a2,0x20
SystemInit():
C:\ch32\data\CH32V307EVT\EVT\EXAM\ETH\TcpClient\obj/../User/system_ch32v30x.c:116
  RCC->CFGR0 &= (uint32_t)0xF8FF0000;
     7de:	8f75                	and	a4,a4,a3
     7e0:	c3d8                	sw	a4,4(a5)
C:\ch32\data\CH32V307EVT\EVT\EXAM\ETH\TcpClient\obj/../User/system_ch32v30x.c:121
  RCC->CTLR &= (uint32_t)0xFEF6FFFF;
     7e2:	4398                	lw	a4,0(a5)
     7e4:	fef706b7          	lui	a3,0xfef70
     7e8:	16fd                	addi	a3,a3,-1
     7ea:	8f75                	and	a4,a4,a3
     7ec:	c398                	sw	a4,0(a5)
C:\ch32\data\CH32V307EVT\EVT\EXAM\ETH\TcpClient\obj/../User/system_ch32v30x.c:122
  RCC->CTLR &= (uint32_t)0xFFFBFFFF;
     7ee:	4398                	lw	a4,0(a5)
     7f0:	fffc06b7          	lui	a3,0xfffc0
     7f4:	16fd                	addi	a3,a3,-1
     7f6:	8f75                	and	a4,a4,a3
     7f8:	c398                	sw	a4,0(a5)
C:\ch32\data\CH32V307EVT\EVT\EXAM\ETH\TcpClient\obj/../User/system_ch32v30x.c:123
  RCC->CFGR0 &= (uint32_t)0xFF80FFFF;
     7fa:	43d8                	lw	a4,4(a5)
     7fc:	ff8106b7          	lui	a3,0xff810
     800:	16fd                	addi	a3,a3,-1
     802:	8f75                	and	a4,a4,a3
     804:	c3d8                	sw	a4,4(a5)
C:\ch32\data\CH32V307EVT\EVT\EXAM\ETH\TcpClient\obj/../User/system_ch32v30x.c:126
  RCC->CTLR &= (uint32_t)0xEBFFFFFF;
     806:	4398                	lw	a4,0(a5)
     808:	ec0006b7          	lui	a3,0xec000
     80c:	16fd                	addi	a3,a3,-1
     80e:	8f75                	and	a4,a4,a3
     810:	c398                	sw	a4,0(a5)
C:\ch32\data\CH32V307EVT\EVT\EXAM\ETH\TcpClient\obj/../User/system_ch32v30x.c:127
  RCC->INTR = 0x00FF0000;
     812:	00ff0737          	lui	a4,0xff0
     816:	c798                	sw	a4,8(a5)
C:\ch32\data\CH32V307EVT\EVT\EXAM\ETH\TcpClient\obj/../User/system_ch32v30x.c:128
  RCC->CFGR2 = 0x00000000;
     818:	0207a623          	sw	zero,44(a5) # 4002102c <_eusrstack+0x2001102c>
SetSysClockTo96_HSE():
C:\ch32\data\CH32V307EVT\EVT\EXAM\ETH\TcpClient\obj/../User/system_ch32v30x.c:537
  __IO uint32_t StartUpCounter = 0, HSEStatus = 0;
     81c:	c402                	sw	zero,8(sp)
     81e:	c602                	sw	zero,12(sp)
C:\ch32\data\CH32V307EVT\EVT\EXAM\ETH\TcpClient\obj/../User/system_ch32v30x.c:539
  RCC->CTLR |= ((uint32_t)RCC_HSEON);
     820:	4398                	lw	a4,0(a5)
     822:	66c1                	lui	a3,0x10
     824:	8f55                	or	a4,a4,a3
     826:	c398                	sw	a4,0(a5)
C:\ch32\data\CH32V307EVT\EVT\EXAM\ETH\TcpClient\obj/../User/system_ch32v30x.c:544
    HSEStatus = RCC->CTLR & RCC_HSERDY;
     828:	400216b7          	lui	a3,0x40021
C:\ch32\data\CH32V307EVT\EVT\EXAM\ETH\TcpClient\obj/../User/system_ch32v30x.c:546
    StartUpCounter++;
  } while((HSEStatus == 0) && (StartUpCounter != HSE_STARTUP_TIMEOUT));
     82c:	6705                	lui	a4,0x1
C:\ch32\data\CH32V307EVT\EVT\EXAM\ETH\TcpClient\obj/../User/system_ch32v30x.c:544
    HSEStatus = RCC->CTLR & RCC_HSERDY;
     82e:	429c                	lw	a5,0(a3)
     830:	8ff1                	and	a5,a5,a2
     832:	c63e                	sw	a5,12(sp)
C:\ch32\data\CH32V307EVT\EVT\EXAM\ETH\TcpClient\obj/../User/system_ch32v30x.c:545
    StartUpCounter++;
     834:	47a2                	lw	a5,8(sp)
     836:	0785                	addi	a5,a5,1
     838:	c43e                	sw	a5,8(sp)
C:\ch32\data\CH32V307EVT\EVT\EXAM\ETH\TcpClient\obj/../User/system_ch32v30x.c:546
  } while((HSEStatus == 0) && (StartUpCounter != HSE_STARTUP_TIMEOUT));
     83a:	47b2                	lw	a5,12(sp)
     83c:	e781                	bnez	a5,844 <__stack_size+0x44>
     83e:	47a2                	lw	a5,8(sp)
     840:	fee797e3          	bne	a5,a4,82e <__stack_size+0x2e>
C:\ch32\data\CH32V307EVT\EVT\EXAM\ETH\TcpClient\obj/../User/system_ch32v30x.c:548

  if ((RCC->CTLR & RCC_HSERDY) != RESET)
     844:	400217b7          	lui	a5,0x40021
     848:	439c                	lw	a5,0(a5)
     84a:	00e79713          	slli	a4,a5,0xe
     84e:	06075763          	bgez	a4,8bc <__stack_size+0xbc>
C:\ch32\data\CH32V307EVT\EVT\EXAM\ETH\TcpClient\obj/../User/system_ch32v30x.c:550
  {
    HSEStatus = (uint32_t)0x01;
     852:	4785                	li	a5,1
     854:	c63e                	sw	a5,12(sp)
C:\ch32\data\CH32V307EVT\EVT\EXAM\ETH\TcpClient\obj/../User/system_ch32v30x.c:557
  else
  {
    HSEStatus = (uint32_t)0x00;
  }

  if (HSEStatus == (uint32_t)0x01)
     856:	4732                	lw	a4,12(sp)
     858:	4785                	li	a5,1
     85a:	04f71f63          	bne	a4,a5,8b8 <__stack_size+0xb8>
C:\ch32\data\CH32V307EVT\EVT\EXAM\ETH\TcpClient\obj/../User/system_ch32v30x.c:560
  {
    /* HCLK = SYSCLK */
    RCC->CFGR0 |= (uint32_t)RCC_HPRE_DIV1;
     85e:	400217b7          	lui	a5,0x40021
     862:	43d8                	lw	a4,4(a5)
C:\ch32\data\CH32V307EVT\EVT\EXAM\ETH\TcpClient\obj/../User/system_ch32v30x.c:567
    RCC->CFGR0 |= (uint32_t)RCC_PPRE2_DIV1;
    /* PCLK1 = HCLK */
    RCC->CFGR0 |= (uint32_t)RCC_PPRE1_DIV2;

    /*  PLL configuration: PLLCLK = HSE * 12 = 96 MHz */
    RCC->CFGR0 &= (uint32_t)((uint32_t)~(RCC_PLLSRC | RCC_PLLXTPRE |
     864:	ffc106b7          	lui	a3,0xffc10
     868:	16fd                	addi	a3,a3,-1
C:\ch32\data\CH32V307EVT\EVT\EXAM\ETH\TcpClient\obj/../User/system_ch32v30x.c:560
    RCC->CFGR0 |= (uint32_t)RCC_HPRE_DIV1;
     86a:	c3d8                	sw	a4,4(a5)
C:\ch32\data\CH32V307EVT\EVT\EXAM\ETH\TcpClient\obj/../User/system_ch32v30x.c:562
    RCC->CFGR0 |= (uint32_t)RCC_PPRE2_DIV1;
     86c:	43d8                	lw	a4,4(a5)
     86e:	c3d8                	sw	a4,4(a5)
C:\ch32\data\CH32V307EVT\EVT\EXAM\ETH\TcpClient\obj/../User/system_ch32v30x.c:564
    RCC->CFGR0 |= (uint32_t)RCC_PPRE1_DIV2;
     870:	43d8                	lw	a4,4(a5)
     872:	40076713          	ori	a4,a4,1024
     876:	c3d8                	sw	a4,4(a5)
C:\ch32\data\CH32V307EVT\EVT\EXAM\ETH\TcpClient\obj/../User/system_ch32v30x.c:567
    RCC->CFGR0 &= (uint32_t)((uint32_t)~(RCC_PLLSRC | RCC_PLLXTPRE |
     878:	43d8                	lw	a4,4(a5)
     87a:	8f75                	and	a4,a4,a3
     87c:	c3d8                	sw	a4,4(a5)
C:\ch32\data\CH32V307EVT\EVT\EXAM\ETH\TcpClient\obj/../User/system_ch32v30x.c:573
                                        RCC_PLLMULL));

#ifdef CH32V30x_D8
        RCC->CFGR0 |= (uint32_t)(RCC_PLLSRC_HSE | RCC_PLLXTPRE_HSE | RCC_PLLMULL12);
#else
        RCC->CFGR0 |= (uint32_t)(RCC_PLLSRC_HSE | RCC_PLLXTPRE_HSE | RCC_PLLMULL12_EXTEN);
     87e:	43d8                	lw	a4,4(a5)
     880:	002906b7          	lui	a3,0x290
     884:	8f55                	or	a4,a4,a3
     886:	c3d8                	sw	a4,4(a5)
C:\ch32\data\CH32V307EVT\EVT\EXAM\ETH\TcpClient\obj/../User/system_ch32v30x.c:577
#endif

    /* Enable PLL */
    RCC->CTLR |= RCC_PLLON;
     888:	4398                	lw	a4,0(a5)
     88a:	010006b7          	lui	a3,0x1000
     88e:	8f55                	or	a4,a4,a3
     890:	c398                	sw	a4,0(a5)
C:\ch32\data\CH32V307EVT\EVT\EXAM\ETH\TcpClient\obj/../User/system_ch32v30x.c:579
    /* Wait till PLL is ready */
    while((RCC->CTLR & RCC_PLLRDY) == 0)
     892:	4398                	lw	a4,0(a5)
     894:	00671693          	slli	a3,a4,0x6
     898:	fe06dde3          	bgez	a3,892 <__stack_size+0x92>
C:\ch32\data\CH32V307EVT\EVT\EXAM\ETH\TcpClient\obj/../User/system_ch32v30x.c:583
    {
    }
    /* Select PLL as system clock source */
    RCC->CFGR0 &= (uint32_t)((uint32_t)~(RCC_SW));
     89c:	43d8                	lw	a4,4(a5)
C:\ch32\data\CH32V307EVT\EVT\EXAM\ETH\TcpClient\obj/../User/system_ch32v30x.c:586
    RCC->CFGR0 |= (uint32_t)RCC_SW_PLL;
    /* Wait till PLL is used as system clock source */
    while ((RCC->CFGR0 & (uint32_t)RCC_SWS) != (uint32_t)0x08)
     89e:	400216b7          	lui	a3,0x40021
C:\ch32\data\CH32V307EVT\EVT\EXAM\ETH\TcpClient\obj/../User/system_ch32v30x.c:583
    RCC->CFGR0 &= (uint32_t)((uint32_t)~(RCC_SW));
     8a2:	9b71                	andi	a4,a4,-4
     8a4:	c3d8                	sw	a4,4(a5)
C:\ch32\data\CH32V307EVT\EVT\EXAM\ETH\TcpClient\obj/../User/system_ch32v30x.c:584
    RCC->CFGR0 |= (uint32_t)RCC_SW_PLL;
     8a6:	43d8                	lw	a4,4(a5)
     8a8:	00276713          	ori	a4,a4,2
     8ac:	c3d8                	sw	a4,4(a5)
C:\ch32\data\CH32V307EVT\EVT\EXAM\ETH\TcpClient\obj/../User/system_ch32v30x.c:586
    while ((RCC->CFGR0 & (uint32_t)RCC_SWS) != (uint32_t)0x08)
     8ae:	4721                	li	a4,8
     8b0:	42dc                	lw	a5,4(a3)
     8b2:	8bb1                	andi	a5,a5,12
     8b4:	fee79ee3          	bne	a5,a4,8b0 <__stack_size+0xb0>
SystemInit():
C:\ch32\data\CH32V307EVT\EVT\EXAM\ETH\TcpClient\obj/../User/system_ch32v30x.c:133
}
     8b8:	0141                	addi	sp,sp,16
     8ba:	8082                	ret
SetSysClockTo96_HSE():
C:\ch32\data\CH32V307EVT\EVT\EXAM\ETH\TcpClient\obj/../User/system_ch32v30x.c:554
    HSEStatus = (uint32_t)0x00;
     8bc:	c602                	sw	zero,12(sp)
     8be:	bf61                	j	856 <__stack_size+0x56>

000008c0 <SystemCoreClockUpdate>:
SystemCoreClockUpdate():
C:\ch32\data\CH32V307EVT\EVT\EXAM\ETH\TcpClient\obj/../User/system_ch32v30x.c:146
  tmp = RCC->CFGR0 & RCC_SWS;
     8c0:	40021637          	lui	a2,0x40021
     8c4:	425c                	lw	a5,4(a2)
     8c6:	4691                	li	a3,4
     8c8:	8bb1                	andi	a5,a5,12
C:\ch32\data\CH32V307EVT\EVT\EXAM\ETH\TcpClient\obj/../User/system_ch32v30x.c:148
  switch (tmp)
     8ca:	81418713          	addi	a4,gp,-2028 # 20000034 <SystemCoreClock>
     8ce:	00d78563          	beq	a5,a3,8d8 <SystemCoreClockUpdate+0x18>
     8d2:	46a1                	li	a3,8
     8d4:	02d78863          	beq	a5,a3,904 <SystemCoreClockUpdate+0x44>
C:\ch32\data\CH32V307EVT\EVT\EXAM\ETH\TcpClient\obj/../User/system_ch32v30x.c:151
      SystemCoreClock = HSI_VALUE;
     8d8:	007a17b7          	lui	a5,0x7a1
     8dc:	20078793          	addi	a5,a5,512 # 7a1200 <_data_lma+0x7955ac>
C:\ch32\data\CH32V307EVT\EVT\EXAM\ETH\TcpClient\obj/../User/system_ch32v30x.c:194 (discriminator 1)
      if(Pll_6_5 == 1) SystemCoreClock = (SystemCoreClock / 2);
     8e0:	c31c                	sw	a5,0(a4)
C:\ch32\data\CH32V307EVT\EVT\EXAM\ETH\TcpClient\obj/../User/system_ch32v30x.c:202
  tmp = AHBPrescTable[((RCC->CFGR0 & RCC_HPRE) >> 4)];
     8e2:	400217b7          	lui	a5,0x40021
     8e6:	43dc                	lw	a5,4(a5)
     8e8:	8391                	srli	a5,a5,0x4
     8ea:	00f7f693          	andi	a3,a5,15
     8ee:	200007b7          	lui	a5,0x20000
     8f2:	00078793          	mv	a5,a5
     8f6:	97b6                	add	a5,a5,a3
     8f8:	2394                	lbu	a3,0(a5)
C:\ch32\data\CH32V307EVT\EVT\EXAM\ETH\TcpClient\obj/../User/system_ch32v30x.c:203
  SystemCoreClock >>= tmp;  
     8fa:	431c                	lw	a5,0(a4)
     8fc:	00d7d7b3          	srl	a5,a5,a3
     900:	c31c                	sw	a5,0(a4)
C:\ch32\data\CH32V307EVT\EVT\EXAM\ETH\TcpClient\obj/../User/system_ch32v30x.c:204
}
     902:	8082                	ret
C:\ch32\data\CH32V307EVT\EVT\EXAM\ETH\TcpClient\obj/../User/system_ch32v30x.c:157
      pllmull = RCC->CFGR0 & RCC_PLLMULL;
     904:	4254                	lw	a3,4(a2)
C:\ch32\data\CH32V307EVT\EVT\EXAM\ETH\TcpClient\obj/../User/system_ch32v30x.c:158
      pllsource = RCC->CFGR0 & RCC_PLLSRC; 
     906:	4250                	lw	a2,4(a2)
     908:	67c1                	lui	a5,0x10
C:\ch32\data\CH32V307EVT\EVT\EXAM\ETH\TcpClient\obj/../User/system_ch32v30x.c:159
      pllmull = ( pllmull >> 18) + 2;
     90a:	82c9                	srli	a3,a3,0x12
     90c:	8abd                	andi	a3,a3,15
C:\ch32\data\CH32V307EVT\EVT\EXAM\ETH\TcpClient\obj/../User/system_ch32v30x.c:158
      pllsource = RCC->CFGR0 & RCC_PLLSRC; 
     90e:	8e7d                	and	a2,a2,a5
C:\ch32\data\CH32V307EVT\EVT\EXAM\ETH\TcpClient\obj/../User/system_ch32v30x.c:164
          if(pllmull == 2) pllmull = 18;
     910:	00268793          	addi	a5,a3,2 # 40021002 <_eusrstack+0x20011002>
     914:	ca85                	beqz	a3,944 <SystemCoreClockUpdate+0x84>
C:\ch32\data\CH32V307EVT\EVT\EXAM\ETH\TcpClient\obj/../User/system_ch32v30x.c:165
          if(pllmull == 15){
     916:	46bd                	li	a3,15
     918:	02d78963          	beq	a5,a3,94a <SystemCoreClockUpdate+0x8a>
C:\ch32\data\CH32V307EVT\EVT\EXAM\ETH\TcpClient\obj/../User/system_ch32v30x.c:169
          if(pllmull == 16) pllmull = 15;
     91c:	46c1                	li	a3,16
     91e:	02d78963          	beq	a5,a3,950 <SystemCoreClockUpdate+0x90>
C:\ch32\data\CH32V307EVT\EVT\EXAM\ETH\TcpClient\obj/../User/system_ch32v30x.c:170
          if(pllmull == 17) pllmull = 16;
     922:	45c5                	li	a1,17
     924:	4681                	li	a3,0
     926:	00b79363          	bne	a5,a1,92c <SystemCoreClockUpdate+0x6c>
     92a:	47c1                	li	a5,16
C:\ch32\data\CH32V307EVT\EVT\EXAM\ETH\TcpClient\obj/../User/system_ch32v30x.c:173
      if (pllsource == 0x00)
     92c:	e60d                	bnez	a2,956 <SystemCoreClockUpdate+0x96>
C:\ch32\data\CH32V307EVT\EVT\EXAM\ETH\TcpClient\obj/../User/system_ch32v30x.c:175
          if(EXTEN->EXTEN_CTR & EXTEN_PLL_HSI_PRE){
     92e:	40024637          	lui	a2,0x40024
     932:	80062603          	lw	a2,-2048(a2) # 40023800 <_eusrstack+0x20013800>
     936:	8a41                	andi	a2,a2,16
     938:	c615                	beqz	a2,964 <SystemCoreClockUpdate+0xa4>
C:\ch32\data\CH32V307EVT\EVT\EXAM\ETH\TcpClient\obj/../User/system_ch32v30x.c:190
          SystemCoreClock = HSE_VALUE * pllmull;
     93a:	007a1637          	lui	a2,0x7a1
     93e:	20060613          	addi	a2,a2,512 # 7a1200 <_data_lma+0x7955ac>
     942:	a02d                	j	96c <SystemCoreClockUpdate+0xac>
     944:	4681                	li	a3,0
C:\ch32\data\CH32V307EVT\EVT\EXAM\ETH\TcpClient\obj/../User/system_ch32v30x.c:164
          if(pllmull == 2) pllmull = 18;
     946:	47c9                	li	a5,18
     948:	b7d5                	j	92c <SystemCoreClockUpdate+0x6c>
C:\ch32\data\CH32V307EVT\EVT\EXAM\ETH\TcpClient\obj/../User/system_ch32v30x.c:167
              Pll_6_5 = 1;
     94a:	4685                	li	a3,1
C:\ch32\data\CH32V307EVT\EVT\EXAM\ETH\TcpClient\obj/../User/system_ch32v30x.c:166
              pllmull = 13;  /* *6.5 */
     94c:	47b5                	li	a5,13
     94e:	bff9                	j	92c <SystemCoreClockUpdate+0x6c>
     950:	4681                	li	a3,0
C:\ch32\data\CH32V307EVT\EVT\EXAM\ETH\TcpClient\obj/../User/system_ch32v30x.c:169
          if(pllmull == 16) pllmull = 15;
     952:	47bd                	li	a5,15
     954:	bfe1                	j	92c <SystemCoreClockUpdate+0x6c>
C:\ch32\data\CH32V307EVT\EVT\EXAM\ETH\TcpClient\obj/../User/system_ch32v30x.c:184
        if ((RCC->CFGR0 & RCC_PLLXTPRE) != (uint32_t)RESET)
     956:	40021637          	lui	a2,0x40021
     95a:	4250                	lw	a2,4(a2)
     95c:	00e61593          	slli	a1,a2,0xe
     960:	fc05dde3          	bgez	a1,93a <SystemCoreClockUpdate+0x7a>
C:\ch32\data\CH32V307EVT\EVT\EXAM\ETH\TcpClient\obj/../User/system_ch32v30x.c:186
          SystemCoreClock = (HSE_VALUE >> 1) * pllmull;
     964:	003d1637          	lui	a2,0x3d1
     968:	90060613          	addi	a2,a2,-1792 # 3d0900 <_data_lma+0x3c4cac>
C:\ch32\data\CH32V307EVT\EVT\EXAM\ETH\TcpClient\obj/../User/system_ch32v30x.c:190
          SystemCoreClock = HSE_VALUE * pllmull;
     96c:	02c787b3          	mul	a5,a5,a2
     970:	c31c                	sw	a5,0(a4)
C:\ch32\data\CH32V307EVT\EVT\EXAM\ETH\TcpClient\obj/../User/system_ch32v30x.c:194
      if(Pll_6_5 == 1) SystemCoreClock = (SystemCoreClock / 2);
     972:	daa5                	beqz	a3,8e2 <SystemCoreClockUpdate+0x22>
C:\ch32\data\CH32V307EVT\EVT\EXAM\ETH\TcpClient\obj/../User/system_ch32v30x.c:194 (discriminator 1)
     974:	431c                	lw	a5,0(a4)
     976:	8385                	srli	a5,a5,0x1
     978:	b7a5                	j	8e0 <SystemCoreClockUpdate+0x20>
C:/ch32/data/CH32V307EVT/EVT/EXAM/SRC/Startup/startup_ch32v30x_D8C.S:240
    .weak   DMA2_Channel8_IRQHandler   /* DMA2 Channel 8 */
    .weak   DMA2_Channel9_IRQHandler   /* DMA2 Channel 9 */
    .weak   DMA2_Channel10_IRQHandler  /* DMA2 Channel 10 */
    .weak   DMA2_Channel11_IRQHandler  /* DMA2 Channel 11 */

NMI_Handler:  1:  j 1b
     97a:	a001                	j	97a <SystemCoreClockUpdate+0xba>
C:/ch32/data/CH32V307EVT/EVT/EXAM/SRC/Startup/startup_ch32v30x_D8C.S:241
HardFault_Handler:  1:  j 1b
     97c:	a001                	j	97c <SystemCoreClockUpdate+0xbc>

0000097e <Ecall_M_Mode_Handler>:
Ecall_M_Mode_Handler():
C:/ch32/data/CH32V307EVT/EVT/EXAM/SRC/Startup/startup_ch32v30x_D8C.S:242
Ecall_M_Mode_Handler:  1:  j 1b
     97e:	a001                	j	97e <Ecall_M_Mode_Handler>

00000980 <Ecall_U_Mode_Handler>:
Ecall_U_Mode_Handler():
C:/ch32/data/CH32V307EVT/EVT/EXAM/SRC/Startup/startup_ch32v30x_D8C.S:243
Ecall_U_Mode_Handler:  1:  j 1b
     980:	a001                	j	980 <Ecall_U_Mode_Handler>

00000982 <Break_Point_Handler>:
Break_Point_Handler():
C:/ch32/data/CH32V307EVT/EVT/EXAM/SRC/Startup/startup_ch32v30x_D8C.S:244
Break_Point_Handler:  1:  j 1b
     982:	a001                	j	982 <Break_Point_Handler>

00000984 <SysTick_Handler>:
SysTick_Handler():
C:/ch32/data/CH32V307EVT/EVT/EXAM/SRC/Startup/startup_ch32v30x_D8C.S:245
SysTick_Handler:  1:  j 1b
     984:	a001                	j	984 <SysTick_Handler>

00000986 <SW_Handler>:
SW_Handler():
C:/ch32/data/CH32V307EVT/EVT/EXAM/SRC/Startup/startup_ch32v30x_D8C.S:246
SW_Handler:  1:  j 1b
     986:	a001                	j	986 <SW_Handler>

00000988 <WWDG_IRQHandler>:
WWDG_IRQHandler():
C:/ch32/data/CH32V307EVT/EVT/EXAM/SRC/Startup/startup_ch32v30x_D8C.S:247
WWDG_IRQHandler:  1:  j 1b
     988:	a001                	j	988 <WWDG_IRQHandler>

0000098a <PVD_IRQHandler>:
PVD_IRQHandler():
C:/ch32/data/CH32V307EVT/EVT/EXAM/SRC/Startup/startup_ch32v30x_D8C.S:248
PVD_IRQHandler:  1:  j 1b
     98a:	a001                	j	98a <PVD_IRQHandler>

0000098c <TAMPER_IRQHandler>:
TAMPER_IRQHandler():
C:/ch32/data/CH32V307EVT/EVT/EXAM/SRC/Startup/startup_ch32v30x_D8C.S:249
TAMPER_IRQHandler:  1:  j 1b
     98c:	a001                	j	98c <TAMPER_IRQHandler>

0000098e <RTC_IRQHandler>:
RTC_IRQHandler():
C:/ch32/data/CH32V307EVT/EVT/EXAM/SRC/Startup/startup_ch32v30x_D8C.S:250
RTC_IRQHandler:  1:  j 1b
     98e:	a001                	j	98e <RTC_IRQHandler>

00000990 <FLASH_IRQHandler>:
FLASH_IRQHandler():
C:/ch32/data/CH32V307EVT/EVT/EXAM/SRC/Startup/startup_ch32v30x_D8C.S:251
FLASH_IRQHandler:  1:  j 1b
     990:	a001                	j	990 <FLASH_IRQHandler>

00000992 <RCC_IRQHandler>:
RCC_IRQHandler():
C:/ch32/data/CH32V307EVT/EVT/EXAM/SRC/Startup/startup_ch32v30x_D8C.S:252
RCC_IRQHandler:  1:  j 1b
     992:	a001                	j	992 <RCC_IRQHandler>
C:/ch32/data/CH32V307EVT/EVT/EXAM/SRC/Startup/startup_ch32v30x_D8C.S:253
EXTI0_IRQHandler:  1:  j 1b
     994:	a001                	j	994 <RCC_IRQHandler+0x2>

00000996 <EXTI1_IRQHandler>:
EXTI1_IRQHandler():
C:/ch32/data/CH32V307EVT/EVT/EXAM/SRC/Startup/startup_ch32v30x_D8C.S:254
EXTI1_IRQHandler:  1:  j 1b
     996:	a001                	j	996 <EXTI1_IRQHandler>

00000998 <EXTI2_IRQHandler>:
EXTI2_IRQHandler():
C:/ch32/data/CH32V307EVT/EVT/EXAM/SRC/Startup/startup_ch32v30x_D8C.S:255
EXTI2_IRQHandler:  1:  j 1b
     998:	a001                	j	998 <EXTI2_IRQHandler>

0000099a <EXTI3_IRQHandler>:
EXTI3_IRQHandler():
C:/ch32/data/CH32V307EVT/EVT/EXAM/SRC/Startup/startup_ch32v30x_D8C.S:256
EXTI3_IRQHandler:  1:  j 1b
     99a:	a001                	j	99a <EXTI3_IRQHandler>

0000099c <EXTI4_IRQHandler>:
EXTI4_IRQHandler():
C:/ch32/data/CH32V307EVT/EVT/EXAM/SRC/Startup/startup_ch32v30x_D8C.S:257
EXTI4_IRQHandler:  1:  j 1b
     99c:	a001                	j	99c <EXTI4_IRQHandler>

0000099e <DMA1_Channel1_IRQHandler>:
DMA1_Channel1_IRQHandler():
C:/ch32/data/CH32V307EVT/EVT/EXAM/SRC/Startup/startup_ch32v30x_D8C.S:258
DMA1_Channel1_IRQHandler:  1:  j 1b
     99e:	a001                	j	99e <DMA1_Channel1_IRQHandler>

000009a0 <DMA1_Channel2_IRQHandler>:
DMA1_Channel2_IRQHandler():
C:/ch32/data/CH32V307EVT/EVT/EXAM/SRC/Startup/startup_ch32v30x_D8C.S:259
DMA1_Channel2_IRQHandler:  1:  j 1b
     9a0:	a001                	j	9a0 <DMA1_Channel2_IRQHandler>

000009a2 <DMA1_Channel3_IRQHandler>:
DMA1_Channel3_IRQHandler():
C:/ch32/data/CH32V307EVT/EVT/EXAM/SRC/Startup/startup_ch32v30x_D8C.S:260
DMA1_Channel3_IRQHandler:  1:  j 1b
     9a2:	a001                	j	9a2 <DMA1_Channel3_IRQHandler>

000009a4 <DMA1_Channel4_IRQHandler>:
DMA1_Channel4_IRQHandler():
C:/ch32/data/CH32V307EVT/EVT/EXAM/SRC/Startup/startup_ch32v30x_D8C.S:261
DMA1_Channel4_IRQHandler:  1:  j 1b
     9a4:	a001                	j	9a4 <DMA1_Channel4_IRQHandler>

000009a6 <DMA1_Channel5_IRQHandler>:
DMA1_Channel5_IRQHandler():
C:/ch32/data/CH32V307EVT/EVT/EXAM/SRC/Startup/startup_ch32v30x_D8C.S:262
DMA1_Channel5_IRQHandler:  1:  j 1b
     9a6:	a001                	j	9a6 <DMA1_Channel5_IRQHandler>

000009a8 <DMA1_Channel6_IRQHandler>:
DMA1_Channel6_IRQHandler():
C:/ch32/data/CH32V307EVT/EVT/EXAM/SRC/Startup/startup_ch32v30x_D8C.S:263
DMA1_Channel6_IRQHandler:  1:  j 1b
     9a8:	a001                	j	9a8 <DMA1_Channel6_IRQHandler>

000009aa <DMA1_Channel7_IRQHandler>:
DMA1_Channel7_IRQHandler():
C:/ch32/data/CH32V307EVT/EVT/EXAM/SRC/Startup/startup_ch32v30x_D8C.S:264
DMA1_Channel7_IRQHandler:  1:  j 1b
     9aa:	a001                	j	9aa <DMA1_Channel7_IRQHandler>

000009ac <ADC1_2_IRQHandler>:
ADC1_2_IRQHandler():
C:/ch32/data/CH32V307EVT/EVT/EXAM/SRC/Startup/startup_ch32v30x_D8C.S:265
ADC1_2_IRQHandler:  1:  j 1b
     9ac:	a001                	j	9ac <ADC1_2_IRQHandler>

000009ae <USB_HP_CAN1_TX_IRQHandler>:
USB_HP_CAN1_TX_IRQHandler():
C:/ch32/data/CH32V307EVT/EVT/EXAM/SRC/Startup/startup_ch32v30x_D8C.S:266
USB_HP_CAN1_TX_IRQHandler:  1:  j 1b
     9ae:	a001                	j	9ae <USB_HP_CAN1_TX_IRQHandler>

000009b0 <USB_LP_CAN1_RX0_IRQHandler>:
USB_LP_CAN1_RX0_IRQHandler():
C:/ch32/data/CH32V307EVT/EVT/EXAM/SRC/Startup/startup_ch32v30x_D8C.S:267
USB_LP_CAN1_RX0_IRQHandler:  1:  j 1b
     9b0:	a001                	j	9b0 <USB_LP_CAN1_RX0_IRQHandler>

000009b2 <CAN1_RX1_IRQHandler>:
CAN1_RX1_IRQHandler():
C:/ch32/data/CH32V307EVT/EVT/EXAM/SRC/Startup/startup_ch32v30x_D8C.S:268
CAN1_RX1_IRQHandler:  1:  j 1b
     9b2:	a001                	j	9b2 <CAN1_RX1_IRQHandler>

000009b4 <CAN1_SCE_IRQHandler>:
CAN1_SCE_IRQHandler():
C:/ch32/data/CH32V307EVT/EVT/EXAM/SRC/Startup/startup_ch32v30x_D8C.S:269
CAN1_SCE_IRQHandler:  1:  j 1b
     9b4:	a001                	j	9b4 <CAN1_SCE_IRQHandler>
C:/ch32/data/CH32V307EVT/EVT/EXAM/SRC/Startup/startup_ch32v30x_D8C.S:270
EXTI9_5_IRQHandler:  1:  j 1b
     9b6:	a001                	j	9b6 <CAN1_SCE_IRQHandler+0x2>

000009b8 <TIM1_BRK_IRQHandler>:
TIM1_BRK_IRQHandler():
C:/ch32/data/CH32V307EVT/EVT/EXAM/SRC/Startup/startup_ch32v30x_D8C.S:271
TIM1_BRK_IRQHandler:  1:  j 1b
     9b8:	a001                	j	9b8 <TIM1_BRK_IRQHandler>

000009ba <TIM1_UP_IRQHandler>:
TIM1_UP_IRQHandler():
C:/ch32/data/CH32V307EVT/EVT/EXAM/SRC/Startup/startup_ch32v30x_D8C.S:272
TIM1_UP_IRQHandler:  1:  j 1b
     9ba:	a001                	j	9ba <TIM1_UP_IRQHandler>

000009bc <TIM1_TRG_COM_IRQHandler>:
TIM1_TRG_COM_IRQHandler():
C:/ch32/data/CH32V307EVT/EVT/EXAM/SRC/Startup/startup_ch32v30x_D8C.S:273
TIM1_TRG_COM_IRQHandler:  1:  j 1b
     9bc:	a001                	j	9bc <TIM1_TRG_COM_IRQHandler>

000009be <TIM1_CC_IRQHandler>:
TIM1_CC_IRQHandler():
C:/ch32/data/CH32V307EVT/EVT/EXAM/SRC/Startup/startup_ch32v30x_D8C.S:274
TIM1_CC_IRQHandler:  1:  j 1b
     9be:	a001                	j	9be <TIM1_CC_IRQHandler>
C:/ch32/data/CH32V307EVT/EVT/EXAM/SRC/Startup/startup_ch32v30x_D8C.S:275
TIM2_IRQHandler:  1:  j 1b
     9c0:	a001                	j	9c0 <TIM1_CC_IRQHandler+0x2>

000009c2 <TIM3_IRQHandler>:
TIM3_IRQHandler():
C:/ch32/data/CH32V307EVT/EVT/EXAM/SRC/Startup/startup_ch32v30x_D8C.S:276
TIM3_IRQHandler:  1:  j 1b
     9c2:	a001                	j	9c2 <TIM3_IRQHandler>

000009c4 <TIM4_IRQHandler>:
TIM4_IRQHandler():
C:/ch32/data/CH32V307EVT/EVT/EXAM/SRC/Startup/startup_ch32v30x_D8C.S:277
TIM4_IRQHandler:  1:  j 1b
     9c4:	a001                	j	9c4 <TIM4_IRQHandler>

000009c6 <I2C1_EV_IRQHandler>:
I2C1_EV_IRQHandler():
C:/ch32/data/CH32V307EVT/EVT/EXAM/SRC/Startup/startup_ch32v30x_D8C.S:278
I2C1_EV_IRQHandler:  1:  j 1b
     9c6:	a001                	j	9c6 <I2C1_EV_IRQHandler>

000009c8 <I2C1_ER_IRQHandler>:
I2C1_ER_IRQHandler():
C:/ch32/data/CH32V307EVT/EVT/EXAM/SRC/Startup/startup_ch32v30x_D8C.S:279
I2C1_ER_IRQHandler:  1:  j 1b
     9c8:	a001                	j	9c8 <I2C1_ER_IRQHandler>

000009ca <I2C2_EV_IRQHandler>:
I2C2_EV_IRQHandler():
C:/ch32/data/CH32V307EVT/EVT/EXAM/SRC/Startup/startup_ch32v30x_D8C.S:280
I2C2_EV_IRQHandler:  1:  j 1b
     9ca:	a001                	j	9ca <I2C2_EV_IRQHandler>

000009cc <I2C2_ER_IRQHandler>:
I2C2_ER_IRQHandler():
C:/ch32/data/CH32V307EVT/EVT/EXAM/SRC/Startup/startup_ch32v30x_D8C.S:281
I2C2_ER_IRQHandler:  1:  j 1b
     9cc:	a001                	j	9cc <I2C2_ER_IRQHandler>

000009ce <SPI1_IRQHandler>:
SPI1_IRQHandler():
C:/ch32/data/CH32V307EVT/EVT/EXAM/SRC/Startup/startup_ch32v30x_D8C.S:282
SPI1_IRQHandler:  1:  j 1b
     9ce:	a001                	j	9ce <SPI1_IRQHandler>

000009d0 <SPI2_IRQHandler>:
SPI2_IRQHandler():
C:/ch32/data/CH32V307EVT/EVT/EXAM/SRC/Startup/startup_ch32v30x_D8C.S:283
SPI2_IRQHandler:  1:  j 1b
     9d0:	a001                	j	9d0 <SPI2_IRQHandler>

000009d2 <USART1_IRQHandler>:
USART1_IRQHandler():
C:/ch32/data/CH32V307EVT/EVT/EXAM/SRC/Startup/startup_ch32v30x_D8C.S:284
USART1_IRQHandler:  1:  j 1b
     9d2:	a001                	j	9d2 <USART1_IRQHandler>

000009d4 <USART2_IRQHandler>:
USART2_IRQHandler():
C:/ch32/data/CH32V307EVT/EVT/EXAM/SRC/Startup/startup_ch32v30x_D8C.S:285
USART2_IRQHandler:  1:  j 1b
     9d4:	a001                	j	9d4 <USART2_IRQHandler>

000009d6 <USART3_IRQHandler>:
USART3_IRQHandler():
C:/ch32/data/CH32V307EVT/EVT/EXAM/SRC/Startup/startup_ch32v30x_D8C.S:286
USART3_IRQHandler:  1:  j 1b
     9d6:	a001                	j	9d6 <USART3_IRQHandler>

000009d8 <EXTI15_10_IRQHandler>:
EXTI15_10_IRQHandler():
C:/ch32/data/CH32V307EVT/EVT/EXAM/SRC/Startup/startup_ch32v30x_D8C.S:287
EXTI15_10_IRQHandler:  1:  j 1b
     9d8:	a001                	j	9d8 <EXTI15_10_IRQHandler>

000009da <RTCAlarm_IRQHandler>:
RTCAlarm_IRQHandler():
C:/ch32/data/CH32V307EVT/EVT/EXAM/SRC/Startup/startup_ch32v30x_D8C.S:288
RTCAlarm_IRQHandler:  1:  j 1b
     9da:	a001                	j	9da <RTCAlarm_IRQHandler>

000009dc <USBWakeUp_IRQHandler>:
USBWakeUp_IRQHandler():
C:/ch32/data/CH32V307EVT/EVT/EXAM/SRC/Startup/startup_ch32v30x_D8C.S:289
USBWakeUp_IRQHandler:  1:  j 1b
     9dc:	a001                	j	9dc <USBWakeUp_IRQHandler>

000009de <TIM8_BRK_IRQHandler>:
TIM8_BRK_IRQHandler():
C:/ch32/data/CH32V307EVT/EVT/EXAM/SRC/Startup/startup_ch32v30x_D8C.S:290
TIM8_BRK_IRQHandler:  1:  j 1b
     9de:	a001                	j	9de <TIM8_BRK_IRQHandler>

000009e0 <TIM8_UP_IRQHandler>:
TIM8_UP_IRQHandler():
C:/ch32/data/CH32V307EVT/EVT/EXAM/SRC/Startup/startup_ch32v30x_D8C.S:291
TIM8_UP_IRQHandler:  1:  j 1b
     9e0:	a001                	j	9e0 <TIM8_UP_IRQHandler>

000009e2 <TIM8_TRG_COM_IRQHandler>:
TIM8_TRG_COM_IRQHandler():
C:/ch32/data/CH32V307EVT/EVT/EXAM/SRC/Startup/startup_ch32v30x_D8C.S:292
TIM8_TRG_COM_IRQHandler:  1:  j 1b
     9e2:	a001                	j	9e2 <TIM8_TRG_COM_IRQHandler>

000009e4 <TIM8_CC_IRQHandler>:
TIM8_CC_IRQHandler():
C:/ch32/data/CH32V307EVT/EVT/EXAM/SRC/Startup/startup_ch32v30x_D8C.S:293
TIM8_CC_IRQHandler:  1:  j 1b
     9e4:	a001                	j	9e4 <TIM8_CC_IRQHandler>

000009e6 <RNG_IRQHandler>:
RNG_IRQHandler():
C:/ch32/data/CH32V307EVT/EVT/EXAM/SRC/Startup/startup_ch32v30x_D8C.S:294
RNG_IRQHandler:  1:  j 1b
     9e6:	a001                	j	9e6 <RNG_IRQHandler>

000009e8 <FSMC_IRQHandler>:
FSMC_IRQHandler():
C:/ch32/data/CH32V307EVT/EVT/EXAM/SRC/Startup/startup_ch32v30x_D8C.S:295
FSMC_IRQHandler:  1:  j 1b
     9e8:	a001                	j	9e8 <FSMC_IRQHandler>

000009ea <SDIO_IRQHandler>:
SDIO_IRQHandler():
C:/ch32/data/CH32V307EVT/EVT/EXAM/SRC/Startup/startup_ch32v30x_D8C.S:296
SDIO_IRQHandler:  1:  j 1b
     9ea:	a001                	j	9ea <SDIO_IRQHandler>

000009ec <TIM5_IRQHandler>:
TIM5_IRQHandler():
C:/ch32/data/CH32V307EVT/EVT/EXAM/SRC/Startup/startup_ch32v30x_D8C.S:297
TIM5_IRQHandler:  1:  j 1b
     9ec:	a001                	j	9ec <TIM5_IRQHandler>

000009ee <SPI3_IRQHandler>:
SPI3_IRQHandler():
C:/ch32/data/CH32V307EVT/EVT/EXAM/SRC/Startup/startup_ch32v30x_D8C.S:298
SPI3_IRQHandler:  1:  j 1b
     9ee:	a001                	j	9ee <SPI3_IRQHandler>

000009f0 <UART4_IRQHandler>:
UART4_IRQHandler():
C:/ch32/data/CH32V307EVT/EVT/EXAM/SRC/Startup/startup_ch32v30x_D8C.S:299
UART4_IRQHandler:  1:  j 1b
     9f0:	a001                	j	9f0 <UART4_IRQHandler>

000009f2 <UART5_IRQHandler>:
UART5_IRQHandler():
C:/ch32/data/CH32V307EVT/EVT/EXAM/SRC/Startup/startup_ch32v30x_D8C.S:300
UART5_IRQHandler:  1:  j 1b
     9f2:	a001                	j	9f2 <UART5_IRQHandler>
C:/ch32/data/CH32V307EVT/EVT/EXAM/SRC/Startup/startup_ch32v30x_D8C.S:301
TIM6_IRQHandler:  1:  j 1b
     9f4:	a001                	j	9f4 <UART5_IRQHandler+0x2>

000009f6 <TIM7_IRQHandler>:
TIM7_IRQHandler():
C:/ch32/data/CH32V307EVT/EVT/EXAM/SRC/Startup/startup_ch32v30x_D8C.S:302
TIM7_IRQHandler:  1:  j 1b
     9f6:	a001                	j	9f6 <TIM7_IRQHandler>

000009f8 <DMA2_Channel1_IRQHandler>:
DMA2_Channel1_IRQHandler():
C:/ch32/data/CH32V307EVT/EVT/EXAM/SRC/Startup/startup_ch32v30x_D8C.S:303
DMA2_Channel1_IRQHandler:  1:  j 1b
     9f8:	a001                	j	9f8 <DMA2_Channel1_IRQHandler>

000009fa <DMA2_Channel2_IRQHandler>:
DMA2_Channel2_IRQHandler():
C:/ch32/data/CH32V307EVT/EVT/EXAM/SRC/Startup/startup_ch32v30x_D8C.S:304
DMA2_Channel2_IRQHandler:  1:  j 1b
     9fa:	a001                	j	9fa <DMA2_Channel2_IRQHandler>

000009fc <DMA2_Channel3_IRQHandler>:
DMA2_Channel3_IRQHandler():
C:/ch32/data/CH32V307EVT/EVT/EXAM/SRC/Startup/startup_ch32v30x_D8C.S:305
DMA2_Channel3_IRQHandler:  1:  j 1b
     9fc:	a001                	j	9fc <DMA2_Channel3_IRQHandler>

000009fe <DMA2_Channel4_IRQHandler>:
DMA2_Channel4_IRQHandler():
C:/ch32/data/CH32V307EVT/EVT/EXAM/SRC/Startup/startup_ch32v30x_D8C.S:306
DMA2_Channel4_IRQHandler:  1:  j 1b
     9fe:	a001                	j	9fe <DMA2_Channel4_IRQHandler>

00000a00 <DMA2_Channel5_IRQHandler>:
DMA2_Channel5_IRQHandler():
C:/ch32/data/CH32V307EVT/EVT/EXAM/SRC/Startup/startup_ch32v30x_D8C.S:307
DMA2_Channel5_IRQHandler:  1:  j 1b
     a00:	a001                	j	a00 <DMA2_Channel5_IRQHandler>
C:/ch32/data/CH32V307EVT/EVT/EXAM/SRC/Startup/startup_ch32v30x_D8C.S:308
ETH_IRQHandler:  1:  j 1b
     a02:	a001                	j	a02 <DMA2_Channel5_IRQHandler+0x2>

00000a04 <ETH_WKUP_IRQHandler>:
ETH_WKUP_IRQHandler():
C:/ch32/data/CH32V307EVT/EVT/EXAM/SRC/Startup/startup_ch32v30x_D8C.S:309
ETH_WKUP_IRQHandler:  1:  j 1b
     a04:	a001                	j	a04 <ETH_WKUP_IRQHandler>

00000a06 <CAN2_TX_IRQHandler>:
CAN2_TX_IRQHandler():
C:/ch32/data/CH32V307EVT/EVT/EXAM/SRC/Startup/startup_ch32v30x_D8C.S:310
CAN2_TX_IRQHandler:  1:  j 1b
     a06:	a001                	j	a06 <CAN2_TX_IRQHandler>

00000a08 <CAN2_RX0_IRQHandler>:
CAN2_RX0_IRQHandler():
C:/ch32/data/CH32V307EVT/EVT/EXAM/SRC/Startup/startup_ch32v30x_D8C.S:311
CAN2_RX0_IRQHandler:  1:  j 1b
     a08:	a001                	j	a08 <CAN2_RX0_IRQHandler>

00000a0a <CAN2_RX1_IRQHandler>:
CAN2_RX1_IRQHandler():
C:/ch32/data/CH32V307EVT/EVT/EXAM/SRC/Startup/startup_ch32v30x_D8C.S:312
CAN2_RX1_IRQHandler:  1:  j 1b
     a0a:	a001                	j	a0a <CAN2_RX1_IRQHandler>

00000a0c <CAN2_SCE_IRQHandler>:
CAN2_SCE_IRQHandler():
C:/ch32/data/CH32V307EVT/EVT/EXAM/SRC/Startup/startup_ch32v30x_D8C.S:313
CAN2_SCE_IRQHandler:  1:  j 1b
     a0c:	a001                	j	a0c <CAN2_SCE_IRQHandler>

00000a0e <OTG_FS_IRQHandler>:
OTG_FS_IRQHandler():
C:/ch32/data/CH32V307EVT/EVT/EXAM/SRC/Startup/startup_ch32v30x_D8C.S:314
OTG_FS_IRQHandler:  1:  j 1b
     a0e:	a001                	j	a0e <OTG_FS_IRQHandler>

00000a10 <USBHSWakeup_IRQHandler>:
USBHSWakeup_IRQHandler():
C:/ch32/data/CH32V307EVT/EVT/EXAM/SRC/Startup/startup_ch32v30x_D8C.S:315
USBHSWakeup_IRQHandler:  1:  j 1b
     a10:	a001                	j	a10 <USBHSWakeup_IRQHandler>

00000a12 <USBHS_IRQHandler>:
USBHS_IRQHandler():
C:/ch32/data/CH32V307EVT/EVT/EXAM/SRC/Startup/startup_ch32v30x_D8C.S:316
USBHS_IRQHandler:  1:  j 1b
     a12:	a001                	j	a12 <USBHS_IRQHandler>

00000a14 <DVP_IRQHandler>:
DVP_IRQHandler():
C:/ch32/data/CH32V307EVT/EVT/EXAM/SRC/Startup/startup_ch32v30x_D8C.S:317
DVP_IRQHandler:  1:  j 1b
     a14:	a001                	j	a14 <DVP_IRQHandler>

00000a16 <UART6_IRQHandler>:
UART6_IRQHandler():
C:/ch32/data/CH32V307EVT/EVT/EXAM/SRC/Startup/startup_ch32v30x_D8C.S:318
UART6_IRQHandler:  1:  j 1b
     a16:	a001                	j	a16 <UART6_IRQHandler>

00000a18 <UART7_IRQHandler>:
UART7_IRQHandler():
C:/ch32/data/CH32V307EVT/EVT/EXAM/SRC/Startup/startup_ch32v30x_D8C.S:319
UART7_IRQHandler:  1:  j 1b
     a18:	a001                	j	a18 <UART7_IRQHandler>

00000a1a <UART8_IRQHandler>:
UART8_IRQHandler():
C:/ch32/data/CH32V307EVT/EVT/EXAM/SRC/Startup/startup_ch32v30x_D8C.S:320
UART8_IRQHandler:  1:  j 1b
     a1a:	a001                	j	a1a <UART8_IRQHandler>

00000a1c <TIM9_BRK_IRQHandler>:
TIM9_BRK_IRQHandler():
C:/ch32/data/CH32V307EVT/EVT/EXAM/SRC/Startup/startup_ch32v30x_D8C.S:321
TIM9_BRK_IRQHandler:  1:  j 1b
     a1c:	a001                	j	a1c <TIM9_BRK_IRQHandler>

00000a1e <TIM9_UP_IRQHandler>:
TIM9_UP_IRQHandler():
C:/ch32/data/CH32V307EVT/EVT/EXAM/SRC/Startup/startup_ch32v30x_D8C.S:322
TIM9_UP_IRQHandler:  1:  j 1b
     a1e:	a001                	j	a1e <TIM9_UP_IRQHandler>

00000a20 <TIM9_TRG_COM_IRQHandler>:
TIM9_TRG_COM_IRQHandler():
C:/ch32/data/CH32V307EVT/EVT/EXAM/SRC/Startup/startup_ch32v30x_D8C.S:323
TIM9_TRG_COM_IRQHandler:  1:  j 1b
     a20:	a001                	j	a20 <TIM9_TRG_COM_IRQHandler>

00000a22 <TIM9_CC_IRQHandler>:
TIM9_CC_IRQHandler():
C:/ch32/data/CH32V307EVT/EVT/EXAM/SRC/Startup/startup_ch32v30x_D8C.S:324
TIM9_CC_IRQHandler:  1:  j 1b
     a22:	a001                	j	a22 <TIM9_CC_IRQHandler>

00000a24 <TIM10_BRK_IRQHandler>:
TIM10_BRK_IRQHandler():
C:/ch32/data/CH32V307EVT/EVT/EXAM/SRC/Startup/startup_ch32v30x_D8C.S:325
TIM10_BRK_IRQHandler:  1:  j 1b
     a24:	a001                	j	a24 <TIM10_BRK_IRQHandler>

00000a26 <TIM10_UP_IRQHandler>:
TIM10_UP_IRQHandler():
C:/ch32/data/CH32V307EVT/EVT/EXAM/SRC/Startup/startup_ch32v30x_D8C.S:326
TIM10_UP_IRQHandler:  1:  j 1b
     a26:	a001                	j	a26 <TIM10_UP_IRQHandler>

00000a28 <TIM10_TRG_COM_IRQHandler>:
TIM10_TRG_COM_IRQHandler():
C:/ch32/data/CH32V307EVT/EVT/EXAM/SRC/Startup/startup_ch32v30x_D8C.S:327
TIM10_TRG_COM_IRQHandler:  1:  j 1b
     a28:	a001                	j	a28 <TIM10_TRG_COM_IRQHandler>

00000a2a <TIM10_CC_IRQHandler>:
TIM10_CC_IRQHandler():
C:/ch32/data/CH32V307EVT/EVT/EXAM/SRC/Startup/startup_ch32v30x_D8C.S:328
TIM10_CC_IRQHandler:  1:  j 1b
     a2a:	a001                	j	a2a <TIM10_CC_IRQHandler>

00000a2c <DMA2_Channel6_IRQHandler>:
DMA2_Channel6_IRQHandler():
C:/ch32/data/CH32V307EVT/EVT/EXAM/SRC/Startup/startup_ch32v30x_D8C.S:329
DMA2_Channel6_IRQHandler:  1:  j 1b
     a2c:	a001                	j	a2c <DMA2_Channel6_IRQHandler>

00000a2e <DMA2_Channel7_IRQHandler>:
DMA2_Channel7_IRQHandler():
C:/ch32/data/CH32V307EVT/EVT/EXAM/SRC/Startup/startup_ch32v30x_D8C.S:330
DMA2_Channel7_IRQHandler:  1:  j 1b
     a2e:	a001                	j	a2e <DMA2_Channel7_IRQHandler>

00000a30 <DMA2_Channel8_IRQHandler>:
DMA2_Channel8_IRQHandler():
C:/ch32/data/CH32V307EVT/EVT/EXAM/SRC/Startup/startup_ch32v30x_D8C.S:331
DMA2_Channel8_IRQHandler:  1:  j 1b
     a30:	a001                	j	a30 <DMA2_Channel8_IRQHandler>

00000a32 <DMA2_Channel9_IRQHandler>:
DMA2_Channel9_IRQHandler():
C:/ch32/data/CH32V307EVT/EVT/EXAM/SRC/Startup/startup_ch32v30x_D8C.S:332
DMA2_Channel9_IRQHandler:  1:  j 1b
     a32:	a001                	j	a32 <DMA2_Channel9_IRQHandler>

00000a34 <DMA2_Channel10_IRQHandler>:
DMA2_Channel10_IRQHandler():
C:/ch32/data/CH32V307EVT/EVT/EXAM/SRC/Startup/startup_ch32v30x_D8C.S:333
DMA2_Channel10_IRQHandler:  1:  j 1b
     a34:	a001                	j	a34 <DMA2_Channel10_IRQHandler>

00000a36 <DMA2_Channel11_IRQHandler>:
DMA2_Channel11_IRQHandler():
C:/ch32/data/CH32V307EVT/EVT/EXAM/SRC/Startup/startup_ch32v30x_D8C.S:334
DMA2_Channel11_IRQHandler:  1:  j 1b
     a36:	a001                	j	a36 <DMA2_Channel11_IRQHandler>

00000a38 <handle_reset>:
handle_reset():
C:/ch32/data/CH32V307EVT/EVT/EXAM/SRC/Startup/startup_ch32v30x_D8C.S:343
	.weak	handle_reset
	.align	1
handle_reset:
.option push 
.option	norelax 
	la gp, __global_pointer$
     a38:	20000197          	auipc	gp,0x20000
     a3c:	de818193          	addi	gp,gp,-536 # 20000820 <__global_pointer$>
C:/ch32/data/CH32V307EVT/EVT/EXAM/SRC/Startup/startup_ch32v30x_D8C.S:346
.option	pop 
1:
	la sp, _eusrstack 
     a40:	2000f117          	auipc	sp,0x2000f
     a44:	5c010113          	addi	sp,sp,1472 # 20010000 <_eusrstack>
C:/ch32/data/CH32V307EVT/EVT/EXAM/SRC/Startup/startup_ch32v30x_D8C.S:349
2:
	/* Load data section from flash to RAM */
	la a0, _data_lma
     a48:	0000b517          	auipc	a0,0xb
     a4c:	20c50513          	addi	a0,a0,524 # bc54 <_data_lma>
C:/ch32/data/CH32V307EVT/EVT/EXAM/SRC/Startup/startup_ch32v30x_D8C.S:350
	la a1, _data_vma
     a50:	1ffff597          	auipc	a1,0x1ffff
     a54:	5b058593          	addi	a1,a1,1456 # 20000000 <_data_vma>
C:/ch32/data/CH32V307EVT/EVT/EXAM/SRC/Startup/startup_ch32v30x_D8C.S:351
	la a2, _edata
     a58:	85818613          	addi	a2,gp,-1960 # 20000078 <_edata>
C:/ch32/data/CH32V307EVT/EVT/EXAM/SRC/Startup/startup_ch32v30x_D8C.S:352
	bgeu a1, a2, 2f
     a5c:	00c5fa63          	bgeu	a1,a2,a70 <handle_reset+0x38>
C:/ch32/data/CH32V307EVT/EVT/EXAM/SRC/Startup/startup_ch32v30x_D8C.S:354
1:
	lw t0, (a0)
     a60:	00052283          	lw	t0,0(a0)
C:/ch32/data/CH32V307EVT/EVT/EXAM/SRC/Startup/startup_ch32v30x_D8C.S:355
	sw t0, (a1)
     a64:	0055a023          	sw	t0,0(a1)
C:/ch32/data/CH32V307EVT/EVT/EXAM/SRC/Startup/startup_ch32v30x_D8C.S:356
	addi a0, a0, 4
     a68:	0511                	addi	a0,a0,4
C:/ch32/data/CH32V307EVT/EVT/EXAM/SRC/Startup/startup_ch32v30x_D8C.S:357
	addi a1, a1, 4
     a6a:	0591                	addi	a1,a1,4
C:/ch32/data/CH32V307EVT/EVT/EXAM/SRC/Startup/startup_ch32v30x_D8C.S:358
	bltu a1, a2, 1b
     a6c:	fec5eae3          	bltu	a1,a2,a60 <handle_reset+0x28>
C:/ch32/data/CH32V307EVT/EVT/EXAM/SRC/Startup/startup_ch32v30x_D8C.S:361
2:
	/* Clear bss section */
	la a0, _sbss
     a70:	85818513          	addi	a0,gp,-1960 # 20000078 <_edata>
C:/ch32/data/CH32V307EVT/EVT/EXAM/SRC/Startup/startup_ch32v30x_D8C.S:362
	la a1, _ebss
     a74:	20006597          	auipc	a1,0x20006
     a78:	87458593          	addi	a1,a1,-1932 # 200062e8 <_ebss>
C:/ch32/data/CH32V307EVT/EVT/EXAM/SRC/Startup/startup_ch32v30x_D8C.S:363
	bgeu a0, a1, 2f
     a7c:	00b57763          	bgeu	a0,a1,a8a <handle_reset+0x52>
C:/ch32/data/CH32V307EVT/EVT/EXAM/SRC/Startup/startup_ch32v30x_D8C.S:365
1:
	sw zero, (a0)
     a80:	00052023          	sw	zero,0(a0)
C:/ch32/data/CH32V307EVT/EVT/EXAM/SRC/Startup/startup_ch32v30x_D8C.S:366
	addi a0, a0, 4
     a84:	0511                	addi	a0,a0,4
C:/ch32/data/CH32V307EVT/EVT/EXAM/SRC/Startup/startup_ch32v30x_D8C.S:367
	bltu a0, a1, 1b
     a86:	feb56de3          	bltu	a0,a1,a80 <handle_reset+0x48>
C:/ch32/data/CH32V307EVT/EVT/EXAM/SRC/Startup/startup_ch32v30x_D8C.S:369
2:
    li t0, 0x1f
     a8a:	42fd                	li	t0,31
C:/ch32/data/CH32V307EVT/EVT/EXAM/SRC/Startup/startup_ch32v30x_D8C.S:370
    csrw 0xbc0, t0
     a8c:	bc029073          	csrw	0xbc0,t0
C:/ch32/data/CH32V307EVT/EVT/EXAM/SRC/Startup/startup_ch32v30x_D8C.S:373

    /* Enable nested and hardware stack */
	li t0, 0x0b
     a90:	42ad                	li	t0,11
C:/ch32/data/CH32V307EVT/EVT/EXAM/SRC/Startup/startup_ch32v30x_D8C.S:374
	csrw 0x804, t0
     a92:	80429073          	csrw	0x804,t0
C:/ch32/data/CH32V307EVT/EVT/EXAM/SRC/Startup/startup_ch32v30x_D8C.S:377

    /* Enable floating point and interrupt */
   	li t0, 0x6088           
     a96:	000062b7          	lui	t0,0x6
     a9a:	08828293          	addi	t0,t0,136 # 6088 <tcp_receive+0x174>
C:/ch32/data/CH32V307EVT/EVT/EXAM/SRC/Startup/startup_ch32v30x_D8C.S:378
   	csrs mstatus, t0
     a9e:	3002a073          	csrs	mstatus,t0
C:/ch32/data/CH32V307EVT/EVT/EXAM/SRC/Startup/startup_ch32v30x_D8C.S:380

 	la t0, _vector_base
     aa2:	fffff297          	auipc	t0,0xfffff
     aa6:	59628293          	addi	t0,t0,1430 # 38 <_einit>
C:/ch32/data/CH32V307EVT/EVT/EXAM/SRC/Startup/startup_ch32v30x_D8C.S:381
    ori t0, t0, 3           
     aaa:	0032e293          	ori	t0,t0,3
C:/ch32/data/CH32V307EVT/EVT/EXAM/SRC/Startup/startup_ch32v30x_D8C.S:382
	csrw mtvec, t0
     aae:	30529073          	csrw	mtvec,t0
C:/ch32/data/CH32V307EVT/EVT/EXAM/SRC/Startup/startup_ch32v30x_D8C.S:384

    jal  SystemInit
     ab2:	d15ff0ef          	jal	ra,7c6 <SystemInit>
C:/ch32/data/CH32V307EVT/EVT/EXAM/SRC/Startup/startup_ch32v30x_D8C.S:385
	la t0, main
     ab6:	00000297          	auipc	t0,0x0
     aba:	c0628293          	addi	t0,t0,-1018 # 6bc <main>
C:/ch32/data/CH32V307EVT/EVT/EXAM/SRC/Startup/startup_ch32v30x_D8C.S:386
	csrw mepc, t0
     abe:	34129073          	csrw	mepc,t0
C:/ch32/data/CH32V307EVT/EVT/EXAM/SRC/Startup/startup_ch32v30x_D8C.S:387
	mret
     ac2:	30200073          	mret

00000ac6 <DBGMCU_GetCHIPID>:
DBGMCU_GetCHIPID():
C:/ch32/data/CH32V307EVT/EVT/EXAM/SRC/Peripheral/src/ch32v30x_dbgmcu.c:123
 *          CH32V307VCT6-0x307005x8
 */
uint32_t DBGMCU_GetCHIPID( void )
{
    return( *( uint32_t * )0x1FFFF704 );
}
     ac6:	1ffff7b7          	lui	a5,0x1ffff
     aca:	7047a503          	lw	a0,1796(a5) # 1ffff704 <_data_lma+0x1fff3ab0>
     ace:	8082                	ret

00000ad0 <ETH_DeInit>:
ETH_DeInit():
C:/ch32/data/CH32V307EVT/EVT/EXAM/SRC/Peripheral/src/ch32v30x_eth.c:29
 *
 * @return  none
 */
#ifdef CH32V30x_D8C
void ETH_DeInit(void)
{
     ad0:	f60ff2ef          	jal	t0,230 <__riscv_save_0>
C:/ch32/data/CH32V307EVT/EVT/EXAM/SRC/Peripheral/src/ch32v30x_eth.c:30
    RCC_AHBPeriphResetCmd(RCC_AHBPeriph_ETH_MAC, ENABLE);
     ad4:	4585                	li	a1,1
     ad6:	6511                	lui	a0,0x4
     ad8:	2b75                	jal	1094 <RCC_AHBPeriphResetCmd>
C:/ch32/data/CH32V307EVT/EVT/EXAM/SRC/Peripheral/src/ch32v30x_eth.c:31
    RCC_AHBPeriphResetCmd(RCC_AHBPeriph_ETH_MAC, DISABLE);
     ada:	4581                	li	a1,0
     adc:	6511                	lui	a0,0x4
     ade:	2b5d                	jal	1094 <RCC_AHBPeriphResetCmd>
C:/ch32/data/CH32V307EVT/EVT/EXAM/SRC/Peripheral/src/ch32v30x_eth.c:32
}
     ae0:	f74ff06f          	j	254 <__riscv_restore_0>

00000ae4 <ETH_StructInit>:
ETH_StructInit():
C:/ch32/data/CH32V307EVT/EVT/EXAM/SRC/Peripheral/src/ch32v30x_eth.c:65
    ETH_InitStruct->ETH_AutomaticPadCRCStrip = ETH_AutomaticPadCRCStrip_Disable;
    ETH_InitStruct->ETH_BackOffLimit = ETH_BackOffLimit_10;
    ETH_InitStruct->ETH_DeferralCheck = ETH_DeferralCheck_Disable;
    ETH_InitStruct->ETH_ReceiveAll = ETH_ReceiveAll_Disable;
    ETH_InitStruct->ETH_SourceAddrFilter = ETH_SourceAddrFilter_Disable;
    ETH_InitStruct->ETH_PassControlFrames = ETH_PassControlFrames_BlockAll;
     ae4:	04000793          	li	a5,64
     ae8:	c13c                	sw	a5,64(a0)
C:/ch32/data/CH32V307EVT/EVT/EXAM/SRC/Peripheral/src/ch32v30x_eth.c:66
    ETH_InitStruct->ETH_BroadcastFramesReception = ETH_BroadcastFramesReception_Disable;
     aea:	02000793          	li	a5,32
     aee:	c17c                	sw	a5,68(a0)
C:/ch32/data/CH32V307EVT/EVT/EXAM/SRC/Peripheral/src/ch32v30x_eth.c:74
    ETH_InitStruct->ETH_MulticastFramesFilter = ETH_MulticastFramesFilter_Perfect;
    ETH_InitStruct->ETH_UnicastFramesFilter = ETH_UnicastFramesFilter_Perfect;
    ETH_InitStruct->ETH_HashTableHigh = 0x0;
    ETH_InitStruct->ETH_HashTableLow = 0x0;
    ETH_InitStruct->ETH_PauseTime = 0x0;
    ETH_InitStruct->ETH_ZeroQuantaPause = ETH_ZeroQuantaPause_Disable;
     af0:	08000793          	li	a5,128
     af4:	d17c                	sw	a5,100(a0)
C:/ch32/data/CH32V307EVT/EVT/EXAM/SRC/Peripheral/src/ch32v30x_eth.c:49
    ETH_InitStruct->ETH_AutoNegotiation = ETH_AutoNegotiation_Disable;
     af6:	00052023          	sw	zero,0(a0) # 4000 <ip_output_if+0x11a>
C:/ch32/data/CH32V307EVT/EVT/EXAM/SRC/Peripheral/src/ch32v30x_eth.c:82
    ETH_InitStruct->ETH_ReceiveFlowControl = ETH_ReceiveFlowControl_Disable;
    ETH_InitStruct->ETH_TransmitFlowControl = ETH_TransmitFlowControl_Disable;
    ETH_InitStruct->ETH_VLANTagComparison = ETH_VLANTagComparison_16Bit;
    ETH_InitStruct->ETH_VLANTagIdentifier = 0x0;
    /*------------------------   DMA   -----------------------------------*/
    ETH_InitStruct->ETH_DropTCPIPChecksumErrorFrame = ETH_DropTCPIPChecksumErrorFrame_Disable;
     afa:	040007b7          	lui	a5,0x4000
C:/ch32/data/CH32V307EVT/EVT/EXAM/SRC/Peripheral/src/ch32v30x_eth.c:50
    ETH_InitStruct->ETH_Watchdog = ETH_Watchdog_Enable;
     afe:	00052223          	sw	zero,4(a0)
C:/ch32/data/CH32V307EVT/EVT/EXAM/SRC/Peripheral/src/ch32v30x_eth.c:51
    ETH_InitStruct->ETH_Jabber = ETH_Jabber_Enable;
     b02:	00052423          	sw	zero,8(a0)
C:/ch32/data/CH32V307EVT/EVT/EXAM/SRC/Peripheral/src/ch32v30x_eth.c:52
    ETH_InitStruct->ETH_InterFrameGap = ETH_InterFrameGap_96Bit;
     b06:	00052623          	sw	zero,12(a0)
C:/ch32/data/CH32V307EVT/EVT/EXAM/SRC/Peripheral/src/ch32v30x_eth.c:53
    ETH_InitStruct->ETH_CarrierSense = ETH_CarrierSense_Enable;
     b0a:	00052823          	sw	zero,16(a0)
C:/ch32/data/CH32V307EVT/EVT/EXAM/SRC/Peripheral/src/ch32v30x_eth.c:54
    ETH_InitStruct->ETH_Speed = ETH_Speed_10M;
     b0e:	00052a23          	sw	zero,20(a0)
C:/ch32/data/CH32V307EVT/EVT/EXAM/SRC/Peripheral/src/ch32v30x_eth.c:55
    ETH_InitStruct->ETH_ReceiveOwn = ETH_ReceiveOwn_Enable;
     b12:	00052c23          	sw	zero,24(a0)
C:/ch32/data/CH32V307EVT/EVT/EXAM/SRC/Peripheral/src/ch32v30x_eth.c:56
    ETH_InitStruct->ETH_LoopbackMode = ETH_LoopbackMode_Disable;
     b16:	00052e23          	sw	zero,28(a0)
C:/ch32/data/CH32V307EVT/EVT/EXAM/SRC/Peripheral/src/ch32v30x_eth.c:57
    ETH_InitStruct->ETH_Mode = ETH_Mode_HalfDuplex;
     b1a:	02052023          	sw	zero,32(a0)
C:/ch32/data/CH32V307EVT/EVT/EXAM/SRC/Peripheral/src/ch32v30x_eth.c:58
    ETH_InitStruct->ETH_ChecksumOffload = ETH_ChecksumOffload_Disable;
     b1e:	02052223          	sw	zero,36(a0)
C:/ch32/data/CH32V307EVT/EVT/EXAM/SRC/Peripheral/src/ch32v30x_eth.c:59
    ETH_InitStruct->ETH_RetryTransmission = ETH_RetryTransmission_Enable;
     b22:	02052423          	sw	zero,40(a0)
C:/ch32/data/CH32V307EVT/EVT/EXAM/SRC/Peripheral/src/ch32v30x_eth.c:60
    ETH_InitStruct->ETH_AutomaticPadCRCStrip = ETH_AutomaticPadCRCStrip_Disable;
     b26:	02052623          	sw	zero,44(a0)
C:/ch32/data/CH32V307EVT/EVT/EXAM/SRC/Peripheral/src/ch32v30x_eth.c:61
    ETH_InitStruct->ETH_BackOffLimit = ETH_BackOffLimit_10;
     b2a:	02052823          	sw	zero,48(a0)
C:/ch32/data/CH32V307EVT/EVT/EXAM/SRC/Peripheral/src/ch32v30x_eth.c:62
    ETH_InitStruct->ETH_DeferralCheck = ETH_DeferralCheck_Disable;
     b2e:	02052a23          	sw	zero,52(a0)
C:/ch32/data/CH32V307EVT/EVT/EXAM/SRC/Peripheral/src/ch32v30x_eth.c:63
    ETH_InitStruct->ETH_ReceiveAll = ETH_ReceiveAll_Disable;
     b32:	02052c23          	sw	zero,56(a0)
C:/ch32/data/CH32V307EVT/EVT/EXAM/SRC/Peripheral/src/ch32v30x_eth.c:64
    ETH_InitStruct->ETH_SourceAddrFilter = ETH_SourceAddrFilter_Disable;
     b36:	02052e23          	sw	zero,60(a0)
C:/ch32/data/CH32V307EVT/EVT/EXAM/SRC/Peripheral/src/ch32v30x_eth.c:67
    ETH_InitStruct->ETH_DestinationAddrFilter = ETH_DestinationAddrFilter_Normal;
     b3a:	04052423          	sw	zero,72(a0)
C:/ch32/data/CH32V307EVT/EVT/EXAM/SRC/Peripheral/src/ch32v30x_eth.c:68
    ETH_InitStruct->ETH_PromiscuousMode = ETH_PromiscuousMode_Disable;
     b3e:	04052623          	sw	zero,76(a0)
C:/ch32/data/CH32V307EVT/EVT/EXAM/SRC/Peripheral/src/ch32v30x_eth.c:69
    ETH_InitStruct->ETH_MulticastFramesFilter = ETH_MulticastFramesFilter_Perfect;
     b42:	04052823          	sw	zero,80(a0)
C:/ch32/data/CH32V307EVT/EVT/EXAM/SRC/Peripheral/src/ch32v30x_eth.c:70
    ETH_InitStruct->ETH_UnicastFramesFilter = ETH_UnicastFramesFilter_Perfect;
     b46:	04052a23          	sw	zero,84(a0)
C:/ch32/data/CH32V307EVT/EVT/EXAM/SRC/Peripheral/src/ch32v30x_eth.c:71
    ETH_InitStruct->ETH_HashTableHigh = 0x0;
     b4a:	04052c23          	sw	zero,88(a0)
C:/ch32/data/CH32V307EVT/EVT/EXAM/SRC/Peripheral/src/ch32v30x_eth.c:72
    ETH_InitStruct->ETH_HashTableLow = 0x0;
     b4e:	04052e23          	sw	zero,92(a0)
C:/ch32/data/CH32V307EVT/EVT/EXAM/SRC/Peripheral/src/ch32v30x_eth.c:73
    ETH_InitStruct->ETH_PauseTime = 0x0;
     b52:	06052023          	sw	zero,96(a0)
C:/ch32/data/CH32V307EVT/EVT/EXAM/SRC/Peripheral/src/ch32v30x_eth.c:75
    ETH_InitStruct->ETH_PauseLowThreshold = ETH_PauseLowThreshold_Minus4;
     b56:	06052423          	sw	zero,104(a0)
C:/ch32/data/CH32V307EVT/EVT/EXAM/SRC/Peripheral/src/ch32v30x_eth.c:76
    ETH_InitStruct->ETH_UnicastPauseFrameDetect = ETH_UnicastPauseFrameDetect_Disable;
     b5a:	06052623          	sw	zero,108(a0)
C:/ch32/data/CH32V307EVT/EVT/EXAM/SRC/Peripheral/src/ch32v30x_eth.c:77
    ETH_InitStruct->ETH_ReceiveFlowControl = ETH_ReceiveFlowControl_Disable;
     b5e:	06052823          	sw	zero,112(a0)
C:/ch32/data/CH32V307EVT/EVT/EXAM/SRC/Peripheral/src/ch32v30x_eth.c:78
    ETH_InitStruct->ETH_TransmitFlowControl = ETH_TransmitFlowControl_Disable;
     b62:	06052a23          	sw	zero,116(a0)
C:/ch32/data/CH32V307EVT/EVT/EXAM/SRC/Peripheral/src/ch32v30x_eth.c:79
    ETH_InitStruct->ETH_VLANTagComparison = ETH_VLANTagComparison_16Bit;
     b66:	06052c23          	sw	zero,120(a0)
C:/ch32/data/CH32V307EVT/EVT/EXAM/SRC/Peripheral/src/ch32v30x_eth.c:80
    ETH_InitStruct->ETH_VLANTagIdentifier = 0x0;
     b6a:	06052e23          	sw	zero,124(a0)
C:/ch32/data/CH32V307EVT/EVT/EXAM/SRC/Peripheral/src/ch32v30x_eth.c:82
    ETH_InitStruct->ETH_DropTCPIPChecksumErrorFrame = ETH_DropTCPIPChecksumErrorFrame_Disable;
     b6e:	08f52023          	sw	a5,128(a0)
C:/ch32/data/CH32V307EVT/EVT/EXAM/SRC/Peripheral/src/ch32v30x_eth.c:83
    ETH_InitStruct->ETH_ReceiveStoreForward = ETH_ReceiveStoreForward_Enable;
     b72:	020007b7          	lui	a5,0x2000
     b76:	08f52223          	sw	a5,132(a0)
C:/ch32/data/CH32V307EVT/EVT/EXAM/SRC/Peripheral/src/ch32v30x_eth.c:91
    ETH_InitStruct->ETH_TransmitThresholdControl = ETH_TransmitThresholdControl_64Bytes;
    ETH_InitStruct->ETH_ForwardErrorFrames = ETH_ForwardErrorFrames_Disable;
    ETH_InitStruct->ETH_ForwardUndersizedGoodFrames = ETH_ForwardUndersizedGoodFrames_Disable;
    ETH_InitStruct->ETH_ReceiveThresholdControl = ETH_ReceiveThresholdControl_64Bytes;
    ETH_InitStruct->ETH_SecondFrameOperate = ETH_SecondFrameOperate_Disable;
    ETH_InitStruct->ETH_AddressAlignedBeats = ETH_AddressAlignedBeats_Enable;
     b7a:	0af52223          	sw	a5,164(a0)
C:/ch32/data/CH32V307EVT/EVT/EXAM/SRC/Peripheral/src/ch32v30x_eth.c:93
    ETH_InitStruct->ETH_FixedBurst = ETH_FixedBurst_Disable;
    ETH_InitStruct->ETH_RxDMABurstLength = ETH_RxDMABurstLength_1Beat;
     b7e:	000207b7          	lui	a5,0x20
C:/ch32/data/CH32V307EVT/EVT/EXAM/SRC/Peripheral/src/ch32v30x_eth.c:85
    ETH_InitStruct->ETH_TransmitStoreForward = ETH_TransmitStoreForward_Enable;
     b82:	00200737          	lui	a4,0x200
C:/ch32/data/CH32V307EVT/EVT/EXAM/SRC/Peripheral/src/ch32v30x_eth.c:93
    ETH_InitStruct->ETH_RxDMABurstLength = ETH_RxDMABurstLength_1Beat;
     b86:	0af52623          	sw	a5,172(a0)
C:/ch32/data/CH32V307EVT/EVT/EXAM/SRC/Peripheral/src/ch32v30x_eth.c:94
    ETH_InitStruct->ETH_TxDMABurstLength = ETH_TxDMABurstLength_1Beat;
     b8a:	10000793          	li	a5,256
C:/ch32/data/CH32V307EVT/EVT/EXAM/SRC/Peripheral/src/ch32v30x_eth.c:84
    ETH_InitStruct->ETH_FlushReceivedFrame = ETH_FlushReceivedFrame_Enable;
     b8e:	08052423          	sw	zero,136(a0)
C:/ch32/data/CH32V307EVT/EVT/EXAM/SRC/Peripheral/src/ch32v30x_eth.c:85
    ETH_InitStruct->ETH_TransmitStoreForward = ETH_TransmitStoreForward_Enable;
     b92:	08e52623          	sw	a4,140(a0)
C:/ch32/data/CH32V307EVT/EVT/EXAM/SRC/Peripheral/src/ch32v30x_eth.c:86
    ETH_InitStruct->ETH_TransmitThresholdControl = ETH_TransmitThresholdControl_64Bytes;
     b96:	08052823          	sw	zero,144(a0)
C:/ch32/data/CH32V307EVT/EVT/EXAM/SRC/Peripheral/src/ch32v30x_eth.c:87
    ETH_InitStruct->ETH_ForwardErrorFrames = ETH_ForwardErrorFrames_Disable;
     b9a:	08052a23          	sw	zero,148(a0)
C:/ch32/data/CH32V307EVT/EVT/EXAM/SRC/Peripheral/src/ch32v30x_eth.c:88
    ETH_InitStruct->ETH_ForwardUndersizedGoodFrames = ETH_ForwardUndersizedGoodFrames_Disable;
     b9e:	08052c23          	sw	zero,152(a0)
C:/ch32/data/CH32V307EVT/EVT/EXAM/SRC/Peripheral/src/ch32v30x_eth.c:89
    ETH_InitStruct->ETH_ReceiveThresholdControl = ETH_ReceiveThresholdControl_64Bytes;
     ba2:	08052e23          	sw	zero,156(a0)
C:/ch32/data/CH32V307EVT/EVT/EXAM/SRC/Peripheral/src/ch32v30x_eth.c:90
    ETH_InitStruct->ETH_SecondFrameOperate = ETH_SecondFrameOperate_Disable;
     ba6:	0a052023          	sw	zero,160(a0)
C:/ch32/data/CH32V307EVT/EVT/EXAM/SRC/Peripheral/src/ch32v30x_eth.c:92
    ETH_InitStruct->ETH_FixedBurst = ETH_FixedBurst_Disable;
     baa:	0a052423          	sw	zero,168(a0)
C:/ch32/data/CH32V307EVT/EVT/EXAM/SRC/Peripheral/src/ch32v30x_eth.c:94
    ETH_InitStruct->ETH_TxDMABurstLength = ETH_TxDMABurstLength_1Beat;
     bae:	0af52823          	sw	a5,176(a0)
C:/ch32/data/CH32V307EVT/EVT/EXAM/SRC/Peripheral/src/ch32v30x_eth.c:95
    ETH_InitStruct->ETH_DescriptorSkipLength = 0x0;
     bb2:	0a052a23          	sw	zero,180(a0)
C:/ch32/data/CH32V307EVT/EVT/EXAM/SRC/Peripheral/src/ch32v30x_eth.c:96
    ETH_InitStruct->ETH_DMAArbitration = ETH_DMAArbitration_RoundRobin_RxTx_1_1;
     bb6:	0a052c23          	sw	zero,184(a0)
C:/ch32/data/CH32V307EVT/EVT/EXAM/SRC/Peripheral/src/ch32v30x_eth.c:97
}
     bba:	8082                	ret

00000bbc <ETH_ReadPHYRegister>:
ETH_ReadPHYRegister():
C:/ch32/data/CH32V307EVT/EVT/EXAM/SRC/Peripheral/src/ch32v30x_eth.c:292
 *
 * @return  ETH_ERROR - in case of timeout.
 *          MAC MIIDR register value - Data read from the selected PHY register.
 */
uint16_t ETH_ReadPHYRegister(uint16_t PHYAddress, uint16_t PHYReg)
{
     bbc:	1141                	addi	sp,sp,-16
C:/ch32/data/CH32V307EVT/EVT/EXAM/SRC/Peripheral/src/ch32v30x_eth.c:294
    uint32_t      tmpreg = 0;
    __IO uint32_t timeout = 0;
     bbe:	c602                	sw	zero,12(sp)
C:/ch32/data/CH32V307EVT/EVT/EXAM/SRC/Peripheral/src/ch32v30x_eth.c:296

    tmpreg = ETH->MACMIIAR;
     bc0:	400286b7          	lui	a3,0x40028
     bc4:	4a9c                	lw	a5,16(a3)
C:/ch32/data/CH32V307EVT/EVT/EXAM/SRC/Peripheral/src/ch32v30x_eth.c:298
    tmpreg &= ~MACMIIAR_CR_MASK;
    tmpreg |= (((uint32_t)PHYAddress << 11) & ETH_MACMIIAR_PA);
     bc6:	6741                	lui	a4,0x10
     bc8:	052e                	slli	a0,a0,0xb
     bca:	177d                	addi	a4,a4,-1
C:/ch32/data/CH32V307EVT/EVT/EXAM/SRC/Peripheral/src/ch32v30x_eth.c:297
    tmpreg &= ~MACMIIAR_CR_MASK;
     bcc:	8bf1                	andi	a5,a5,28
C:/ch32/data/CH32V307EVT/EVT/EXAM/SRC/Peripheral/src/ch32v30x_eth.c:298
    tmpreg |= (((uint32_t)PHYAddress << 11) & ETH_MACMIIAR_PA);
     bce:	8d79                	and	a0,a0,a4
C:/ch32/data/CH32V307EVT/EVT/EXAM/SRC/Peripheral/src/ch32v30x_eth.c:299
    tmpreg |= (((uint32_t)PHYReg << 6) & ETH_MACMIIAR_MR);
     bd0:	059a                	slli	a1,a1,0x6
C:/ch32/data/CH32V307EVT/EVT/EXAM/SRC/Peripheral/src/ch32v30x_eth.c:298
    tmpreg |= (((uint32_t)PHYAddress << 11) & ETH_MACMIIAR_PA);
     bd2:	8d5d                	or	a0,a0,a5
C:/ch32/data/CH32V307EVT/EVT/EXAM/SRC/Peripheral/src/ch32v30x_eth.c:299
    tmpreg |= (((uint32_t)PHYReg << 6) & ETH_MACMIIAR_MR);
     bd4:	7c05f593          	andi	a1,a1,1984
     bd8:	8dc9                	or	a1,a1,a0
C:/ch32/data/CH32V307EVT/EVT/EXAM/SRC/Peripheral/src/ch32v30x_eth.c:301
    tmpreg &= ~ETH_MACMIIAR_MW;
    tmpreg |= ETH_MACMIIAR_MB;
     bda:	0015e593          	ori	a1,a1,1
C:/ch32/data/CH32V307EVT/EVT/EXAM/SRC/Peripheral/src/ch32v30x_eth.c:308

    do
    {
        timeout++;
        tmpreg = ETH->MACMIIAR;
    } while((tmpreg & ETH_MACMIIAR_MB) && (timeout < (uint32_t)PHY_READ_TO));
     bde:	005007b7          	lui	a5,0x500
C:/ch32/data/CH32V307EVT/EVT/EXAM/SRC/Peripheral/src/ch32v30x_eth.c:302
    ETH->MACMIIAR = tmpreg;
     be2:	ca8c                	sw	a1,16(a3)
C:/ch32/data/CH32V307EVT/EVT/EXAM/SRC/Peripheral/src/ch32v30x_eth.c:308
    } while((tmpreg & ETH_MACMIIAR_MB) && (timeout < (uint32_t)PHY_READ_TO));
     be4:	17f9                	addi	a5,a5,-2
C:/ch32/data/CH32V307EVT/EVT/EXAM/SRC/Peripheral/src/ch32v30x_eth.c:306 (discriminator 2)
        timeout++;
     be6:	4732                	lw	a4,12(sp)
     be8:	0705                	addi	a4,a4,1
     bea:	c63a                	sw	a4,12(sp)
C:/ch32/data/CH32V307EVT/EVT/EXAM/SRC/Peripheral/src/ch32v30x_eth.c:307 (discriminator 2)
        tmpreg = ETH->MACMIIAR;
     bec:	4a98                	lw	a4,16(a3)
C:/ch32/data/CH32V307EVT/EVT/EXAM/SRC/Peripheral/src/ch32v30x_eth.c:308 (discriminator 2)
    } while((tmpreg & ETH_MACMIIAR_MB) && (timeout < (uint32_t)PHY_READ_TO));
     bee:	8b05                	andi	a4,a4,1
     bf0:	c701                	beqz	a4,bf8 <ETH_ReadPHYRegister+0x3c>
C:/ch32/data/CH32V307EVT/EVT/EXAM/SRC/Peripheral/src/ch32v30x_eth.c:308 (discriminator 1)
     bf2:	4732                	lw	a4,12(sp)
     bf4:	fee7f9e3          	bgeu	a5,a4,be6 <ETH_ReadPHYRegister+0x2a>
C:/ch32/data/CH32V307EVT/EVT/EXAM/SRC/Peripheral/src/ch32v30x_eth.c:310

    if(timeout == PHY_READ_TO)
     bf8:	4732                	lw	a4,12(sp)
     bfa:	005007b7          	lui	a5,0x500
     bfe:	17fd                	addi	a5,a5,-1
C:/ch32/data/CH32V307EVT/EVT/EXAM/SRC/Peripheral/src/ch32v30x_eth.c:312
    {
        return (uint16_t)ETH_ERROR;
     c00:	4501                	li	a0,0
C:/ch32/data/CH32V307EVT/EVT/EXAM/SRC/Peripheral/src/ch32v30x_eth.c:310
    if(timeout == PHY_READ_TO)
     c02:	00f70763          	beq	a4,a5,c10 <ETH_ReadPHYRegister+0x54>
C:/ch32/data/CH32V307EVT/EVT/EXAM/SRC/Peripheral/src/ch32v30x_eth.c:315
    }

    return (uint16_t)(ETH->MACMIIDR);
     c06:	400287b7          	lui	a5,0x40028
     c0a:	4bc8                	lw	a0,20(a5)
     c0c:	0542                	slli	a0,a0,0x10
     c0e:	8141                	srli	a0,a0,0x10
C:/ch32/data/CH32V307EVT/EVT/EXAM/SRC/Peripheral/src/ch32v30x_eth.c:316
}
     c10:	0141                	addi	sp,sp,16
     c12:	8082                	ret

00000c14 <ETH_WritePHYRegister>:
ETH_WritePHYRegister():
C:/ch32/data/CH32V307EVT/EVT/EXAM/SRC/Peripheral/src/ch32v30x_eth.c:331
 *
 * @return  ETH_ERROR - in case of timeout.
 *          ETH_SUCCESS - for correct write
 */
uint32_t ETH_WritePHYRegister(uint16_t PHYAddress, uint16_t PHYReg, uint16_t PHYValue)
{
     c14:	1141                	addi	sp,sp,-16
C:/ch32/data/CH32V307EVT/EVT/EXAM/SRC/Peripheral/src/ch32v30x_eth.c:335
    uint32_t      tmpreg = 0;
    __IO uint32_t timeout = 0;

    tmpreg = ETH->MACMIIAR;
     c16:	400287b7          	lui	a5,0x40028
C:/ch32/data/CH32V307EVT/EVT/EXAM/SRC/Peripheral/src/ch32v30x_eth.c:333
    __IO uint32_t timeout = 0;
     c1a:	c602                	sw	zero,12(sp)
C:/ch32/data/CH32V307EVT/EVT/EXAM/SRC/Peripheral/src/ch32v30x_eth.c:335
    tmpreg = ETH->MACMIIAR;
     c1c:	4b98                	lw	a4,16(a5)
C:/ch32/data/CH32V307EVT/EVT/EXAM/SRC/Peripheral/src/ch32v30x_eth.c:337
    tmpreg &= ~MACMIIAR_CR_MASK;
    tmpreg |= (((uint32_t)PHYAddress << 11) & ETH_MACMIIAR_PA);
     c1e:	66c1                	lui	a3,0x10
     c20:	16fd                	addi	a3,a3,-1
     c22:	052e                	slli	a0,a0,0xb
     c24:	8d75                	and	a0,a0,a3
C:/ch32/data/CH32V307EVT/EVT/EXAM/SRC/Peripheral/src/ch32v30x_eth.c:336
    tmpreg &= ~MACMIIAR_CR_MASK;
     c26:	8b71                	andi	a4,a4,28
C:/ch32/data/CH32V307EVT/EVT/EXAM/SRC/Peripheral/src/ch32v30x_eth.c:338
    tmpreg |= (((uint32_t)PHYReg << 6) & ETH_MACMIIAR_MR);
     c28:	059a                	slli	a1,a1,0x6
C:/ch32/data/CH32V307EVT/EVT/EXAM/SRC/Peripheral/src/ch32v30x_eth.c:337
    tmpreg |= (((uint32_t)PHYAddress << 11) & ETH_MACMIIAR_PA);
     c2a:	8d59                	or	a0,a0,a4
C:/ch32/data/CH32V307EVT/EVT/EXAM/SRC/Peripheral/src/ch32v30x_eth.c:338
    tmpreg |= (((uint32_t)PHYReg << 6) & ETH_MACMIIAR_MR);
     c2c:	7c05f593          	andi	a1,a1,1984
     c30:	8dc9                	or	a1,a1,a0
C:/ch32/data/CH32V307EVT/EVT/EXAM/SRC/Peripheral/src/ch32v30x_eth.c:341
    tmpreg |= ETH_MACMIIAR_MW;
    tmpreg |= ETH_MACMIIAR_MB;
    ETH->MACMIIDR = PHYValue;
     c32:	cbd0                	sw	a2,20(a5)
C:/ch32/data/CH32V307EVT/EVT/EXAM/SRC/Peripheral/src/ch32v30x_eth.c:340
    tmpreg |= ETH_MACMIIAR_MB;
     c34:	0035e593          	ori	a1,a1,3
C:/ch32/data/CH32V307EVT/EVT/EXAM/SRC/Peripheral/src/ch32v30x_eth.c:342
    ETH->MACMIIAR = tmpreg;
     c38:	cb8c                	sw	a1,16(a5)
C:/ch32/data/CH32V307EVT/EVT/EXAM/SRC/Peripheral/src/ch32v30x_eth.c:348

    do
    {
        timeout++;
        tmpreg = ETH->MACMIIAR;
    } while((tmpreg & ETH_MACMIIAR_MB) && (timeout < (uint32_t)PHY_WRITE_TO));
     c3a:	000507b7          	lui	a5,0x50
C:/ch32/data/CH32V307EVT/EVT/EXAM/SRC/Peripheral/src/ch32v30x_eth.c:347
        tmpreg = ETH->MACMIIAR;
     c3e:	400286b7          	lui	a3,0x40028
C:/ch32/data/CH32V307EVT/EVT/EXAM/SRC/Peripheral/src/ch32v30x_eth.c:348
    } while((tmpreg & ETH_MACMIIAR_MB) && (timeout < (uint32_t)PHY_WRITE_TO));
     c42:	17f9                	addi	a5,a5,-2
C:/ch32/data/CH32V307EVT/EVT/EXAM/SRC/Peripheral/src/ch32v30x_eth.c:346 (discriminator 2)
        timeout++;
     c44:	4732                	lw	a4,12(sp)
     c46:	0705                	addi	a4,a4,1
     c48:	c63a                	sw	a4,12(sp)
C:/ch32/data/CH32V307EVT/EVT/EXAM/SRC/Peripheral/src/ch32v30x_eth.c:347 (discriminator 2)
        tmpreg = ETH->MACMIIAR;
     c4a:	4a98                	lw	a4,16(a3)
C:/ch32/data/CH32V307EVT/EVT/EXAM/SRC/Peripheral/src/ch32v30x_eth.c:348 (discriminator 2)
    } while((tmpreg & ETH_MACMIIAR_MB) && (timeout < (uint32_t)PHY_WRITE_TO));
     c4c:	8b05                	andi	a4,a4,1
     c4e:	c701                	beqz	a4,c56 <ETH_WritePHYRegister+0x42>
C:/ch32/data/CH32V307EVT/EVT/EXAM/SRC/Peripheral/src/ch32v30x_eth.c:348 (discriminator 1)
     c50:	4732                	lw	a4,12(sp)
     c52:	fee7f9e3          	bgeu	a5,a4,c44 <ETH_WritePHYRegister+0x30>
C:/ch32/data/CH32V307EVT/EVT/EXAM/SRC/Peripheral/src/ch32v30x_eth.c:350

    if(timeout >= PHY_WRITE_TO)
     c56:	4532                	lw	a0,12(sp)
C:/ch32/data/CH32V307EVT/EVT/EXAM/SRC/Peripheral/src/ch32v30x_eth.c:356
    {
        return ETH_ERROR;
    }

    return ETH_SUCCESS;
}
     c58:	000507b7          	lui	a5,0x50
     c5c:	17fd                	addi	a5,a5,-1
     c5e:	00f53533          	sltu	a0,a0,a5
     c62:	0141                	addi	sp,sp,16
     c64:	8082                	ret

00000c66 <ETH_DMATxDescChainInit>:
ETH_DMATxDescChainInit():
C:/ch32/data/CH32V307EVT/EVT/EXAM/SRC/Peripheral/src/ch32v30x_eth.c:712
void ETH_DMATxDescChainInit(ETH_DMADESCTypeDef *DMATxDescTab, uint8_t *TxBuff, uint32_t TxBuffCount)
{
    uint32_t            i = 0;
    ETH_DMADESCTypeDef *DMATxDesc;

    DMATxDescToSet = DMATxDescTab;
     c66:	86a1a423          	sw	a0,-1944(gp) # 20000088 <DMATxDescToSet>
C:/ch32/data/CH32V307EVT/EVT/EXAM/SRC/Peripheral/src/ch32v30x_eth.c:714

    for(i = 0; i < TxBuffCount; i++)
     c6a:	872a                	mv	a4,a0
     c6c:	4781                	li	a5,0
C:/ch32/data/CH32V307EVT/EVT/EXAM/SRC/Peripheral/src/ch32v30x_eth.c:717
    {
        DMATxDesc = DMATxDescTab + i;
        DMATxDesc->Status = ETH_DMATxDesc_TCH | ETH_DMATxDesc_IC;
     c6e:	401008b7          	lui	a7,0x40100
C:/ch32/data/CH32V307EVT/EVT/EXAM/SRC/Peripheral/src/ch32v30x_eth.c:718
        DMATxDesc->Buffer1Addr = (uint32_t)(&TxBuff[i * ETH_MAX_PACKET_SIZE]);
     c72:	60000313          	li	t1,1536
C:/ch32/data/CH32V307EVT/EVT/EXAM/SRC/Peripheral/src/ch32v30x_eth.c:720

        if(i < (TxBuffCount - 1))
     c76:	fff60e13          	addi	t3,a2,-1
C:/ch32/data/CH32V307EVT/EVT/EXAM/SRC/Peripheral/src/ch32v30x_eth.c:714 (discriminator 1)
    for(i = 0; i < TxBuffCount; i++)
     c7a:	00c79663          	bne	a5,a2,c86 <ETH_DMATxDescChainInit+0x20>
C:/ch32/data/CH32V307EVT/EVT/EXAM/SRC/Peripheral/src/ch32v30x_eth.c:730
        {
            DMATxDesc->Buffer2NextDescAddr = (uint32_t)DMATxDescTab;
        }
    }

    ETH->DMATDLAR = (uint32_t)DMATxDescTab;
     c7e:	400297b7          	lui	a5,0x40029
     c82:	cb88                	sw	a0,16(a5)
C:/ch32/data/CH32V307EVT/EVT/EXAM/SRC/Peripheral/src/ch32v30x_eth.c:731
}
     c84:	8082                	ret
C:/ch32/data/CH32V307EVT/EVT/EXAM/SRC/Peripheral/src/ch32v30x_eth.c:718
        DMATxDesc->Buffer1Addr = (uint32_t)(&TxBuff[i * ETH_MAX_PACKET_SIZE]);
     c86:	026786b3          	mul	a3,a5,t1
C:/ch32/data/CH32V307EVT/EVT/EXAM/SRC/Peripheral/src/ch32v30x_eth.c:717
        DMATxDesc->Status = ETH_DMATxDesc_TCH | ETH_DMATxDesc_IC;
     c8a:	01172023          	sw	a7,0(a4) # 10000 <_data_lma+0x43ac>
C:/ch32/data/CH32V307EVT/EVT/EXAM/SRC/Peripheral/src/ch32v30x_eth.c:718
        DMATxDesc->Buffer1Addr = (uint32_t)(&TxBuff[i * ETH_MAX_PACKET_SIZE]);
     c8e:	882a                	mv	a6,a0
     c90:	96ae                	add	a3,a3,a1
     c92:	c714                	sw	a3,8(a4)
C:/ch32/data/CH32V307EVT/EVT/EXAM/SRC/Peripheral/src/ch32v30x_eth.c:720
        if(i < (TxBuffCount - 1))
     c94:	01070693          	addi	a3,a4,16
     c98:	01c7f363          	bgeu	a5,t3,c9e <ETH_DMATxDescChainInit+0x38>
C:/ch32/data/CH32V307EVT/EVT/EXAM/SRC/Peripheral/src/ch32v30x_eth.c:722
            DMATxDesc->Buffer2NextDescAddr = (uint32_t)(DMATxDescTab + i + 1);
     c9c:	8836                	mv	a6,a3
     c9e:	01072623          	sw	a6,12(a4)
     ca2:	0785                	addi	a5,a5,1
     ca4:	8736                	mv	a4,a3
     ca6:	bfd1                	j	c7a <ETH_DMATxDescChainInit+0x14>

00000ca8 <ETH_DMARxDescChainInit>:
ETH_DMARxDescChainInit():
C:/ch32/data/CH32V307EVT/EVT/EXAM/SRC/Peripheral/src/ch32v30x_eth.c:1046

    for(i = 0; i < RxBuffCount; i++)
    {
        DMARxDesc = DMARxDescTab + i;
        DMARxDesc->Status = ETH_DMARxDesc_OWN;
        DMARxDesc->ControlBufferSize = ETH_DMARxDesc_RCH | (uint32_t)ETH_MAX_PACKET_SIZE;
     ca8:	6691                	lui	a3,0x4
C:/ch32/data/CH32V307EVT/EVT/EXAM/SRC/Peripheral/src/ch32v30x_eth.c:1040
    DMARxDescToGet = DMARxDescTab;
     caa:	86a1a223          	sw	a0,-1948(gp) # 20000084 <DMARxDescToGet>
C:/ch32/data/CH32V307EVT/EVT/EXAM/SRC/Peripheral/src/ch32v30x_eth.c:1042
    for(i = 0; i < RxBuffCount; i++)
     cae:	4701                	li	a4,0
     cb0:	87aa                	mv	a5,a0
C:/ch32/data/CH32V307EVT/EVT/EXAM/SRC/Peripheral/src/ch32v30x_eth.c:1045
        DMARxDesc->Status = ETH_DMARxDesc_OWN;
     cb2:	80000337          	lui	t1,0x80000
C:/ch32/data/CH32V307EVT/EVT/EXAM/SRC/Peripheral/src/ch32v30x_eth.c:1046
        DMARxDesc->ControlBufferSize = ETH_DMARxDesc_RCH | (uint32_t)ETH_MAX_PACKET_SIZE;
     cb6:	60068693          	addi	a3,a3,1536 # 4600 <ip_frag+0x7e>
C:/ch32/data/CH32V307EVT/EVT/EXAM/SRC/Peripheral/src/ch32v30x_eth.c:1047
        DMARxDesc->Buffer1Addr = (uint32_t)(&RxBuff[i * ETH_MAX_PACKET_SIZE]);
     cba:	60000e13          	li	t3,1536
C:/ch32/data/CH32V307EVT/EVT/EXAM/SRC/Peripheral/src/ch32v30x_eth.c:1049

        if(i < (RxBuffCount - 1))
     cbe:	fff60e93          	addi	t4,a2,-1
C:/ch32/data/CH32V307EVT/EVT/EXAM/SRC/Peripheral/src/ch32v30x_eth.c:1042 (discriminator 1)
    for(i = 0; i < RxBuffCount; i++)
     cc2:	00c71663          	bne	a4,a2,cce <ETH_DMARxDescChainInit+0x26>
C:/ch32/data/CH32V307EVT/EVT/EXAM/SRC/Peripheral/src/ch32v30x_eth.c:1059
        {
            DMARxDesc->Buffer2NextDescAddr = (uint32_t)(DMARxDescTab);
        }
    }

    ETH->DMARDLAR = (uint32_t)DMARxDescTab;
     cc6:	400297b7          	lui	a5,0x40029
     cca:	c7c8                	sw	a0,12(a5)
C:/ch32/data/CH32V307EVT/EVT/EXAM/SRC/Peripheral/src/ch32v30x_eth.c:1060
}
     ccc:	8082                	ret
C:/ch32/data/CH32V307EVT/EVT/EXAM/SRC/Peripheral/src/ch32v30x_eth.c:1047
        DMARxDesc->Buffer1Addr = (uint32_t)(&RxBuff[i * ETH_MAX_PACKET_SIZE]);
     cce:	03c70833          	mul	a6,a4,t3
C:/ch32/data/CH32V307EVT/EVT/EXAM/SRC/Peripheral/src/ch32v30x_eth.c:1045
        DMARxDesc->Status = ETH_DMARxDesc_OWN;
     cd2:	0067a023          	sw	t1,0(a5) # 40029000 <_eusrstack+0x20019000>
C:/ch32/data/CH32V307EVT/EVT/EXAM/SRC/Peripheral/src/ch32v30x_eth.c:1046
        DMARxDesc->ControlBufferSize = ETH_DMARxDesc_RCH | (uint32_t)ETH_MAX_PACKET_SIZE;
     cd6:	c3d4                	sw	a3,4(a5)
C:/ch32/data/CH32V307EVT/EVT/EXAM/SRC/Peripheral/src/ch32v30x_eth.c:1047
        DMARxDesc->Buffer1Addr = (uint32_t)(&RxBuff[i * ETH_MAX_PACKET_SIZE]);
     cd8:	88aa                	mv	a7,a0
     cda:	982e                	add	a6,a6,a1
     cdc:	0107a423          	sw	a6,8(a5)
C:/ch32/data/CH32V307EVT/EVT/EXAM/SRC/Peripheral/src/ch32v30x_eth.c:1049
        if(i < (RxBuffCount - 1))
     ce0:	01078813          	addi	a6,a5,16
     ce4:	01d77363          	bgeu	a4,t4,cea <ETH_DMARxDescChainInit+0x42>
C:/ch32/data/CH32V307EVT/EVT/EXAM/SRC/Peripheral/src/ch32v30x_eth.c:1051
            DMARxDesc->Buffer2NextDescAddr = (uint32_t)(DMARxDescTab + i + 1);
     ce8:	88c2                	mv	a7,a6
     cea:	0117a623          	sw	a7,12(a5)
     cee:	0705                	addi	a4,a4,1
     cf0:	87c2                	mv	a5,a6
     cf2:	bfc1                	j	cc2 <ETH_DMARxDescChainInit+0x1a>

00000cf4 <ETH_SoftwareReset>:
ETH_SoftwareReset():
C:/ch32/data/CH32V307EVT/EVT/EXAM/SRC/Peripheral/src/ch32v30x_eth.c:1269
 *
 * @return  none
 */
void ETH_SoftwareReset(void)
{
    ETH->DMABMR |= ETH_DMABMR_SR;
     cf4:	40029737          	lui	a4,0x40029
     cf8:	431c                	lw	a5,0(a4)
     cfa:	0017e793          	ori	a5,a5,1
     cfe:	c31c                	sw	a5,0(a4)
C:/ch32/data/CH32V307EVT/EVT/EXAM/SRC/Peripheral/src/ch32v30x_eth.c:1270
}
     d00:	8082                	ret

00000d02 <ETH_DMAClearITPendingBit>:
ETH_DMAClearITPendingBit():
     d02:	400297b7          	lui	a5,0x40029
     d06:	cbc8                	sw	a0,20(a5)
     d08:	8082                	ret

00000d0a <ETH_FlushTransmitFIFO>:
ETH_FlushTransmitFIFO():
C:/ch32/data/CH32V307EVT/EVT/EXAM/SRC/Peripheral/src/ch32v30x_eth.c:1507
 *
 * @return  none
 */
void ETH_FlushTransmitFIFO(void)
{
    ETH->DMAOMR |= ETH_DMAOMR_FTF;
     d0a:	40029737          	lui	a4,0x40029
     d0e:	4f1c                	lw	a5,24(a4)
     d10:	001006b7          	lui	a3,0x100
     d14:	8fd5                	or	a5,a5,a3
     d16:	cf1c                	sw	a5,24(a4)
C:/ch32/data/CH32V307EVT/EVT/EXAM/SRC/Peripheral/src/ch32v30x_eth.c:1508
}
     d18:	8082                	ret

00000d1a <ETH_Start>:
ETH_Start():
C:/ch32/data/CH32V307EVT/EVT/EXAM/SRC/Peripheral/src/ch32v30x_eth.c:107
{
     d1a:	d16ff2ef          	jal	t0,230 <__riscv_save_0>
ETH_MACTransmissionCmd():
C:/ch32/data/CH32V307EVT/EVT/EXAM/SRC/Peripheral/src/ch32v30x_eth.c:407
        ETH->MACCR |= ETH_MACCR_TE;
     d1e:	40028437          	lui	s0,0x40028
     d22:	401c                	lw	a5,0(s0)
     d24:	0087e793          	ori	a5,a5,8
     d28:	c01c                	sw	a5,0(s0)
ETH_Start():
C:/ch32/data/CH32V307EVT/EVT/EXAM/SRC/Peripheral/src/ch32v30x_eth.c:109
    ETH_FlushTransmitFIFO();
     d2a:	37c5                	jal	d0a <ETH_FlushTransmitFIFO>
ETH_MACReceptionCmd():
C:/ch32/data/CH32V307EVT/EVT/EXAM/SRC/Peripheral/src/ch32v30x_eth.c:428
        ETH->MACCR |= ETH_MACCR_RE;
     d2c:	401c                	lw	a5,0(s0)
ETH_DMATransmissionCmd():
C:/ch32/data/CH32V307EVT/EVT/EXAM/SRC/Peripheral/src/ch32v30x_eth.c:1544
 */
void ETH_DMATransmissionCmd(FunctionalState NewState)
{
    if(NewState != DISABLE)
    {
        ETH->DMAOMR |= ETH_DMAOMR_ST;
     d2e:	6689                	lui	a3,0x2
ETH_MACReceptionCmd():
C:/ch32/data/CH32V307EVT/EVT/EXAM/SRC/Peripheral/src/ch32v30x_eth.c:428
        ETH->MACCR |= ETH_MACCR_RE;
     d30:	0047e793          	ori	a5,a5,4
     d34:	c01c                	sw	a5,0(s0)
ETH_DMATransmissionCmd():
C:/ch32/data/CH32V307EVT/EVT/EXAM/SRC/Peripheral/src/ch32v30x_eth.c:1544
        ETH->DMAOMR |= ETH_DMAOMR_ST;
     d36:	400297b7          	lui	a5,0x40029
     d3a:	4f98                	lw	a4,24(a5)
     d3c:	8f55                	or	a4,a4,a3
     d3e:	cf98                	sw	a4,24(a5)
ETH_DMAReceptionCmd():
C:/ch32/data/CH32V307EVT/EVT/EXAM/SRC/Peripheral/src/ch32v30x_eth.c:1565
 */
void ETH_DMAReceptionCmd(FunctionalState NewState)
{
    if(NewState != DISABLE)
    {
        ETH->DMAOMR |= ETH_DMAOMR_SR;
     d40:	4f98                	lw	a4,24(a5)
     d42:	00276713          	ori	a4,a4,2
     d46:	cf98                	sw	a4,24(a5)
ETH_Start():
C:/ch32/data/CH32V307EVT/EVT/EXAM/SRC/Peripheral/src/ch32v30x_eth.c:113
}
     d48:	d0cff06f          	j	254 <__riscv_restore_0>

00000d4c <ETH_DMAITConfig>:
ETH_DMAITConfig():
C:/ch32/data/CH32V307EVT/EVT/EXAM/SRC/Peripheral/src/ch32v30x_eth.c:1602
 *
 * @return  new state of the specified ETHERNET DMA interrupts.
 */
void ETH_DMAITConfig(uint32_t ETH_DMA_IT, FunctionalState NewState)
{
    if(NewState != DISABLE)
     d4c:	c599                	beqz	a1,d5a <ETH_DMAITConfig+0xe>
C:/ch32/data/CH32V307EVT/EVT/EXAM/SRC/Peripheral/src/ch32v30x_eth.c:1604
    {
        ETH->DMAIER |= ETH_DMA_IT;
     d4e:	40029737          	lui	a4,0x40029
     d52:	4f5c                	lw	a5,28(a4)
     d54:	8d5d                	or	a0,a0,a5
     d56:	cf48                	sw	a0,28(a4)
     d58:	8082                	ret
C:/ch32/data/CH32V307EVT/EVT/EXAM/SRC/Peripheral/src/ch32v30x_eth.c:1608
    }
    else
    {
        ETH->DMAIER &= (~(uint32_t)ETH_DMA_IT);
     d5a:	400297b7          	lui	a5,0x40029
     d5e:	4fd8                	lw	a4,28(a5)
     d60:	fff54513          	not	a0,a0
     d64:	8d79                	and	a0,a0,a4
     d66:	cfc8                	sw	a0,28(a5)
C:/ch32/data/CH32V307EVT/EVT/EXAM/SRC/Peripheral/src/ch32v30x_eth.c:1610
    }
}
     d68:	8082                	ret

00000d6a <EXTI_ClearFlag>:
EXTI_ClearFlag():
C:/ch32/data/CH32V307EVT/EVT/EXAM/SRC/Peripheral/src/ch32v30x_exti.c:141
 *
 * @return  None
 */
void EXTI_ClearFlag(uint32_t EXTI_Line)
{
    EXTI->INTFR = EXTI_Line;
     d6a:	400107b7          	lui	a5,0x40010
     d6e:	40a7aa23          	sw	a0,1044(a5) # 40010414 <_eusrstack+0x20000414>
C:/ch32/data/CH32V307EVT/EVT/EXAM/SRC/Peripheral/src/ch32v30x_exti.c:142
}
     d72:	8082                	ret

00000d74 <EXTI_ClearITPendingBit>:
EXTI_ClearITPendingBit():
     d74:	400107b7          	lui	a5,0x40010
     d78:	40a7aa23          	sw	a0,1044(a5) # 40010414 <_eusrstack+0x20000414>
     d7c:	8082                	ret

00000d7e <GPIO_Init>:
GPIO_Init():
C:/ch32/data/CH32V307EVT/EVT/EXAM/SRC/Peripheral/src/ch32v30x_gpio.c:90
void GPIO_Init(GPIO_TypeDef *GPIOx, GPIO_InitTypeDef *GPIO_InitStruct)
{
    uint32_t currentmode = 0x00, currentpin = 0x00, pinpos = 0x00, pos = 0x00;
    uint32_t tmpreg = 0x00, pinmask = 0x00;

    currentmode = ((uint32_t)GPIO_InitStruct->GPIO_Mode) & ((uint32_t)0x0F);
     d7e:	459c                	lw	a5,8(a1)
C:/ch32/data/CH32V307EVT/EVT/EXAM/SRC/Peripheral/src/ch32v30x_gpio.c:92

    if((((uint32_t)GPIO_InitStruct->GPIO_Mode) & ((uint32_t)0x10)) != 0x00)
     d80:	0107f713          	andi	a4,a5,16
C:/ch32/data/CH32V307EVT/EVT/EXAM/SRC/Peripheral/src/ch32v30x_gpio.c:90
    currentmode = ((uint32_t)GPIO_InitStruct->GPIO_Mode) & ((uint32_t)0x0F);
     d84:	00f7f813          	andi	a6,a5,15
C:/ch32/data/CH32V307EVT/EVT/EXAM/SRC/Peripheral/src/ch32v30x_gpio.c:92
    if((((uint32_t)GPIO_InitStruct->GPIO_Mode) & ((uint32_t)0x10)) != 0x00)
     d88:	c701                	beqz	a4,d90 <GPIO_Init+0x12>
C:/ch32/data/CH32V307EVT/EVT/EXAM/SRC/Peripheral/src/ch32v30x_gpio.c:94
    {
        currentmode |= (uint32_t)GPIO_InitStruct->GPIO_Speed;
     d8a:	41d8                	lw	a4,4(a1)
     d8c:	00e86833          	or	a6,a6,a4
C:/ch32/data/CH32V307EVT/EVT/EXAM/SRC/Peripheral/src/ch32v30x_gpio.c:97
    }

    if(((uint32_t)GPIO_InitStruct->GPIO_Pin & ((uint32_t)0x00FF)) != 0x00)
     d90:	218e                	lhu	a1,0(a1)
     d92:	0ff5f713          	andi	a4,a1,255
     d96:	c339                	beqz	a4,ddc <GPIO_Init+0x5e>
C:/ch32/data/CH32V307EVT/EVT/EXAM/SRC/Peripheral/src/ch32v30x_gpio.c:99
    {
        tmpreg = GPIOx->CFGLR;
     d98:	4118                	lw	a4,0(a0)
C:/ch32/data/CH32V307EVT/EVT/EXAM/SRC/Peripheral/src/ch32v30x_gpio.c:101

        for(pinpos = 0x00; pinpos < 0x08; pinpos++)
     d9a:	4681                	li	a3,0
C:/ch32/data/CH32V307EVT/EVT/EXAM/SRC/Peripheral/src/ch32v30x_gpio.c:103
        {
            pos = ((uint32_t)0x01) << pinpos;
     d9c:	4e85                	li	t4,1
C:/ch32/data/CH32V307EVT/EVT/EXAM/SRC/Peripheral/src/ch32v30x_gpio.c:109
            currentpin = (GPIO_InitStruct->GPIO_Pin) & pos;

            if(currentpin == pos)
            {
                pos = pinpos << 2;
                pinmask = ((uint32_t)0x0F) << pos;
     d9e:	4f3d                	li	t5,15
C:/ch32/data/CH32V307EVT/EVT/EXAM/SRC/Peripheral/src/ch32v30x_gpio.c:113
                tmpreg &= ~pinmask;
                tmpreg |= (currentmode << pos);

                if(GPIO_InitStruct->GPIO_Mode == GPIO_Mode_IPD)
     da0:	02800f93          	li	t6,40
C:/ch32/data/CH32V307EVT/EVT/EXAM/SRC/Peripheral/src/ch32v30x_gpio.c:119
                {
                    GPIOx->BCR = (((uint32_t)0x01) << pinpos);
                }
                else
                {
                    if(GPIO_InitStruct->GPIO_Mode == GPIO_Mode_IPU)
     da4:	04800293          	li	t0,72
C:/ch32/data/CH32V307EVT/EVT/EXAM/SRC/Peripheral/src/ch32v30x_gpio.c:101
        for(pinpos = 0x00; pinpos < 0x08; pinpos++)
     da8:	4e21                	li	t3,8
C:/ch32/data/CH32V307EVT/EVT/EXAM/SRC/Peripheral/src/ch32v30x_gpio.c:103
            pos = ((uint32_t)0x01) << pinpos;
     daa:	00de9633          	sll	a2,t4,a3
C:/ch32/data/CH32V307EVT/EVT/EXAM/SRC/Peripheral/src/ch32v30x_gpio.c:104
            currentpin = (GPIO_InitStruct->GPIO_Pin) & pos;
     dae:	00c5f8b3          	and	a7,a1,a2
C:/ch32/data/CH32V307EVT/EVT/EXAM/SRC/Peripheral/src/ch32v30x_gpio.c:106
            if(currentpin == pos)
     db2:	03161163          	bne	a2,a7,dd4 <GPIO_Init+0x56>
C:/ch32/data/CH32V307EVT/EVT/EXAM/SRC/Peripheral/src/ch32v30x_gpio.c:108
                pos = pinpos << 2;
     db6:	00269893          	slli	a7,a3,0x2
C:/ch32/data/CH32V307EVT/EVT/EXAM/SRC/Peripheral/src/ch32v30x_gpio.c:109
                pinmask = ((uint32_t)0x0F) << pos;
     dba:	011f1333          	sll	t1,t5,a7
C:/ch32/data/CH32V307EVT/EVT/EXAM/SRC/Peripheral/src/ch32v30x_gpio.c:110
                tmpreg &= ~pinmask;
     dbe:	fff34313          	not	t1,t1
     dc2:	00e37733          	and	a4,t1,a4
C:/ch32/data/CH32V307EVT/EVT/EXAM/SRC/Peripheral/src/ch32v30x_gpio.c:111
                tmpreg |= (currentmode << pos);
     dc6:	011818b3          	sll	a7,a6,a7
     dca:	00e8e733          	or	a4,a7,a4
C:/ch32/data/CH32V307EVT/EVT/EXAM/SRC/Peripheral/src/ch32v30x_gpio.c:113
                if(GPIO_InitStruct->GPIO_Mode == GPIO_Mode_IPD)
     dce:	05f79f63          	bne	a5,t6,e2c <GPIO_Init+0xae>
C:/ch32/data/CH32V307EVT/EVT/EXAM/SRC/Peripheral/src/ch32v30x_gpio.c:115
                    GPIOx->BCR = (((uint32_t)0x01) << pinpos);
     dd2:	c950                	sw	a2,20(a0)
C:/ch32/data/CH32V307EVT/EVT/EXAM/SRC/Peripheral/src/ch32v30x_gpio.c:101 (discriminator 2)
        for(pinpos = 0x00; pinpos < 0x08; pinpos++)
     dd4:	0685                	addi	a3,a3,1
     dd6:	fdc69ae3          	bne	a3,t3,daa <GPIO_Init+0x2c>
C:/ch32/data/CH32V307EVT/EVT/EXAM/SRC/Peripheral/src/ch32v30x_gpio.c:126
                        GPIOx->BSHR = (((uint32_t)0x01) << pinpos);
                    }
                }
            }
        }
        GPIOx->CFGLR = tmpreg;
     dda:	c118                	sw	a4,0(a0)
C:/ch32/data/CH32V307EVT/EVT/EXAM/SRC/Peripheral/src/ch32v30x_gpio.c:129
    }

    if(GPIO_InitStruct->GPIO_Pin > 0x00FF)
     ddc:	0ff00713          	li	a4,255
     de0:	04b77563          	bgeu	a4,a1,e2a <GPIO_Init+0xac>
C:/ch32/data/CH32V307EVT/EVT/EXAM/SRC/Peripheral/src/ch32v30x_gpio.c:131
    {
        tmpreg = GPIOx->CFGHR;
     de4:	4154                	lw	a3,4(a0)
     de6:	4621                	li	a2,8
C:/ch32/data/CH32V307EVT/EVT/EXAM/SRC/Peripheral/src/ch32v30x_gpio.c:135

        for(pinpos = 0x00; pinpos < 0x08; pinpos++)
        {
            pos = (((uint32_t)0x01) << (pinpos + 0x08));
     de8:	4e85                	li	t4,1
C:/ch32/data/CH32V307EVT/EVT/EXAM/SRC/Peripheral/src/ch32v30x_gpio.c:141
            currentpin = ((GPIO_InitStruct->GPIO_Pin) & pos);

            if(currentpin == pos)
            {
                pos = pinpos << 2;
                pinmask = ((uint32_t)0x0F) << pos;
     dea:	4f3d                	li	t5,15
C:/ch32/data/CH32V307EVT/EVT/EXAM/SRC/Peripheral/src/ch32v30x_gpio.c:145
                tmpreg &= ~pinmask;
                tmpreg |= (currentmode << pos);

                if(GPIO_InitStruct->GPIO_Mode == GPIO_Mode_IPD)
     dec:	02800f93          	li	t6,40
C:/ch32/data/CH32V307EVT/EVT/EXAM/SRC/Peripheral/src/ch32v30x_gpio.c:150
                {
                    GPIOx->BCR = (((uint32_t)0x01) << (pinpos + 0x08));
                }

                if(GPIO_InitStruct->GPIO_Mode == GPIO_Mode_IPU)
     df0:	04800293          	li	t0,72
C:/ch32/data/CH32V307EVT/EVT/EXAM/SRC/Peripheral/src/ch32v30x_gpio.c:133
        for(pinpos = 0x00; pinpos < 0x08; pinpos++)
     df4:	4e41                	li	t3,16
C:/ch32/data/CH32V307EVT/EVT/EXAM/SRC/Peripheral/src/ch32v30x_gpio.c:135
            pos = (((uint32_t)0x01) << (pinpos + 0x08));
     df6:	00ce98b3          	sll	a7,t4,a2
C:/ch32/data/CH32V307EVT/EVT/EXAM/SRC/Peripheral/src/ch32v30x_gpio.c:136
            currentpin = ((GPIO_InitStruct->GPIO_Pin) & pos);
     dfa:	0115f733          	and	a4,a1,a7
C:/ch32/data/CH32V307EVT/EVT/EXAM/SRC/Peripheral/src/ch32v30x_gpio.c:138
            if(currentpin == pos)
     dfe:	02e89263          	bne	a7,a4,e22 <GPIO_Init+0xa4>
C:/ch32/data/CH32V307EVT/EVT/EXAM/SRC/Peripheral/src/ch32v30x_gpio.c:140
                pos = pinpos << 2;
     e02:	00261713          	slli	a4,a2,0x2
     e06:	1701                	addi	a4,a4,-32
C:/ch32/data/CH32V307EVT/EVT/EXAM/SRC/Peripheral/src/ch32v30x_gpio.c:141
                pinmask = ((uint32_t)0x0F) << pos;
     e08:	00ef1333          	sll	t1,t5,a4
C:/ch32/data/CH32V307EVT/EVT/EXAM/SRC/Peripheral/src/ch32v30x_gpio.c:142
                tmpreg &= ~pinmask;
     e0c:	fff34313          	not	t1,t1
     e10:	00d376b3          	and	a3,t1,a3
C:/ch32/data/CH32V307EVT/EVT/EXAM/SRC/Peripheral/src/ch32v30x_gpio.c:143
                tmpreg |= (currentmode << pos);
     e14:	00e81733          	sll	a4,a6,a4
     e18:	8ed9                	or	a3,a3,a4
C:/ch32/data/CH32V307EVT/EVT/EXAM/SRC/Peripheral/src/ch32v30x_gpio.c:145
                if(GPIO_InitStruct->GPIO_Mode == GPIO_Mode_IPD)
     e1a:	01f79d63          	bne	a5,t6,e34 <GPIO_Init+0xb6>
C:/ch32/data/CH32V307EVT/EVT/EXAM/SRC/Peripheral/src/ch32v30x_gpio.c:147
                    GPIOx->BCR = (((uint32_t)0x01) << (pinpos + 0x08));
     e1e:	01152a23          	sw	a7,20(a0)
C:/ch32/data/CH32V307EVT/EVT/EXAM/SRC/Peripheral/src/ch32v30x_gpio.c:150
                if(GPIO_InitStruct->GPIO_Mode == GPIO_Mode_IPU)
     e22:	0605                	addi	a2,a2,1
C:/ch32/data/CH32V307EVT/EVT/EXAM/SRC/Peripheral/src/ch32v30x_gpio.c:133 (discriminator 2)
        for(pinpos = 0x00; pinpos < 0x08; pinpos++)
     e24:	fdc619e3          	bne	a2,t3,df6 <GPIO_Init+0x78>
C:/ch32/data/CH32V307EVT/EVT/EXAM/SRC/Peripheral/src/ch32v30x_gpio.c:156
                {
                    GPIOx->BSHR = (((uint32_t)0x01) << (pinpos + 0x08));
                }
            }
        }
        GPIOx->CFGHR = tmpreg;
     e28:	c154                	sw	a3,4(a0)
C:/ch32/data/CH32V307EVT/EVT/EXAM/SRC/Peripheral/src/ch32v30x_gpio.c:158
    }
}
     e2a:	8082                	ret
C:/ch32/data/CH32V307EVT/EVT/EXAM/SRC/Peripheral/src/ch32v30x_gpio.c:119
                    if(GPIO_InitStruct->GPIO_Mode == GPIO_Mode_IPU)
     e2c:	fa5794e3          	bne	a5,t0,dd4 <GPIO_Init+0x56>
C:/ch32/data/CH32V307EVT/EVT/EXAM/SRC/Peripheral/src/ch32v30x_gpio.c:121
                        GPIOx->BSHR = (((uint32_t)0x01) << pinpos);
     e30:	c910                	sw	a2,16(a0)
     e32:	b74d                	j	dd4 <GPIO_Init+0x56>
C:/ch32/data/CH32V307EVT/EVT/EXAM/SRC/Peripheral/src/ch32v30x_gpio.c:150
                if(GPIO_InitStruct->GPIO_Mode == GPIO_Mode_IPU)
     e34:	fe5797e3          	bne	a5,t0,e22 <GPIO_Init+0xa4>
C:/ch32/data/CH32V307EVT/EVT/EXAM/SRC/Peripheral/src/ch32v30x_gpio.c:152
                    GPIOx->BSHR = (((uint32_t)0x01) << (pinpos + 0x08));
     e38:	01152823          	sw	a7,16(a0)
     e3c:	b7dd                	j	e22 <GPIO_Init+0xa4>

00000e3e <GPIO_SetBits>:
GPIO_SetBits():
C:/ch32/data/CH32V307EVT/EVT/EXAM/SRC/Peripheral/src/ch32v30x_gpio.c:271
 *
 * @return  none
 */
void GPIO_SetBits(GPIO_TypeDef *GPIOx, uint16_t GPIO_Pin)
{
    GPIOx->BSHR = GPIO_Pin;
     e3e:	c90c                	sw	a1,16(a0)
C:/ch32/data/CH32V307EVT/EVT/EXAM/SRC/Peripheral/src/ch32v30x_gpio.c:272
}
     e40:	8082                	ret

00000e42 <GPIO_ResetBits>:
GPIO_ResetBits():
C:/ch32/data/CH32V307EVT/EVT/EXAM/SRC/Peripheral/src/ch32v30x_gpio.c:287
 *
 * @return  none
 */
void GPIO_ResetBits(GPIO_TypeDef *GPIOx, uint16_t GPIO_Pin)
{
    GPIOx->BCR = GPIO_Pin;
     e42:	c94c                	sw	a1,20(a0)
C:/ch32/data/CH32V307EVT/EVT/EXAM/SRC/Peripheral/src/ch32v30x_gpio.c:288
}
     e44:	8082                	ret

00000e46 <GPIO_WriteBit>:
GPIO_WriteBit():
C:/ch32/data/CH32V307EVT/EVT/EXAM/SRC/Peripheral/src/ch32v30x_gpio.c:305
 *
 * @return  none
 */
void GPIO_WriteBit(GPIO_TypeDef *GPIOx, uint16_t GPIO_Pin, BitAction BitVal)
{
    if(BitVal != Bit_RESET)
     e46:	c219                	beqz	a2,e4c <GPIO_WriteBit+0x6>
C:/ch32/data/CH32V307EVT/EVT/EXAM/SRC/Peripheral/src/ch32v30x_gpio.c:307
    {
        GPIOx->BSHR = GPIO_Pin;
     e48:	c90c                	sw	a1,16(a0)
     e4a:	8082                	ret
C:/ch32/data/CH32V307EVT/EVT/EXAM/SRC/Peripheral/src/ch32v30x_gpio.c:311
    }
    else
    {
        GPIOx->BCR = GPIO_Pin;
     e4c:	c94c                	sw	a1,20(a0)
C:/ch32/data/CH32V307EVT/EVT/EXAM/SRC/Peripheral/src/ch32v30x_gpio.c:313
    }
}
     e4e:	8082                	ret

00000e50 <RCC_GetClocksFreq>:
RCC_GetClocksFreq():
C:/ch32/data/CH32V307EVT/EVT/EXAM/SRC/Peripheral/src/ch32v30x_rcc.c:585
#ifdef CH32V30x_D8C
    uint8_t Pll2mull = 0;

#endif

    tmp = RCC->CFGR0 & CFGR0_SWS_Mask;
     e50:	40021737          	lui	a4,0x40021
     e54:	435c                	lw	a5,4(a4)
     e56:	4691                	li	a3,4
     e58:	8bb1                	andi	a5,a5,12
C:/ch32/data/CH32V307EVT/EVT/EXAM/SRC/Peripheral/src/ch32v30x_rcc.c:587

    switch(tmp)
     e5a:	00d78563          	beq	a5,a3,e64 <RCC_GetClocksFreq+0x14>
     e5e:	46a1                	li	a3,8
     e60:	06d78263          	beq	a5,a3,ec4 <RCC_GetClocksFreq+0x74>
C:/ch32/data/CH32V307EVT/EVT/EXAM/SRC/Peripheral/src/ch32v30x_rcc.c:590
    {
        case 0x00:
            RCC_Clocks->SYSCLK_Frequency = HSI_VALUE;
     e64:	007a17b7          	lui	a5,0x7a1
     e68:	20078793          	addi	a5,a5,512 # 7a1200 <_data_lma+0x7955ac>
C:/ch32/data/CH32V307EVT/EVT/EXAM/SRC/Peripheral/src/ch32v30x_rcc.c:668

#endif
            }

            if(Pll_6_5 == 1)
                RCC_Clocks->SYSCLK_Frequency = (RCC_Clocks->SYSCLK_Frequency / 2);
     e6c:	c11c                	sw	a5,0(a0)
C:/ch32/data/CH32V307EVT/EVT/EXAM/SRC/Peripheral/src/ch32v30x_rcc.c:677
        default:
            RCC_Clocks->SYSCLK_Frequency = HSI_VALUE;
            break;
    }

    tmp = RCC->CFGR0 & CFGR0_HPRE_Set_Mask;
     e6e:	40021637          	lui	a2,0x40021
     e72:	425c                	lw	a5,4(a2)
C:/ch32/data/CH32V307EVT/EVT/EXAM/SRC/Peripheral/src/ch32v30x_rcc.c:679
    tmp = tmp >> 4;
    presc = APBAHBPrescTable[tmp];
     e74:	20000737          	lui	a4,0x20000
     e78:	01070713          	addi	a4,a4,16 # 20000010 <APBAHBPrescTable>
C:/ch32/data/CH32V307EVT/EVT/EXAM/SRC/Peripheral/src/ch32v30x_rcc.c:678
    tmp = tmp >> 4;
     e7c:	8391                	srli	a5,a5,0x4
     e7e:	8bbd                	andi	a5,a5,15
C:/ch32/data/CH32V307EVT/EVT/EXAM/SRC/Peripheral/src/ch32v30x_rcc.c:679
    presc = APBAHBPrescTable[tmp];
     e80:	97ba                	add	a5,a5,a4
     e82:	2394                	lbu	a3,0(a5)
C:/ch32/data/CH32V307EVT/EVT/EXAM/SRC/Peripheral/src/ch32v30x_rcc.c:680
    RCC_Clocks->HCLK_Frequency = RCC_Clocks->SYSCLK_Frequency >> presc;
     e84:	411c                	lw	a5,0(a0)
     e86:	00d7d7b3          	srl	a5,a5,a3
     e8a:	c15c                	sw	a5,4(a0)
C:/ch32/data/CH32V307EVT/EVT/EXAM/SRC/Peripheral/src/ch32v30x_rcc.c:681
    tmp = RCC->CFGR0 & CFGR0_PPRE1_Set_Mask;
     e8c:	4254                	lw	a3,4(a2)
C:/ch32/data/CH32V307EVT/EVT/EXAM/SRC/Peripheral/src/ch32v30x_rcc.c:682
    tmp = tmp >> 8;
     e8e:	82a1                	srli	a3,a3,0x8
     e90:	8a9d                	andi	a3,a3,7
C:/ch32/data/CH32V307EVT/EVT/EXAM/SRC/Peripheral/src/ch32v30x_rcc.c:683
    presc = APBAHBPrescTable[tmp];
     e92:	96ba                	add	a3,a3,a4
     e94:	2294                	lbu	a3,0(a3)
C:/ch32/data/CH32V307EVT/EVT/EXAM/SRC/Peripheral/src/ch32v30x_rcc.c:684
    RCC_Clocks->PCLK1_Frequency = RCC_Clocks->HCLK_Frequency >> presc;
     e96:	00d7d6b3          	srl	a3,a5,a3
     e9a:	c514                	sw	a3,8(a0)
C:/ch32/data/CH32V307EVT/EVT/EXAM/SRC/Peripheral/src/ch32v30x_rcc.c:685
    tmp = RCC->CFGR0 & CFGR0_PPRE2_Set_Mask;
     e9c:	4254                	lw	a3,4(a2)
C:/ch32/data/CH32V307EVT/EVT/EXAM/SRC/Peripheral/src/ch32v30x_rcc.c:686
    tmp = tmp >> 11;
     e9e:	82ad                	srli	a3,a3,0xb
     ea0:	8a9d                	andi	a3,a3,7
C:/ch32/data/CH32V307EVT/EVT/EXAM/SRC/Peripheral/src/ch32v30x_rcc.c:687
    presc = APBAHBPrescTable[tmp];
     ea2:	9736                	add	a4,a4,a3
     ea4:	2318                	lbu	a4,0(a4)
C:/ch32/data/CH32V307EVT/EVT/EXAM/SRC/Peripheral/src/ch32v30x_rcc.c:688
    RCC_Clocks->PCLK2_Frequency = RCC_Clocks->HCLK_Frequency >> presc;
     ea6:	00e7d7b3          	srl	a5,a5,a4
     eaa:	c55c                	sw	a5,12(a0)
C:/ch32/data/CH32V307EVT/EVT/EXAM/SRC/Peripheral/src/ch32v30x_rcc.c:689
    tmp = RCC->CFGR0 & CFGR0_ADCPRE_Set_Mask;
     eac:	4258                	lw	a4,4(a2)
C:/ch32/data/CH32V307EVT/EVT/EXAM/SRC/Peripheral/src/ch32v30x_rcc.c:690
    tmp = tmp >> 14;
     eae:	8339                	srli	a4,a4,0xe
     eb0:	00377693          	andi	a3,a4,3
C:/ch32/data/CH32V307EVT/EVT/EXAM/SRC/Peripheral/src/ch32v30x_rcc.c:691
    presc = ADCPrescTable[tmp];
     eb4:	81818713          	addi	a4,gp,-2024 # 20000038 <ADCPrescTable>
     eb8:	9736                	add	a4,a4,a3
     eba:	2318                	lbu	a4,0(a4)
C:/ch32/data/CH32V307EVT/EVT/EXAM/SRC/Peripheral/src/ch32v30x_rcc.c:692
    RCC_Clocks->ADCCLK_Frequency = RCC_Clocks->PCLK2_Frequency / presc;
     ebc:	02e7d7b3          	divu	a5,a5,a4
     ec0:	c91c                	sw	a5,16(a0)
C:/ch32/data/CH32V307EVT/EVT/EXAM/SRC/Peripheral/src/ch32v30x_rcc.c:693
}
     ec2:	8082                	ret
C:/ch32/data/CH32V307EVT/EVT/EXAM/SRC/Peripheral/src/ch32v30x_rcc.c:598
            pllmull = RCC->CFGR0 & CFGR0_PLLMull_Mask;
     ec4:	435c                	lw	a5,4(a4)
C:/ch32/data/CH32V307EVT/EVT/EXAM/SRC/Peripheral/src/ch32v30x_rcc.c:599
            pllsource = RCC->CFGR0 & CFGR0_PLLSRC_Mask;
     ec6:	4358                	lw	a4,4(a4)
     ec8:	66c1                	lui	a3,0x10
C:/ch32/data/CH32V307EVT/EVT/EXAM/SRC/Peripheral/src/ch32v30x_rcc.c:601
            pllmull = (pllmull >> 18) + 2;
     eca:	83c9                	srli	a5,a5,0x12
C:/ch32/data/CH32V307EVT/EVT/EXAM/SRC/Peripheral/src/ch32v30x_rcc.c:599
            pllsource = RCC->CFGR0 & CFGR0_PLLSRC_Mask;
     ecc:	8f75                	and	a4,a4,a3
C:/ch32/data/CH32V307EVT/EVT/EXAM/SRC/Peripheral/src/ch32v30x_rcc.c:603
            if(((*(uint32_t *)0x1FFFF70C) & (1 << 14)) != (1 << 14))
     ece:	1ffff6b7          	lui	a3,0x1ffff
     ed2:	70c6a683          	lw	a3,1804(a3) # 1ffff70c <_data_lma+0x1fff3ab8>
C:/ch32/data/CH32V307EVT/EVT/EXAM/SRC/Peripheral/src/ch32v30x_rcc.c:601
            pllmull = (pllmull >> 18) + 2;
     ed6:	8bbd                	andi	a5,a5,15
     ed8:	0789                	addi	a5,a5,2
C:/ch32/data/CH32V307EVT/EVT/EXAM/SRC/Peripheral/src/ch32v30x_rcc.c:603
            if(((*(uint32_t *)0x1FFFF70C) & (1 << 14)) != (1 << 14))
     eda:	01169613          	slli	a2,a3,0x11
     ede:	00064863          	bltz	a2,eee <RCC_GetClocksFreq+0x9e>
C:/ch32/data/CH32V307EVT/EVT/EXAM/SRC/Peripheral/src/ch32v30x_rcc.c:605
                if(pllmull == 17)
     ee2:	46c5                	li	a3,17
C:/ch32/data/CH32V307EVT/EVT/EXAM/SRC/Peripheral/src/ch32v30x_rcc.c:578
    uint8_t Pll_6_5 = 0;
     ee4:	4601                	li	a2,0
C:/ch32/data/CH32V307EVT/EVT/EXAM/SRC/Peripheral/src/ch32v30x_rcc.c:605
                if(pllmull == 17)
     ee6:	02d79263          	bne	a5,a3,f0a <RCC_GetClocksFreq+0xba>
C:/ch32/data/CH32V307EVT/EVT/EXAM/SRC/Peripheral/src/ch32v30x_rcc.c:606
                    pllmull = 18;
     eea:	47c9                	li	a5,18
     eec:	a839                	j	f0a <RCC_GetClocksFreq+0xba>
C:/ch32/data/CH32V307EVT/EVT/EXAM/SRC/Peripheral/src/ch32v30x_rcc.c:610
                if(pllmull == 2)
     eee:	4689                	li	a3,2
     ef0:	02d78f63          	beq	a5,a3,f2e <RCC_GetClocksFreq+0xde>
C:/ch32/data/CH32V307EVT/EVT/EXAM/SRC/Peripheral/src/ch32v30x_rcc.c:612
                if(pllmull == 15)
     ef4:	46bd                	li	a3,15
     ef6:	02d78e63          	beq	a5,a3,f32 <RCC_GetClocksFreq+0xe2>
C:/ch32/data/CH32V307EVT/EVT/EXAM/SRC/Peripheral/src/ch32v30x_rcc.c:617
                if(pllmull == 16)
     efa:	46c1                	li	a3,16
     efc:	02d78e63          	beq	a5,a3,f38 <RCC_GetClocksFreq+0xe8>
C:/ch32/data/CH32V307EVT/EVT/EXAM/SRC/Peripheral/src/ch32v30x_rcc.c:619
                if(pllmull == 17)
     f00:	46c5                	li	a3,17
     f02:	4601                	li	a2,0
     f04:	00d79363          	bne	a5,a3,f0a <RCC_GetClocksFreq+0xba>
C:/ch32/data/CH32V307EVT/EVT/EXAM/SRC/Peripheral/src/ch32v30x_rcc.c:620
                    pllmull = 16;
     f08:	47c1                	li	a5,16
C:/ch32/data/CH32V307EVT/EVT/EXAM/SRC/Peripheral/src/ch32v30x_rcc.c:623
            if(pllsource == 0x00)
     f0a:	ef1d                	bnez	a4,f48 <RCC_GetClocksFreq+0xf8>
C:/ch32/data/CH32V307EVT/EVT/EXAM/SRC/Peripheral/src/ch32v30x_rcc.c:625
                if(EXTEN->EXTEN_CTR & EXTEN_PLL_HSI_PRE)
     f0c:	40024737          	lui	a4,0x40024
     f10:	80072703          	lw	a4,-2048(a4) # 40023800 <_eusrstack+0x20013800>
     f14:	8b41                	andi	a4,a4,16
     f16:	c705                	beqz	a4,f3e <RCC_GetClocksFreq+0xee>
C:/ch32/data/CH32V307EVT/EVT/EXAM/SRC/Peripheral/src/ch32v30x_rcc.c:627
                    RCC_Clocks->SYSCLK_Frequency = (HSI_VALUE)*pllmull;
     f18:	007a1737          	lui	a4,0x7a1
     f1c:	20070713          	addi	a4,a4,512 # 7a1200 <_data_lma+0x7955ac>
C:/ch32/data/CH32V307EVT/EVT/EXAM/SRC/Peripheral/src/ch32v30x_rcc.c:662
                RCC_Clocks->SYSCLK_Frequency = RCC_Clocks->SYSCLK_Frequency * pllmull;
     f20:	02f707b3          	mul	a5,a4,a5
     f24:	c11c                	sw	a5,0(a0)
C:/ch32/data/CH32V307EVT/EVT/EXAM/SRC/Peripheral/src/ch32v30x_rcc.c:667
            if(Pll_6_5 == 1)
     f26:	d621                	beqz	a2,e6e <RCC_GetClocksFreq+0x1e>
C:/ch32/data/CH32V307EVT/EVT/EXAM/SRC/Peripheral/src/ch32v30x_rcc.c:668
                RCC_Clocks->SYSCLK_Frequency = (RCC_Clocks->SYSCLK_Frequency / 2);
     f28:	411c                	lw	a5,0(a0)
     f2a:	8385                	srli	a5,a5,0x1
     f2c:	b781                	j	e6c <RCC_GetClocksFreq+0x1c>
C:/ch32/data/CH32V307EVT/EVT/EXAM/SRC/Peripheral/src/ch32v30x_rcc.c:578
    uint8_t Pll_6_5 = 0;
     f2e:	4601                	li	a2,0
     f30:	bf6d                	j	eea <RCC_GetClocksFreq+0x9a>
C:/ch32/data/CH32V307EVT/EVT/EXAM/SRC/Peripheral/src/ch32v30x_rcc.c:615
                    Pll_6_5 = 1;
     f32:	4605                	li	a2,1
C:/ch32/data/CH32V307EVT/EVT/EXAM/SRC/Peripheral/src/ch32v30x_rcc.c:614
                    pllmull = 13; /* *6.5 */
     f34:	47b5                	li	a5,13
     f36:	bfd1                	j	f0a <RCC_GetClocksFreq+0xba>
     f38:	4601                	li	a2,0
C:/ch32/data/CH32V307EVT/EVT/EXAM/SRC/Peripheral/src/ch32v30x_rcc.c:618
                    pllmull = 15;
     f3a:	47bd                	li	a5,15
     f3c:	b7f9                	j	f0a <RCC_GetClocksFreq+0xba>
C:/ch32/data/CH32V307EVT/EVT/EXAM/SRC/Peripheral/src/ch32v30x_rcc.c:631
                    RCC_Clocks->SYSCLK_Frequency = (HSI_VALUE >> 1) * pllmull;
     f3e:	003d1737          	lui	a4,0x3d1
     f42:	90070713          	addi	a4,a4,-1792 # 3d0900 <_data_lma+0x3c4cac>
     f46:	bfe9                	j	f20 <RCC_GetClocksFreq+0xd0>
C:/ch32/data/CH32V307EVT/EVT/EXAM/SRC/Peripheral/src/ch32v30x_rcc.c:646
                if(RCC->CFGR2 & (1<<16)){ /* PLL2 */
     f48:	400215b7          	lui	a1,0x40021
     f4c:	55d8                	lw	a4,44(a1)
     f4e:	00f71693          	slli	a3,a4,0xf
C:/ch32/data/CH32V307EVT/EVT/EXAM/SRC/Peripheral/src/ch32v30x_rcc.c:647
                    RCC_Clocks->SYSCLK_Frequency = HSE_VALUE/(((RCC->CFGR2 & 0xF0)>>4) + 1);  /* PREDIV2 */
     f52:	55d8                	lw	a4,44(a1)
C:/ch32/data/CH32V307EVT/EVT/EXAM/SRC/Peripheral/src/ch32v30x_rcc.c:646
                if(RCC->CFGR2 & (1<<16)){ /* PLL2 */
     f54:	0406df63          	bgez	a3,fb2 <RCC_GetClocksFreq+0x162>
C:/ch32/data/CH32V307EVT/EVT/EXAM/SRC/Peripheral/src/ch32v30x_rcc.c:647
                    RCC_Clocks->SYSCLK_Frequency = HSE_VALUE/(((RCC->CFGR2 & 0xF0)>>4) + 1);  /* PREDIV2 */
     f58:	8311                	srli	a4,a4,0x4
     f5a:	8b3d                	andi	a4,a4,15
     f5c:	00170693          	addi	a3,a4,1
     f60:	007a1737          	lui	a4,0x7a1
     f64:	20070713          	addi	a4,a4,512 # 7a1200 <_data_lma+0x7955ac>
     f68:	02d75733          	divu	a4,a4,a3
     f6c:	c118                	sw	a4,0(a0)
C:/ch32/data/CH32V307EVT/EVT/EXAM/SRC/Peripheral/src/ch32v30x_rcc.c:649
                    Pll2mull = (uint8_t)((RCC->CFGR2 & 0xF00)>>8);
     f6e:	55d4                	lw	a3,44(a1)
     f70:	82a1                	srli	a3,a3,0x8
     f72:	8abd                	andi	a3,a3,15
C:/ch32/data/CH32V307EVT/EVT/EXAM/SRC/Peripheral/src/ch32v30x_rcc.c:651
                    if(Pll2mull == 0) RCC_Clocks->SYSCLK_Frequency = (RCC_Clocks->SYSCLK_Frequency * 5)>>1;
     f74:	e28d                	bnez	a3,f96 <RCC_GetClocksFreq+0x146>
C:/ch32/data/CH32V307EVT/EVT/EXAM/SRC/Peripheral/src/ch32v30x_rcc.c:651 (discriminator 1)
     f76:	4695                	li	a3,5
C:/ch32/data/CH32V307EVT/EVT/EXAM/SRC/Peripheral/src/ch32v30x_rcc.c:652 (discriminator 1)
                    else if(Pll2mull == 1) RCC_Clocks->SYSCLK_Frequency = (RCC_Clocks->SYSCLK_Frequency * 25)>>1;
     f78:	02d70733          	mul	a4,a4,a3
     f7c:	8305                	srli	a4,a4,0x1
C:/ch32/data/CH32V307EVT/EVT/EXAM/SRC/Peripheral/src/ch32v30x_rcc.c:654
                    else  RCC_Clocks->SYSCLK_Frequency = RCC_Clocks->SYSCLK_Frequency * (Pll2mull + 2);
     f7e:	c118                	sw	a4,0(a0)
C:/ch32/data/CH32V307EVT/EVT/EXAM/SRC/Peripheral/src/ch32v30x_rcc.c:656
                    RCC_Clocks->SYSCLK_Frequency = RCC_Clocks->SYSCLK_Frequency/((RCC->CFGR2 & 0xF) + 1);  /* PREDIV1 */
     f80:	40021737          	lui	a4,0x40021
     f84:	5758                	lw	a4,44(a4)
     f86:	4114                	lw	a3,0(a0)
     f88:	8b3d                	andi	a4,a4,15
     f8a:	0705                	addi	a4,a4,1
     f8c:	02e6d733          	divu	a4,a3,a4
C:/ch32/data/CH32V307EVT/EVT/EXAM/SRC/Peripheral/src/ch32v30x_rcc.c:659
                    RCC_Clocks->SYSCLK_Frequency = HSE_VALUE/((RCC->CFGR2 & 0xF) + 1);  /* PREDIV1 */
     f90:	c118                	sw	a4,0(a0)
C:/ch32/data/CH32V307EVT/EVT/EXAM/SRC/Peripheral/src/ch32v30x_rcc.c:662
                RCC_Clocks->SYSCLK_Frequency = RCC_Clocks->SYSCLK_Frequency * pllmull;
     f92:	4118                	lw	a4,0(a0)
     f94:	b771                	j	f20 <RCC_GetClocksFreq+0xd0>
C:/ch32/data/CH32V307EVT/EVT/EXAM/SRC/Peripheral/src/ch32v30x_rcc.c:652
                    else if(Pll2mull == 1) RCC_Clocks->SYSCLK_Frequency = (RCC_Clocks->SYSCLK_Frequency * 25)>>1;
     f96:	4585                	li	a1,1
     f98:	00b69463          	bne	a3,a1,fa0 <RCC_GetClocksFreq+0x150>
C:/ch32/data/CH32V307EVT/EVT/EXAM/SRC/Peripheral/src/ch32v30x_rcc.c:652 (discriminator 1)
     f9c:	46e5                	li	a3,25
     f9e:	bfe9                	j	f78 <RCC_GetClocksFreq+0x128>
C:/ch32/data/CH32V307EVT/EVT/EXAM/SRC/Peripheral/src/ch32v30x_rcc.c:653
                    else if(Pll2mull == 15) RCC_Clocks->SYSCLK_Frequency = RCC_Clocks->SYSCLK_Frequency * 20;
     fa0:	45bd                	li	a1,15
     fa2:	00b69663          	bne	a3,a1,fae <RCC_GetClocksFreq+0x15e>
C:/ch32/data/CH32V307EVT/EVT/EXAM/SRC/Peripheral/src/ch32v30x_rcc.c:653 (discriminator 1)
     fa6:	46d1                	li	a3,20
C:/ch32/data/CH32V307EVT/EVT/EXAM/SRC/Peripheral/src/ch32v30x_rcc.c:654
                    else  RCC_Clocks->SYSCLK_Frequency = RCC_Clocks->SYSCLK_Frequency * (Pll2mull + 2);
     fa8:	02e68733          	mul	a4,a3,a4
     fac:	bfc9                	j	f7e <RCC_GetClocksFreq+0x12e>
     fae:	0689                	addi	a3,a3,2
     fb0:	bfe5                	j	fa8 <RCC_GetClocksFreq+0x158>
C:/ch32/data/CH32V307EVT/EVT/EXAM/SRC/Peripheral/src/ch32v30x_rcc.c:659
                    RCC_Clocks->SYSCLK_Frequency = HSE_VALUE/((RCC->CFGR2 & 0xF) + 1);  /* PREDIV1 */
     fb2:	8b3d                	andi	a4,a4,15
     fb4:	00170693          	addi	a3,a4,1 # 40021001 <_eusrstack+0x20011001>
     fb8:	007a1737          	lui	a4,0x7a1
     fbc:	20070713          	addi	a4,a4,512 # 7a1200 <_data_lma+0x7955ac>
     fc0:	02d75733          	divu	a4,a4,a3
     fc4:	b7f1                	j	f90 <RCC_GetClocksFreq+0x140>

00000fc6 <RCC_AHBPeriphClockCmd>:
RCC_AHBPeriphClockCmd():
C:/ch32/data/CH32V307EVT/EVT/EXAM/SRC/Peripheral/src/ch32v30x_rcc.c:722
 *
 * @return  none
 */
void RCC_AHBPeriphClockCmd(uint32_t RCC_AHBPeriph, FunctionalState NewState)
{
    if(NewState != DISABLE)
     fc6:	c599                	beqz	a1,fd4 <RCC_AHBPeriphClockCmd+0xe>
C:/ch32/data/CH32V307EVT/EVT/EXAM/SRC/Peripheral/src/ch32v30x_rcc.c:724
    {
        RCC->AHBPCENR |= RCC_AHBPeriph;
     fc8:	40021737          	lui	a4,0x40021
     fcc:	4b5c                	lw	a5,20(a4)
     fce:	8d5d                	or	a0,a0,a5
     fd0:	cb48                	sw	a0,20(a4)
     fd2:	8082                	ret
C:/ch32/data/CH32V307EVT/EVT/EXAM/SRC/Peripheral/src/ch32v30x_rcc.c:728
    }
    else
    {
        RCC->AHBPCENR &= ~RCC_AHBPeriph;
     fd4:	400217b7          	lui	a5,0x40021
     fd8:	4bd8                	lw	a4,20(a5)
     fda:	fff54513          	not	a0,a0
     fde:	8d79                	and	a0,a0,a4
     fe0:	cbc8                	sw	a0,20(a5)
C:/ch32/data/CH32V307EVT/EVT/EXAM/SRC/Peripheral/src/ch32v30x_rcc.c:730
    }
}
     fe2:	8082                	ret

00000fe4 <RCC_APB2PeriphClockCmd>:
RCC_APB2PeriphClockCmd():
C:/ch32/data/CH32V307EVT/EVT/EXAM/SRC/Peripheral/src/ch32v30x_rcc.c:758
 *
 * @return  none
 */
void RCC_APB2PeriphClockCmd(uint32_t RCC_APB2Periph, FunctionalState NewState)
{
    if(NewState != DISABLE)
     fe4:	c599                	beqz	a1,ff2 <RCC_APB2PeriphClockCmd+0xe>
C:/ch32/data/CH32V307EVT/EVT/EXAM/SRC/Peripheral/src/ch32v30x_rcc.c:760
    {
        RCC->APB2PCENR |= RCC_APB2Periph;
     fe6:	40021737          	lui	a4,0x40021
     fea:	4f1c                	lw	a5,24(a4)
     fec:	8d5d                	or	a0,a0,a5
     fee:	cf08                	sw	a0,24(a4)
     ff0:	8082                	ret
C:/ch32/data/CH32V307EVT/EVT/EXAM/SRC/Peripheral/src/ch32v30x_rcc.c:764
    }
    else
    {
        RCC->APB2PCENR &= ~RCC_APB2Periph;
     ff2:	400217b7          	lui	a5,0x40021
     ff6:	4f98                	lw	a4,24(a5)
     ff8:	fff54513          	not	a0,a0
     ffc:	8d79                	and	a0,a0,a4
     ffe:	cf88                	sw	a0,24(a5)
C:/ch32/data/CH32V307EVT/EVT/EXAM/SRC/Peripheral/src/ch32v30x_rcc.c:766
    }
}
    1000:	8082                	ret

00001002 <RCC_APB1PeriphClockCmd>:
RCC_APB1PeriphClockCmd():
C:/ch32/data/CH32V307EVT/EVT/EXAM/SRC/Peripheral/src/ch32v30x_rcc.c:803
 *
 * @return  none
 */
void RCC_APB1PeriphClockCmd(uint32_t RCC_APB1Periph, FunctionalState NewState)
{
    if(NewState != DISABLE)
    1002:	c599                	beqz	a1,1010 <RCC_APB1PeriphClockCmd+0xe>
C:/ch32/data/CH32V307EVT/EVT/EXAM/SRC/Peripheral/src/ch32v30x_rcc.c:805
    {
        RCC->APB1PCENR |= RCC_APB1Periph;
    1004:	40021737          	lui	a4,0x40021
    1008:	4f5c                	lw	a5,28(a4)
    100a:	8d5d                	or	a0,a0,a5
    100c:	cf48                	sw	a0,28(a4)
    100e:	8082                	ret
C:/ch32/data/CH32V307EVT/EVT/EXAM/SRC/Peripheral/src/ch32v30x_rcc.c:809
    }
    else
    {
        RCC->APB1PCENR &= ~RCC_APB1Periph;
    1010:	400217b7          	lui	a5,0x40021
    1014:	4fd8                	lw	a4,28(a5)
    1016:	fff54513          	not	a0,a0
    101a:	8d79                	and	a0,a0,a4
    101c:	cfc8                	sw	a0,28(a5)
C:/ch32/data/CH32V307EVT/EVT/EXAM/SRC/Peripheral/src/ch32v30x_rcc.c:811
    }
}
    101e:	8082                	ret

00001020 <RCC_GetFlagStatus>:
RCC_GetFlagStatus():
C:/ch32/data/CH32V307EVT/EVT/EXAM/SRC/Peripheral/src/ch32v30x_rcc.c:987
{
    uint32_t tmp = 0;
    uint32_t statusreg = 0;

    FlagStatus bitstatus = RESET;
    tmp = RCC_FLAG >> 5;
    1020:	00555793          	srli	a5,a0,0x5
C:/ch32/data/CH32V307EVT/EVT/EXAM/SRC/Peripheral/src/ch32v30x_rcc.c:989

    if(tmp == 1)
    1024:	4705                	li	a4,1
    1026:	00e79963          	bne	a5,a4,1038 <RCC_GetFlagStatus+0x18>
C:/ch32/data/CH32V307EVT/EVT/EXAM/SRC/Peripheral/src/ch32v30x_rcc.c:991
    {
        statusreg = RCC->CTLR;
    102a:	400217b7          	lui	a5,0x40021
    102e:	439c                	lw	a5,0(a5)
C:/ch32/data/CH32V307EVT/EVT/EXAM/SRC/Peripheral/src/ch32v30x_rcc.c:1004
        statusreg = RCC->RSTSCKR;
    }

    tmp = RCC_FLAG & FLAG_Mask;

    if((statusreg & ((uint32_t)1 << tmp)) != (uint32_t)RESET)
    1030:	00a7d533          	srl	a0,a5,a0
C:/ch32/data/CH32V307EVT/EVT/EXAM/SRC/Peripheral/src/ch32v30x_rcc.c:1014
    {
        bitstatus = RESET;
    }

    return bitstatus;
}
    1034:	8905                	andi	a0,a0,1
    1036:	8082                	ret
C:/ch32/data/CH32V307EVT/EVT/EXAM/SRC/Peripheral/src/ch32v30x_rcc.c:993
    else if(tmp == 2)
    1038:	4709                	li	a4,2
    103a:	00e79663          	bne	a5,a4,1046 <RCC_GetFlagStatus+0x26>
C:/ch32/data/CH32V307EVT/EVT/EXAM/SRC/Peripheral/src/ch32v30x_rcc.c:995
        statusreg = RCC->BDCTLR;
    103e:	400217b7          	lui	a5,0x40021
    1042:	539c                	lw	a5,32(a5)
    1044:	b7f5                	j	1030 <RCC_GetFlagStatus+0x10>
C:/ch32/data/CH32V307EVT/EVT/EXAM/SRC/Peripheral/src/ch32v30x_rcc.c:999
        statusreg = RCC->RSTSCKR;
    1046:	400217b7          	lui	a5,0x40021
    104a:	53dc                	lw	a5,36(a5)
    104c:	b7d5                	j	1030 <RCC_GetFlagStatus+0x10>

0000104e <RCC_PREDIV2Config>:
RCC_PREDIV2Config():
C:/ch32/data/CH32V307EVT/EVT/EXAM/SRC/Peripheral/src/ch32v30x_rcc.c:1127
 */
void RCC_PREDIV2Config(uint32_t RCC_PREDIV2_Div)
{
    uint32_t tmpreg = 0;

    tmpreg = RCC->CFGR2;
    104e:	40021737          	lui	a4,0x40021
    1052:	575c                	lw	a5,44(a4)
C:/ch32/data/CH32V307EVT/EVT/EXAM/SRC/Peripheral/src/ch32v30x_rcc.c:1128
    tmpreg &= ~CFGR2_PREDIV2;
    1054:	f0f7f793          	andi	a5,a5,-241
C:/ch32/data/CH32V307EVT/EVT/EXAM/SRC/Peripheral/src/ch32v30x_rcc.c:1129
    tmpreg |= RCC_PREDIV2_Div;
    1058:	8d5d                	or	a0,a0,a5
C:/ch32/data/CH32V307EVT/EVT/EXAM/SRC/Peripheral/src/ch32v30x_rcc.c:1130
    RCC->CFGR2 = tmpreg;
    105a:	d748                	sw	a0,44(a4)
C:/ch32/data/CH32V307EVT/EVT/EXAM/SRC/Peripheral/src/ch32v30x_rcc.c:1131
}
    105c:	8082                	ret

0000105e <RCC_PLL3Config>:
RCC_PLL3Config():
C:/ch32/data/CH32V307EVT/EVT/EXAM/SRC/Peripheral/src/ch32v30x_rcc.c:1196
 */
void RCC_PLL3Config(uint32_t RCC_PLL3Mul)
{
    uint32_t tmpreg = 0;

    tmpreg = RCC->CFGR2;
    105e:	400216b7          	lui	a3,0x40021
    1062:	56dc                	lw	a5,44(a3)
C:/ch32/data/CH32V307EVT/EVT/EXAM/SRC/Peripheral/src/ch32v30x_rcc.c:1197
    tmpreg &= ~CFGR2_PLL3MUL;
    1064:	7745                	lui	a4,0xffff1
    1066:	177d                	addi	a4,a4,-1
    1068:	8ff9                	and	a5,a5,a4
C:/ch32/data/CH32V307EVT/EVT/EXAM/SRC/Peripheral/src/ch32v30x_rcc.c:1198
    tmpreg |= RCC_PLL3Mul;
    106a:	8d5d                	or	a0,a0,a5
C:/ch32/data/CH32V307EVT/EVT/EXAM/SRC/Peripheral/src/ch32v30x_rcc.c:1199
    RCC->CFGR2 = tmpreg;
    106c:	d6c8                	sw	a0,44(a3)
C:/ch32/data/CH32V307EVT/EVT/EXAM/SRC/Peripheral/src/ch32v30x_rcc.c:1200
}
    106e:	8082                	ret

00001070 <RCC_PLL3Cmd>:
RCC_PLL3Cmd():
C:/ch32/data/CH32V307EVT/EVT/EXAM/SRC/Peripheral/src/ch32v30x_rcc.c:1214
 *
 * @return  none
 */
void RCC_PLL3Cmd(FunctionalState NewState)
{
    if(NewState)
    1070:	c909                	beqz	a0,1082 <RCC_PLL3Cmd+0x12>
C:/ch32/data/CH32V307EVT/EVT/EXAM/SRC/Peripheral/src/ch32v30x_rcc.c:1216
    {
        RCC->CTLR |= (1 << 28);
    1072:	40021737          	lui	a4,0x40021
    1076:	431c                	lw	a5,0(a4)
    1078:	100006b7          	lui	a3,0x10000
    107c:	8fd5                	or	a5,a5,a3
    107e:	c31c                	sw	a5,0(a4)
    1080:	8082                	ret
C:/ch32/data/CH32V307EVT/EVT/EXAM/SRC/Peripheral/src/ch32v30x_rcc.c:1220
    }
    else
    {
        RCC->CTLR &= ~(1 << 28);
    1082:	400216b7          	lui	a3,0x40021
    1086:	429c                	lw	a5,0(a3)
    1088:	f0000737          	lui	a4,0xf0000
    108c:	177d                	addi	a4,a4,-1
    108e:	8ff9                	and	a5,a5,a4
    1090:	c29c                	sw	a5,0(a3)
C:/ch32/data/CH32V307EVT/EVT/EXAM/SRC/Peripheral/src/ch32v30x_rcc.c:1222
    }
}
    1092:	8082                	ret

00001094 <RCC_AHBPeriphResetCmd>:
RCC_AHBPeriphResetCmd():
C:/ch32/data/CH32V307EVT/EVT/EXAM/SRC/Peripheral/src/ch32v30x_rcc.c:1295
 *
 * @return  none
 */
void RCC_AHBPeriphResetCmd(uint32_t RCC_AHBPeriph, FunctionalState NewState)
{
    if(NewState != DISABLE)
    1094:	c599                	beqz	a1,10a2 <RCC_AHBPeriphResetCmd+0xe>
C:/ch32/data/CH32V307EVT/EVT/EXAM/SRC/Peripheral/src/ch32v30x_rcc.c:1297
    {
        RCC->AHBRSTR |= RCC_AHBPeriph;
    1096:	40021737          	lui	a4,0x40021
    109a:	571c                	lw	a5,40(a4)
    109c:	8d5d                	or	a0,a0,a5
    109e:	d708                	sw	a0,40(a4)
    10a0:	8082                	ret
C:/ch32/data/CH32V307EVT/EVT/EXAM/SRC/Peripheral/src/ch32v30x_rcc.c:1301
    }
    else
    {
        RCC->AHBRSTR &= ~RCC_AHBPeriph;
    10a2:	400217b7          	lui	a5,0x40021
    10a6:	5798                	lw	a4,40(a5)
    10a8:	fff54513          	not	a0,a0
    10ac:	8d79                	and	a0,a0,a4
    10ae:	d788                	sw	a0,40(a5)
C:/ch32/data/CH32V307EVT/EVT/EXAM/SRC/Peripheral/src/ch32v30x_rcc.c:1303
    }
}
    10b0:	8082                	ret

000010b2 <TIM_TimeBaseInit>:
TIM_TimeBaseInit():
C:/ch32/data/CH32V307EVT/EVT/EXAM/SRC/Peripheral/src/ch32v30x_tim.c:110
 */
void TIM_TimeBaseInit(TIM_TypeDef *TIMx, TIM_TimeBaseInitTypeDef *TIM_TimeBaseInitStruct)
{
    uint16_t tmpcr1 = 0;

    tmpcr1 = TIMx->CTLR1;
    10b2:	211e                	lhu	a5,0(a0)
C:/ch32/data/CH32V307EVT/EVT/EXAM/SRC/Peripheral/src/ch32v30x_tim.c:112

    if((TIMx == TIM1) || (TIMx == TIM2) || (TIMx == TIM3) || (TIMx == TIM4) ||
    10b4:	40013737          	lui	a4,0x40013
    10b8:	c0070693          	addi	a3,a4,-1024 # 40012c00 <_eusrstack+0x20002c00>
C:/ch32/data/CH32V307EVT/EVT/EXAM/SRC/Peripheral/src/ch32v30x_tim.c:110
    tmpcr1 = TIMx->CTLR1;
    10bc:	07c2                	slli	a5,a5,0x10
    10be:	83c1                	srli	a5,a5,0x10
C:/ch32/data/CH32V307EVT/EVT/EXAM/SRC/Peripheral/src/ch32v30x_tim.c:112
    if((TIMx == TIM1) || (TIMx == TIM2) || (TIMx == TIM3) || (TIMx == TIM4) ||
    10c0:	04d50063          	beq	a0,a3,1100 <TIM_TimeBaseInit+0x4e>
C:/ch32/data/CH32V307EVT/EVT/EXAM/SRC/Peripheral/src/ch32v30x_tim.c:112 (discriminator 1)
    10c4:	400006b7          	lui	a3,0x40000
    10c8:	02d50c63          	beq	a0,a3,1100 <TIM_TimeBaseInit+0x4e>
C:/ch32/data/CH32V307EVT/EVT/EXAM/SRC/Peripheral/src/ch32v30x_tim.c:112 (discriminator 2)
    10cc:	40068693          	addi	a3,a3,1024 # 40000400 <_eusrstack+0x1fff0400>
    10d0:	02d50863          	beq	a0,a3,1100 <TIM_TimeBaseInit+0x4e>
C:/ch32/data/CH32V307EVT/EVT/EXAM/SRC/Peripheral/src/ch32v30x_tim.c:112 (discriminator 3)
    10d4:	400016b7          	lui	a3,0x40001
    10d8:	80068613          	addi	a2,a3,-2048 # 40000800 <_eusrstack+0x1fff0800>
    10dc:	02c50263          	beq	a0,a2,1100 <TIM_TimeBaseInit+0x4e>
C:/ch32/data/CH32V307EVT/EVT/EXAM/SRC/Peripheral/src/ch32v30x_tim.c:112 (discriminator 4)
    10e0:	c0068693          	addi	a3,a3,-1024
    10e4:	00d50e63          	beq	a0,a3,1100 <TIM_TimeBaseInit+0x4e>
C:/ch32/data/CH32V307EVT/EVT/EXAM/SRC/Peripheral/src/ch32v30x_tim.c:113
       (TIMx == TIM5) || (TIMx == TIM8) || (TIMx == TIM9) || (TIMx == TIM10))
    10e8:	40070713          	addi	a4,a4,1024
    10ec:	00e50a63          	beq	a0,a4,1100 <TIM_TimeBaseInit+0x4e>
C:/ch32/data/CH32V307EVT/EVT/EXAM/SRC/Peripheral/src/ch32v30x_tim.c:113 (discriminator 1)
    10f0:	40015737          	lui	a4,0x40015
    10f4:	c0070693          	addi	a3,a4,-1024 # 40014c00 <_eusrstack+0x20004c00>
    10f8:	00d50463          	beq	a0,a3,1100 <TIM_TimeBaseInit+0x4e>
C:/ch32/data/CH32V307EVT/EVT/EXAM/SRC/Peripheral/src/ch32v30x_tim.c:113 (discriminator 2)
    10fc:	00e51663          	bne	a0,a4,1108 <TIM_TimeBaseInit+0x56>
C:/ch32/data/CH32V307EVT/EVT/EXAM/SRC/Peripheral/src/ch32v30x_tim.c:116
    {
        tmpcr1 &= (uint16_t)(~((uint16_t)(TIM_DIR | TIM_CMS)));
        tmpcr1 |= (uint32_t)TIM_TimeBaseInitStruct->TIM_CounterMode;
    1100:	21ba                	lhu	a4,2(a1)
C:/ch32/data/CH32V307EVT/EVT/EXAM/SRC/Peripheral/src/ch32v30x_tim.c:115
        tmpcr1 &= (uint16_t)(~((uint16_t)(TIM_DIR | TIM_CMS)));
    1102:	f8f7f793          	andi	a5,a5,-113
C:/ch32/data/CH32V307EVT/EVT/EXAM/SRC/Peripheral/src/ch32v30x_tim.c:116
        tmpcr1 |= (uint32_t)TIM_TimeBaseInitStruct->TIM_CounterMode;
    1106:	8fd9                	or	a5,a5,a4
C:/ch32/data/CH32V307EVT/EVT/EXAM/SRC/Peripheral/src/ch32v30x_tim.c:119
    }

    if((TIMx != TIM6) && (TIMx != TIM7))
    1108:	40001737          	lui	a4,0x40001
    110c:	00e50c63          	beq	a0,a4,1124 <TIM_TimeBaseInit+0x72>
C:/ch32/data/CH32V307EVT/EVT/EXAM/SRC/Peripheral/src/ch32v30x_tim.c:119 (discriminator 1)
    1110:	40070713          	addi	a4,a4,1024 # 40001400 <_eusrstack+0x1fff1400>
    1114:	00e50863          	beq	a0,a4,1124 <TIM_TimeBaseInit+0x72>
C:/ch32/data/CH32V307EVT/EVT/EXAM/SRC/Peripheral/src/ch32v30x_tim.c:121
    {
        tmpcr1 &= (uint16_t)(~((uint16_t)TIM_CTLR1_CKD));
    1118:	cff7f793          	andi	a5,a5,-769
C:/ch32/data/CH32V307EVT/EVT/EXAM/SRC/Peripheral/src/ch32v30x_tim.c:122
        tmpcr1 |= (uint32_t)TIM_TimeBaseInitStruct->TIM_ClockDivision;
    111c:	21fa                	lhu	a4,6(a1)
C:/ch32/data/CH32V307EVT/EVT/EXAM/SRC/Peripheral/src/ch32v30x_tim.c:121
        tmpcr1 &= (uint16_t)(~((uint16_t)TIM_CTLR1_CKD));
    111e:	07c2                	slli	a5,a5,0x10
    1120:	83c1                	srli	a5,a5,0x10
C:/ch32/data/CH32V307EVT/EVT/EXAM/SRC/Peripheral/src/ch32v30x_tim.c:122
        tmpcr1 |= (uint32_t)TIM_TimeBaseInitStruct->TIM_ClockDivision;
    1122:	8fd9                	or	a5,a5,a4
C:/ch32/data/CH32V307EVT/EVT/EXAM/SRC/Peripheral/src/ch32v30x_tim.c:125
    }

    TIMx->CTLR1 = tmpcr1;
    1124:	a11e                	sh	a5,0(a0)
C:/ch32/data/CH32V307EVT/EVT/EXAM/SRC/Peripheral/src/ch32v30x_tim.c:126
    TIMx->ATRLR = TIM_TimeBaseInitStruct->TIM_Period;
    1126:	21de                	lhu	a5,4(a1)
    1128:	b55e                	sh	a5,44(a0)
C:/ch32/data/CH32V307EVT/EVT/EXAM/SRC/Peripheral/src/ch32v30x_tim.c:127
    TIMx->PSC = TIM_TimeBaseInitStruct->TIM_Prescaler;
    112a:	219e                	lhu	a5,0(a1)
    112c:	b51e                	sh	a5,40(a0)
C:/ch32/data/CH32V307EVT/EVT/EXAM/SRC/Peripheral/src/ch32v30x_tim.c:129

    if((TIMx == TIM1) || (TIMx == TIM8) || (TIMx == TIM9) || (TIMx == TIM10))
    112e:	400137b7          	lui	a5,0x40013
    1132:	c0078713          	addi	a4,a5,-1024 # 40012c00 <_eusrstack+0x20002c00>
    1136:	00e50e63          	beq	a0,a4,1152 <TIM_TimeBaseInit+0xa0>
C:/ch32/data/CH32V307EVT/EVT/EXAM/SRC/Peripheral/src/ch32v30x_tim.c:129 (discriminator 1)
    113a:	40078793          	addi	a5,a5,1024
    113e:	00f50a63          	beq	a0,a5,1152 <TIM_TimeBaseInit+0xa0>
C:/ch32/data/CH32V307EVT/EVT/EXAM/SRC/Peripheral/src/ch32v30x_tim.c:129 (discriminator 2)
    1142:	400157b7          	lui	a5,0x40015
    1146:	c0078713          	addi	a4,a5,-1024 # 40014c00 <_eusrstack+0x20004c00>
    114a:	00e50463          	beq	a0,a4,1152 <TIM_TimeBaseInit+0xa0>
C:/ch32/data/CH32V307EVT/EVT/EXAM/SRC/Peripheral/src/ch32v30x_tim.c:129 (discriminator 3)
    114e:	00f51463          	bne	a0,a5,1156 <TIM_TimeBaseInit+0xa4>
C:/ch32/data/CH32V307EVT/EVT/EXAM/SRC/Peripheral/src/ch32v30x_tim.c:131
    {
        TIMx->RPTCR = TIM_TimeBaseInitStruct->TIM_RepetitionCounter;
    1152:	259c                	lbu	a5,8(a1)
    1154:	b91e                	sh	a5,48(a0)
C:/ch32/data/CH32V307EVT/EVT/EXAM/SRC/Peripheral/src/ch32v30x_tim.c:134
    }

    TIMx->SWEVGR = TIM_PSCReloadMode_Immediate;
    1156:	4785                	li	a5,1
    1158:	a95e                	sh	a5,20(a0)
C:/ch32/data/CH32V307EVT/EVT/EXAM/SRC/Peripheral/src/ch32v30x_tim.c:135
}
    115a:	8082                	ret

0000115c <TIM_Cmd>:
TIM_Cmd():
C:/ch32/data/CH32V307EVT/EVT/EXAM/SRC/Peripheral/src/ch32v30x_tim.c:516
 */
void TIM_Cmd(TIM_TypeDef *TIMx, FunctionalState NewState)
{
    if(NewState != DISABLE)
    {
        TIMx->CTLR1 |= TIM_CEN;
    115c:	211e                	lhu	a5,0(a0)
C:/ch32/data/CH32V307EVT/EVT/EXAM/SRC/Peripheral/src/ch32v30x_tim.c:514
    if(NewState != DISABLE)
    115e:	c589                	beqz	a1,1168 <TIM_Cmd+0xc>
C:/ch32/data/CH32V307EVT/EVT/EXAM/SRC/Peripheral/src/ch32v30x_tim.c:516
        TIMx->CTLR1 |= TIM_CEN;
    1160:	0017e793          	ori	a5,a5,1
C:/ch32/data/CH32V307EVT/EVT/EXAM/SRC/Peripheral/src/ch32v30x_tim.c:520
    }
    else
    {
        TIMx->CTLR1 &= (uint16_t)(~((uint16_t)TIM_CEN));
    1164:	a11e                	sh	a5,0(a0)
C:/ch32/data/CH32V307EVT/EVT/EXAM/SRC/Peripheral/src/ch32v30x_tim.c:522
    }
}
    1166:	8082                	ret
C:/ch32/data/CH32V307EVT/EVT/EXAM/SRC/Peripheral/src/ch32v30x_tim.c:520
        TIMx->CTLR1 &= (uint16_t)(~((uint16_t)TIM_CEN));
    1168:	07c2                	slli	a5,a5,0x10
    116a:	83c1                	srli	a5,a5,0x10
    116c:	9bf9                	andi	a5,a5,-2
    116e:	07c2                	slli	a5,a5,0x10
    1170:	83c1                	srli	a5,a5,0x10
    1172:	bfcd                	j	1164 <TIM_Cmd+0x8>

00001174 <TIM_ITConfig>:
TIM_ITConfig():
C:/ch32/data/CH32V307EVT/EVT/EXAM/SRC/Peripheral/src/ch32v30x_tim.c:569
 */
void TIM_ITConfig(TIM_TypeDef *TIMx, uint16_t TIM_IT, FunctionalState NewState)
{
    if(NewState != DISABLE)
    {
        TIMx->DMAINTENR |= TIM_IT;
    1174:	255e                	lhu	a5,12(a0)
C:/ch32/data/CH32V307EVT/EVT/EXAM/SRC/Peripheral/src/ch32v30x_tim.c:567
    if(NewState != DISABLE)
    1176:	c601                	beqz	a2,117e <TIM_ITConfig+0xa>
C:/ch32/data/CH32V307EVT/EVT/EXAM/SRC/Peripheral/src/ch32v30x_tim.c:569
        TIMx->DMAINTENR |= TIM_IT;
    1178:	8ddd                	or	a1,a1,a5
C:/ch32/data/CH32V307EVT/EVT/EXAM/SRC/Peripheral/src/ch32v30x_tim.c:573
    }
    else
    {
        TIMx->DMAINTENR &= (uint16_t)~TIM_IT;
    117a:	a54e                	sh	a1,12(a0)
C:/ch32/data/CH32V307EVT/EVT/EXAM/SRC/Peripheral/src/ch32v30x_tim.c:575
    }
}
    117c:	8082                	ret
C:/ch32/data/CH32V307EVT/EVT/EXAM/SRC/Peripheral/src/ch32v30x_tim.c:573
        TIMx->DMAINTENR &= (uint16_t)~TIM_IT;
    117e:	fff5c593          	not	a1,a1
    1182:	8dfd                	and	a1,a1,a5
    1184:	bfdd                	j	117a <TIM_ITConfig+0x6>

00001186 <TIM_ClearFlag>:
TIM_ClearFlag():
C:/ch32/data/CH32V307EVT/EVT/EXAM/SRC/Peripheral/src/ch32v30x_tim.c:2109
 *
 * @return  none
 */
void TIM_ClearFlag(TIM_TypeDef *TIMx, uint16_t TIM_FLAG)
{
    TIMx->INTFR = (uint16_t)~TIM_FLAG;
    1186:	fff5c593          	not	a1,a1
    118a:	05c2                	slli	a1,a1,0x10
    118c:	81c1                	srli	a1,a1,0x10
    118e:	a90e                	sh	a1,16(a0)
C:/ch32/data/CH32V307EVT/EVT/EXAM/SRC/Peripheral/src/ch32v30x_tim.c:2110
}
    1190:	8082                	ret

00001192 <TIM_ClearITPendingBit>:
TIM_ClearITPendingBit():
    1192:	fff5c593          	not	a1,a1
    1196:	05c2                	slli	a1,a1,0x10
    1198:	81c1                	srli	a1,a1,0x10
    119a:	a90e                	sh	a1,16(a0)
    119c:	8082                	ret

0000119e <USART_Init>:
USART_Init():
C:/ch32/data/CH32V307EVT/EVT/EXAM/SRC/Peripheral/src/ch32v30x_usart.c:128
 *        USART peripheral.
 *
 * @return  none
 */
void USART_Init(USART_TypeDef *USARTx, USART_InitTypeDef *USART_InitStruct)
{
    119e:	892ff2ef          	jal	t0,230 <__riscv_save_0>
C:/ch32/data/CH32V307EVT/EVT/EXAM/SRC/Peripheral/src/ch32v30x_usart.c:140
    if(USART_InitStruct->USART_HardwareFlowControl != USART_HardwareFlowControl_None)
    {
    }

    usartxbase = (uint32_t)USARTx;
    tmpreg = USARTx->CTLR2;
    11a2:	2916                	lhu	a3,16(a0)
    11a4:	77f5                	lui	a5,0xffffd
    11a6:	17fd                	addi	a5,a5,-1
    11a8:	8ff5                	and	a5,a5,a3
    11aa:	21f6                	lhu	a3,6(a1)
C:/ch32/data/CH32V307EVT/EVT/EXAM/SRC/Peripheral/src/ch32v30x_usart.c:135
    if(USART_InitStruct->USART_HardwareFlowControl != USART_HardwareFlowControl_None)
    11ac:	25da                	lhu	a4,12(a1)
C:/ch32/data/CH32V307EVT/EVT/EXAM/SRC/Peripheral/src/ch32v30x_usart.c:128
{
    11ae:	7179                	addi	sp,sp,-48
    11b0:	8fd5                	or	a5,a5,a3
C:/ch32/data/CH32V307EVT/EVT/EXAM/SRC/Peripheral/src/ch32v30x_usart.c:144
    tmpreg &= CTLR2_STOP_CLEAR_Mask;
    tmpreg |= (uint32_t)USART_InitStruct->USART_StopBits;

    USARTx->CTLR2 = (uint16_t)tmpreg;
    11b2:	a91e                	sh	a5,16(a0)
C:/ch32/data/CH32V307EVT/EVT/EXAM/SRC/Peripheral/src/ch32v30x_usart.c:145
    tmpreg = USARTx->CTLR1;
    11b4:	2556                	lhu	a3,12(a0)
C:/ch32/data/CH32V307EVT/EVT/EXAM/SRC/Peripheral/src/ch32v30x_usart.c:147
    tmpreg &= CTLR1_CLEAR_Mask;
    tmpreg |= (uint32_t)USART_InitStruct->USART_WordLength | USART_InitStruct->USART_Parity |
    11b6:	77fd                	lui	a5,0xfffff
    11b8:	9f378793          	addi	a5,a5,-1549 # ffffe9f3 <_eusrstack+0xdffee9f3>
    11bc:	8ff5                	and	a5,a5,a3
    11be:	21d6                	lhu	a3,4(a1)
C:/ch32/data/CH32V307EVT/EVT/EXAM/SRC/Peripheral/src/ch32v30x_usart.c:128
{
    11c0:	842a                	mv	s0,a0
    11c2:	c62e                	sw	a1,12(sp)
    11c4:	8fd5                	or	a5,a5,a3
    11c6:	2596                	lhu	a3,8(a1)
    11c8:	8fd5                	or	a5,a5,a3
    11ca:	25b6                	lhu	a3,10(a1)
    11cc:	8fd5                	or	a5,a5,a3
C:/ch32/data/CH32V307EVT/EVT/EXAM/SRC/Peripheral/src/ch32v30x_usart.c:149
              USART_InitStruct->USART_Mode;
    USARTx->CTLR1 = (uint16_t)tmpreg;
    11ce:	a55e                	sh	a5,12(a0)
C:/ch32/data/CH32V307EVT/EVT/EXAM/SRC/Peripheral/src/ch32v30x_usart.c:151

    tmpreg = USARTx->CTLR3;
    11d0:	295e                	lhu	a5,20(a0)
    11d2:	07c2                	slli	a5,a5,0x10
    11d4:	83c1                	srli	a5,a5,0x10
C:/ch32/data/CH32V307EVT/EVT/EXAM/SRC/Peripheral/src/ch32v30x_usart.c:153
    tmpreg &= CTLR3_CLEAR_Mask;
    tmpreg |= USART_InitStruct->USART_HardwareFlowControl;
    11d6:	cff7f793          	andi	a5,a5,-769
    11da:	8fd9                	or	a5,a5,a4
C:/ch32/data/CH32V307EVT/EVT/EXAM/SRC/Peripheral/src/ch32v30x_usart.c:154
    USARTx->CTLR3 = (uint16_t)tmpreg;
    11dc:	a95e                	sh	a5,20(a0)
C:/ch32/data/CH32V307EVT/EVT/EXAM/SRC/Peripheral/src/ch32v30x_usart.c:156

    RCC_GetClocksFreq(&RCC_ClocksStatus);
    11de:	0868                	addi	a0,sp,28
    11e0:	3985                	jal	e50 <RCC_GetClocksFreq>
C:/ch32/data/CH32V307EVT/EVT/EXAM/SRC/Peripheral/src/ch32v30x_usart.c:158

    if(usartxbase == USART1_BASE)
    11e2:	400147b7          	lui	a5,0x40014
    11e6:	80078793          	addi	a5,a5,-2048 # 40013800 <_eusrstack+0x20003800>
    11ea:	45b2                	lw	a1,12(sp)
    11ec:	04f41a63          	bne	s0,a5,1240 <USART_Init+0xa2>
C:/ch32/data/CH32V307EVT/EVT/EXAM/SRC/Peripheral/src/ch32v30x_usart.c:160
    {
        apbclock = RCC_ClocksStatus.PCLK2_Frequency;
    11f0:	57a2                	lw	a5,40(sp)
C:/ch32/data/CH32V307EVT/EVT/EXAM/SRC/Peripheral/src/ch32v30x_usart.c:167
    else
    {
        apbclock = RCC_ClocksStatus.PCLK1_Frequency;
    }

    if((USARTx->CTLR1 & CTLR1_OVER8_Set) != 0)
    11f2:	2456                	lhu	a3,12(s0)
    11f4:	4765                	li	a4,25
    11f6:	02e787b3          	mul	a5,a5,a4
    11fa:	06c2                	slli	a3,a3,0x10
    11fc:	86c1                	srai	a3,a3,0x10
    11fe:	4198                	lw	a4,0(a1)
    1200:	0406d263          	bgez	a3,1244 <USART_Init+0xa6>
C:/ch32/data/CH32V307EVT/EVT/EXAM/SRC/Peripheral/src/ch32v30x_usart.c:169
    {
        integerdivider = ((25 * apbclock) / (2 * (USART_InitStruct->USART_BaudRate)));
    1204:	0706                	slli	a4,a4,0x1
C:/ch32/data/CH32V307EVT/EVT/EXAM/SRC/Peripheral/src/ch32v30x_usart.c:179
    }
    tmpreg = (integerdivider / 100) << 4;

    fractionaldivider = integerdivider - (100 * (tmpreg >> 4));

    if((USARTx->CTLR1 & CTLR1_OVER8_Set) != 0)
    1206:	2452                	lhu	a2,12(s0)
    1208:	0642                	slli	a2,a2,0x10
C:/ch32/data/CH32V307EVT/EVT/EXAM/SRC/Peripheral/src/ch32v30x_usart.c:173
        integerdivider = ((25 * apbclock) / (4 * (USART_InitStruct->USART_BaudRate)));
    120a:	02e7d7b3          	divu	a5,a5,a4
C:/ch32/data/CH32V307EVT/EVT/EXAM/SRC/Peripheral/src/ch32v30x_usart.c:175
    tmpreg = (integerdivider / 100) << 4;
    120e:	06400713          	li	a4,100
C:/ch32/data/CH32V307EVT/EVT/EXAM/SRC/Peripheral/src/ch32v30x_usart.c:179
    if((USARTx->CTLR1 & CTLR1_OVER8_Set) != 0)
    1212:	8641                	srai	a2,a2,0x10
C:/ch32/data/CH32V307EVT/EVT/EXAM/SRC/Peripheral/src/ch32v30x_usart.c:175
    tmpreg = (integerdivider / 100) << 4;
    1214:	02e7d6b3          	divu	a3,a5,a4
    1218:	02e7f7b3          	remu	a5,a5,a4
    121c:	0692                	slli	a3,a3,0x4
C:/ch32/data/CH32V307EVT/EVT/EXAM/SRC/Peripheral/src/ch32v30x_usart.c:179
    if((USARTx->CTLR1 & CTLR1_OVER8_Set) != 0)
    121e:	02065563          	bgez	a2,1248 <USART_Init+0xaa>
C:/ch32/data/CH32V307EVT/EVT/EXAM/SRC/Peripheral/src/ch32v30x_usart.c:181
    {
        tmpreg |= ((((fractionaldivider * 8) + 50) / 100)) & ((uint8_t)0x07);
    1222:	078e                	slli	a5,a5,0x3
    1224:	03278793          	addi	a5,a5,50
    1228:	02e7d7b3          	divu	a5,a5,a4
    122c:	0077f713          	andi	a4,a5,7
    1230:	00d767b3          	or	a5,a4,a3
C:/ch32/data/CH32V307EVT/EVT/EXAM/SRC/Peripheral/src/ch32v30x_usart.c:188
    else
    {
        tmpreg |= ((((fractionaldivider * 16) + 50) / 100)) & ((uint8_t)0x0F);
    }

    USARTx->BRR = (uint16_t)tmpreg;
    1234:	07c2                	slli	a5,a5,0x10
    1236:	83c1                	srli	a5,a5,0x10
    1238:	a41e                	sh	a5,8(s0)
C:/ch32/data/CH32V307EVT/EVT/EXAM/SRC/Peripheral/src/ch32v30x_usart.c:189
}
    123a:	6145                	addi	sp,sp,48
    123c:	818ff06f          	j	254 <__riscv_restore_0>
C:/ch32/data/CH32V307EVT/EVT/EXAM/SRC/Peripheral/src/ch32v30x_usart.c:164
        apbclock = RCC_ClocksStatus.PCLK1_Frequency;
    1240:	5792                	lw	a5,36(sp)
    1242:	bf45                	j	11f2 <USART_Init+0x54>
C:/ch32/data/CH32V307EVT/EVT/EXAM/SRC/Peripheral/src/ch32v30x_usart.c:173
        integerdivider = ((25 * apbclock) / (4 * (USART_InitStruct->USART_BaudRate)));
    1244:	070a                	slli	a4,a4,0x2
    1246:	b7c1                	j	1206 <USART_Init+0x68>
C:/ch32/data/CH32V307EVT/EVT/EXAM/SRC/Peripheral/src/ch32v30x_usart.c:185
        tmpreg |= ((((fractionaldivider * 16) + 50) / 100)) & ((uint8_t)0x0F);
    1248:	0792                	slli	a5,a5,0x4
    124a:	03278793          	addi	a5,a5,50
    124e:	02e7d7b3          	divu	a5,a5,a4
    1252:	8bbd                	andi	a5,a5,15
    1254:	8fd5                	or	a5,a5,a3
    1256:	bff9                	j	1234 <USART_Init+0x96>

00001258 <USART_Cmd>:
USART_Cmd():
C:/ch32/data/CH32V307EVT/EVT/EXAM/SRC/Peripheral/src/ch32v30x_usart.c:266
 *
 * @return  none
 */
void USART_Cmd(USART_TypeDef *USARTx, FunctionalState NewState)
{
    if(NewState != DISABLE)
    1258:	c591                	beqz	a1,1264 <USART_Cmd+0xc>
C:/ch32/data/CH32V307EVT/EVT/EXAM/SRC/Peripheral/src/ch32v30x_usart.c:268
    {
        USARTx->CTLR1 |= CTLR1_UE_Set;
    125a:	255e                	lhu	a5,12(a0)
    125c:	6709                	lui	a4,0x2
    125e:	8fd9                	or	a5,a5,a4
C:/ch32/data/CH32V307EVT/EVT/EXAM/SRC/Peripheral/src/ch32v30x_usart.c:272
    }
    else
    {
        USARTx->CTLR1 &= CTLR1_UE_Reset;
    1260:	a55e                	sh	a5,12(a0)
C:/ch32/data/CH32V307EVT/EVT/EXAM/SRC/Peripheral/src/ch32v30x_usart.c:274
    }
}
    1262:	8082                	ret
C:/ch32/data/CH32V307EVT/EVT/EXAM/SRC/Peripheral/src/ch32v30x_usart.c:272
        USARTx->CTLR1 &= CTLR1_UE_Reset;
    1264:	255a                	lhu	a4,12(a0)
    1266:	77f9                	lui	a5,0xffffe
    1268:	17fd                	addi	a5,a5,-1
    126a:	8ff9                	and	a5,a5,a4
    126c:	bfd5                	j	1260 <USART_Cmd+0x8>

0000126e <USART_SendData>:
USART_SendData():
C:/ch32/data/CH32V307EVT/EVT/EXAM/SRC/Peripheral/src/ch32v30x_usart.c:461
 *
 * @return  none
 */
void USART_SendData(USART_TypeDef *USARTx, uint16_t Data)
{
    USARTx->DATAR = (Data & (uint16_t)0x01FF);
    126e:	1ff5f593          	andi	a1,a1,511
    1272:	a14e                	sh	a1,4(a0)
C:/ch32/data/CH32V307EVT/EVT/EXAM/SRC/Peripheral/src/ch32v30x_usart.c:462
}
    1274:	8082                	ret

00001276 <USART_GetFlagStatus>:
USART_GetFlagStatus():
C:/ch32/data/CH32V307EVT/EVT/EXAM/SRC/Peripheral/src/ch32v30x_usart.c:699
 */
FlagStatus USART_GetFlagStatus(USART_TypeDef *USARTx, uint16_t USART_FLAG)
{
    FlagStatus bitstatus = RESET;

    if((USARTx->STATR & USART_FLAG) != (uint16_t)RESET)
    1276:	210a                	lhu	a0,0(a0)
    1278:	8d6d                	and	a0,a0,a1
C:/ch32/data/CH32V307EVT/EVT/EXAM/SRC/Peripheral/src/ch32v30x_usart.c:708
    else
    {
        bitstatus = RESET;
    }
    return bitstatus;
}
    127a:	00a03533          	snez	a0,a0
    127e:	8082                	ret

00001280 <ETH_TxPktChainMode>:
ETH_TxPktChainMode():
C:/ch32/data/CH32V307EVT/EVT/EXAM/ETH/NetLib/eth_driver.c:630
 * @return  Send status.
 */
uint32_t ETH_TxPktChainMode(uint16_t len, uint32_t *pBuff )
{
    /* Check if the descriptor is owned by the ETHERNET DMA (when set) or CPU (when reset) */
    if((DMATxDescToSet->Status & ETH_DMATxDesc_OWN) != (u32)RESET)
    1280:	8681a783          	lw	a5,-1944(gp) # 20000088 <DMATxDescToSet>
    1284:	4394                	lw	a3,0(a5)
    1286:	0406c063          	bltz	a3,12c6 <ETH_TxPktChainMode+0x46>
C:/ch32/data/CH32V307EVT/EVT/EXAM/ETH/NetLib/eth_driver.c:638
        return ETH_ERROR;
    }
    /* Setting the Frame Length: bits[12:0] */
    DMATxDescToSet->ControlBufferSize = (len & ETH_DMATxDesc_TBS1);
    DMATxDescToSet->Buffer1Addr = (uint32_t)pBuff;
    pDMATxSet = DMATxDescToSet;
    128a:	86f1ac23          	sw	a5,-1928(gp) # 20000098 <pDMATxSet>
C:/ch32/data/CH32V307EVT/EVT/EXAM/ETH/NetLib/eth_driver.c:641
    /* Setting the last segment and first segment bits (in this case a frame is transmitted in one descriptor) */
#if HARDWARE_CHECKSUM_CONFIG
    DMATxDescToSet->Status |= ETH_DMATxDesc_LS | ETH_DMATxDesc_FS | ETH_DMATxDesc_CIC_TCPUDPICMP_Full;
    128e:	4394                	lw	a3,0(a5)
    1290:	30c00637          	lui	a2,0x30c00
C:/ch32/data/CH32V307EVT/EVT/EXAM/ETH/NetLib/eth_driver.c:636
    DMATxDescToSet->ControlBufferSize = (len & ETH_DMATxDesc_TBS1);
    1294:	054e                	slli	a0,a0,0x13
C:/ch32/data/CH32V307EVT/EVT/EXAM/ETH/NetLib/eth_driver.c:641
    DMATxDescToSet->Status |= ETH_DMATxDesc_LS | ETH_DMATxDesc_FS | ETH_DMATxDesc_CIC_TCPUDPICMP_Full;
    1296:	8ed1                	or	a3,a3,a2
    1298:	c394                	sw	a3,0(a5)
C:/ch32/data/CH32V307EVT/EVT/EXAM/ETH/NetLib/eth_driver.c:647
#else
    DMATxDescToSet->Status |= ETH_DMATxDesc_LS | ETH_DMATxDesc_FS;
#endif

    /* Set Own bit of the Tx descriptor Status: gives the buffer back to ETHERNET DMA */
    DMATxDescToSet->Status |= ETH_DMATxDesc_OWN;
    129a:	4394                	lw	a3,0(a5)
    129c:	80000637          	lui	a2,0x80000
C:/ch32/data/CH32V307EVT/EVT/EXAM/ETH/NetLib/eth_driver.c:636
    DMATxDescToSet->ControlBufferSize = (len & ETH_DMATxDesc_TBS1);
    12a0:	814d                	srli	a0,a0,0x13
C:/ch32/data/CH32V307EVT/EVT/EXAM/ETH/NetLib/eth_driver.c:647
    DMATxDescToSet->Status |= ETH_DMATxDesc_OWN;
    12a2:	8ed1                	or	a3,a3,a2
    12a4:	c394                	sw	a3,0(a5)
C:/ch32/data/CH32V307EVT/EVT/EXAM/ETH/NetLib/eth_driver.c:636
    DMATxDescToSet->ControlBufferSize = (len & ETH_DMATxDesc_TBS1);
    12a6:	c3c8                	sw	a0,4(a5)
C:/ch32/data/CH32V307EVT/EVT/EXAM/ETH/NetLib/eth_driver.c:637
    DMATxDescToSet->Buffer1Addr = (uint32_t)pBuff;
    12a8:	c78c                	sw	a1,8(a5)
C:/ch32/data/CH32V307EVT/EVT/EXAM/ETH/NetLib/eth_driver.c:650

    /* When Tx Buffer unavailable flag is set: clear it and resume transmission */
    if ((ETH->DMASR & ETH_DMASR_TBUS) != (u32)RESET)
    12aa:	400296b7          	lui	a3,0x40029
    12ae:	4ad0                	lw	a2,20(a3)
    12b0:	8a11                	andi	a2,a2,4
    12b2:	c609                	beqz	a2,12bc <ETH_TxPktChainMode+0x3c>
C:/ch32/data/CH32V307EVT/EVT/EXAM/ETH/NetLib/eth_driver.c:653
    {
        /* Clear TBUS ETHERNET DMA flag */
        ETH->DMASR = ETH_DMASR_TBUS;
    12b4:	4611                	li	a2,4
    12b6:	cad0                	sw	a2,20(a3)
C:/ch32/data/CH32V307EVT/EVT/EXAM/ETH/NetLib/eth_driver.c:655
        /* Resume DMA transmission*/
        ETH->DMATPDR = 0;
    12b8:	0006a223          	sw	zero,4(a3) # 40029004 <_eusrstack+0x20019004>
C:/ch32/data/CH32V307EVT/EVT/EXAM/ETH/NetLib/eth_driver.c:660
    }
    /* Update the ETHERNET DMA global Tx descriptor with next Tx descriptor */
    /* Chained Mode */
    /* Selects the next DMA Tx descriptor list for next buffer to send */
    DMATxDescToSet = (ETH_DMADESCTypeDef*) (DMATxDescToSet->Buffer2NextDescAddr);
    12bc:	47dc                	lw	a5,12(a5)
C:/ch32/data/CH32V307EVT/EVT/EXAM/ETH/NetLib/eth_driver.c:662
    /* Return SUCCESS */
    return ETH_SUCCESS;
    12be:	4505                	li	a0,1
C:/ch32/data/CH32V307EVT/EVT/EXAM/ETH/NetLib/eth_driver.c:660
    DMATxDescToSet = (ETH_DMADESCTypeDef*) (DMATxDescToSet->Buffer2NextDescAddr);
    12c0:	86f1a423          	sw	a5,-1944(gp) # 20000088 <DMATxDescToSet>
C:/ch32/data/CH32V307EVT/EVT/EXAM/ETH/NetLib/eth_driver.c:662
    return ETH_SUCCESS;
    12c4:	8082                	ret
C:/ch32/data/CH32V307EVT/EVT/EXAM/ETH/NetLib/eth_driver.c:633
        return ETH_ERROR;
    12c6:	4501                	li	a0,0
C:/ch32/data/CH32V307EVT/EVT/EXAM/ETH/NetLib/eth_driver.c:663
}
    12c8:	8082                	ret

000012ca <ETH_LedDataSet>:
ETH_LedDataSet():
C:/ch32/data/CH32V307EVT/EVT/EXAM/ETH/NetLib/eth_driver.c:272
{
    12ca:	f67fe2ef          	jal	t0,230 <__riscv_save_0>
C:/ch32/data/CH32V307EVT/EVT/EXAM/ETH/NetLib/eth_driver.c:273
    if( mode == LED_OFF )
    12ce:	4785                	li	a5,1
C:/ch32/data/CH32V307EVT/EVT/EXAM/ETH/NetLib/eth_driver.c:275
        GPIO_SetBits(GPIOC, GPIO_Pin_1);
    12d0:	4589                	li	a1,2
C:/ch32/data/CH32V307EVT/EVT/EXAM/ETH/NetLib/eth_driver.c:273
    if( mode == LED_OFF )
    12d2:	00f51763          	bne	a0,a5,12e0 <ETH_LedDataSet+0x16>
C:/ch32/data/CH32V307EVT/EVT/EXAM/ETH/NetLib/eth_driver.c:275
        GPIO_SetBits(GPIOC, GPIO_Pin_1);
    12d6:	40011537          	lui	a0,0x40011
    12da:	3695                	jal	e3e <GPIO_SetBits>
C:/ch32/data/CH32V307EVT/EVT/EXAM/ETH/NetLib/eth_driver.c:281
}
    12dc:	f79fe06f          	j	254 <__riscv_restore_0>
C:/ch32/data/CH32V307EVT/EVT/EXAM/ETH/NetLib/eth_driver.c:279
        GPIO_ResetBits(GPIOC, GPIO_Pin_1);
    12e0:	40011537          	lui	a0,0x40011
    12e4:	3eb9                	jal	e42 <GPIO_ResetBits>
C:/ch32/data/CH32V307EVT/EVT/EXAM/ETH/NetLib/eth_driver.c:281
}
    12e6:	bfdd                	j	12dc <ETH_LedDataSet+0x12>

000012e8 <ETH_LedLinkSet>:
ETH_LedLinkSet():
C:/ch32/data/CH32V307EVT/EVT/EXAM/ETH/NetLib/eth_driver.c:253
{
    12e8:	f49fe2ef          	jal	t0,230 <__riscv_save_0>
C:/ch32/data/CH32V307EVT/EVT/EXAM/ETH/NetLib/eth_driver.c:254
    if( mode == LED_OFF )
    12ec:	4785                	li	a5,1
C:/ch32/data/CH32V307EVT/EVT/EXAM/ETH/NetLib/eth_driver.c:256
        GPIO_SetBits(GPIOC, GPIO_Pin_0);
    12ee:	4585                	li	a1,1
C:/ch32/data/CH32V307EVT/EVT/EXAM/ETH/NetLib/eth_driver.c:254
    if( mode == LED_OFF )
    12f0:	00f51763          	bne	a0,a5,12fe <ETH_LedLinkSet+0x16>
C:/ch32/data/CH32V307EVT/EVT/EXAM/ETH/NetLib/eth_driver.c:256
        GPIO_SetBits(GPIOC, GPIO_Pin_0);
    12f4:	40011537          	lui	a0,0x40011
    12f8:	3699                	jal	e3e <GPIO_SetBits>
C:/ch32/data/CH32V307EVT/EVT/EXAM/ETH/NetLib/eth_driver.c:262
}
    12fa:	f5bfe06f          	j	254 <__riscv_restore_0>
C:/ch32/data/CH32V307EVT/EVT/EXAM/ETH/NetLib/eth_driver.c:260
        GPIO_ResetBits(GPIOC, GPIO_Pin_0);
    12fe:	40011537          	lui	a0,0x40011
    1302:	3681                	jal	e42 <GPIO_ResetBits>
C:/ch32/data/CH32V307EVT/EVT/EXAM/ETH/NetLib/eth_driver.c:262
}
    1304:	bfdd                	j	12fa <ETH_LedLinkSet+0x12>

00001306 <WCHNET_GetMacAddr>:
WCHNET_GetMacAddr():
C:/ch32/data/CH32V307EVT/EVT/EXAM/ETH/NetLib/eth_driver.c:79
        *p = *macaddr;
    1306:	1ffff737          	lui	a4,0x1ffff
C:/ch32/data/CH32V307EVT/EVT/EXAM/ETH/NetLib/eth_driver.c:73
{
    130a:	4781                	li	a5,0
C:/ch32/data/CH32V307EVT/EVT/EXAM/ETH/NetLib/eth_driver.c:79
        *p = *macaddr;
    130c:	7ed70713          	addi	a4,a4,2029 # 1ffff7ed <_data_lma+0x1fff3b99>
C:/ch32/data/CH32V307EVT/EVT/EXAM/ETH/NetLib/eth_driver.c:77
    for(i=0;i<6;i++)
    1310:	4699                	li	a3,6
C:/ch32/data/CH32V307EVT/EVT/EXAM/ETH/NetLib/eth_driver.c:79 (discriminator 3)
        *p = *macaddr;
    1312:	40f70633          	sub	a2,a4,a5
    1316:	220c                	lbu	a1,0(a2)
    1318:	00f50633          	add	a2,a0,a5
    131c:	0785                	addi	a5,a5,1
    131e:	a20c                	sb	a1,0(a2)
C:/ch32/data/CH32V307EVT/EVT/EXAM/ETH/NetLib/eth_driver.c:77 (discriminator 3)
    for(i=0;i<6;i++)
    1320:	fed799e3          	bne	a5,a3,1312 <WCHNET_GetMacAddr+0xc>
C:/ch32/data/CH32V307EVT/EVT/EXAM/ETH/NetLib/eth_driver.c:83
}
    1324:	8082                	ret

00001326 <WCHNET_TimeIsr>:
WCHNET_TimeIsr():
C:/ch32/data/CH32V307EVT/EVT/EXAM/ETH/NetLib/eth_driver.c:94
    LocalTime += timperiod;
    1326:	86c18793          	addi	a5,gp,-1940 # 2000008c <LocalTime>
    132a:	4398                	lw	a4,0(a5)
    132c:	953a                	add	a0,a0,a4
    132e:	c388                	sw	a0,0(a5)
C:/ch32/data/CH32V307EVT/EVT/EXAM/ETH/NetLib/eth_driver.c:95
}
    1330:	8082                	ret

00001332 <WCHNET_LinkProcess>:
WCHNET_LinkProcess():
C:/ch32/data/CH32V307EVT/EVT/EXAM/ETH/NetLib/eth_driver.c:129
{
    1332:	efffe2ef          	jal	t0,230 <__riscv_save_0>
C:/ch32/data/CH32V307EVT/EVT/EXAM/ETH/NetLib/eth_driver.c:131
    phy_anlpar = ETH_ReadPHYRegister(gPHYAddress, PHY_ANLPAR);
    1336:	87018413          	addi	s0,gp,-1936 # 20000090 <gPHYAddress>
    133a:	200a                	lhu	a0,0(s0)
    133c:	4595                	li	a1,5
    133e:	87fff0ef          	jal	ra,bbc <ETH_ReadPHYRegister>
    1342:	84aa                	mv	s1,a0
C:/ch32/data/CH32V307EVT/EVT/EXAM/ETH/NetLib/eth_driver.c:132
    phy_bmsr = ETH_ReadPHYRegister( gPHYAddress, PHY_BMSR);
    1344:	200a                	lhu	a0,0(s0)
    1346:	4585                	li	a1,1
C:/ch32/data/CH32V307EVT/EVT/EXAM/ETH/NetLib/eth_driver.c:134
    if( (phy_anlpar&PHY_ANLPAR_SELECTOR_FIELD) )
    1348:	88fd                	andi	s1,s1,31
C:/ch32/data/CH32V307EVT/EVT/EXAM/ETH/NetLib/eth_driver.c:132
    phy_bmsr = ETH_ReadPHYRegister( gPHYAddress, PHY_BMSR);
    134a:	873ff0ef          	jal	ra,bbc <ETH_ReadPHYRegister>
C:/ch32/data/CH32V307EVT/EVT/EXAM/ETH/NetLib/eth_driver.c:134
    if( (phy_anlpar&PHY_ANLPAR_SELECTOR_FIELD) )
    134e:	87d18793          	addi	a5,gp,-1923 # 2000009d <phyLinkStatus>
    1352:	c8c9                	beqz	s1,13e4 <WCHNET_LinkProcess+0xb2>
C:/ch32/data/CH32V307EVT/EVT/EXAM/ETH/NetLib/eth_driver.c:136
        if( !(phyLinkStatus&PHY_LINK_WAIT_SUC) )
    1354:	00078703          	lb	a4,0(a5) # ffffe000 <_eusrstack+0xdffee000>
    1358:	04074563          	bltz	a4,13a2 <WCHNET_LinkProcess+0x70>
C:/ch32/data/CH32V307EVT/EVT/EXAM/ETH/NetLib/eth_driver.c:138
            if( phyPN == PHY_PN_SWITCH_AUTO )
    135c:	81c18493          	addi	s1,gp,-2020 # 2000003c <phyPN>
    1360:	2094                	lbu	a3,0(s1)
    1362:	4721                	li	a4,8
    1364:	02e69663          	bne	a3,a4,1390 <WCHNET_LinkProcess+0x5e>
C:/ch32/data/CH32V307EVT/EVT/EXAM/ETH/NetLib/eth_driver.c:140
                PHY_PN_SWITCH(PHY_PN_SWITCH_P);
    1368:	200a                	lhu	a0,0(s0)
    136a:	4581                	li	a1,0
    136c:	851ff0ef          	jal	ra,bbc <ETH_ReadPHYRegister>
    1370:	20056613          	ori	a2,a0,512
    1374:	200a                	lhu	a0,0(s0)
    1376:	0642                	slli	a2,a2,0x10
    1378:	8241                	srli	a2,a2,0x10
    137a:	4581                	li	a1,0
    137c:	899ff0ef          	jal	ra,c14 <ETH_WritePHYRegister>
    1380:	4601                	li	a2,0
    1382:	00048023          	sb	zero,0(s1)
C:/ch32/data/CH32V307EVT/EVT/EXAM/ETH/NetLib/eth_driver.c:159
                ETH_WritePHYRegister(gPHYAddress, PHY_MDIX, phyPN);
    1386:	200a                	lhu	a0,0(s0)
    1388:	45f9                	li	a1,30
    138a:	88bff0ef          	jal	ra,c14 <ETH_WritePHYRegister>
    138e:	a021                	j	1396 <WCHNET_LinkProcess+0x64>
C:/ch32/data/CH32V307EVT/EVT/EXAM/ETH/NetLib/eth_driver.c:144
                phyLinkStatus = PHY_LINK_WAIT_SUC;
    1390:	f8000713          	li	a4,-128
    1394:	a398                	sb	a4,0(a5)
C:/ch32/data/CH32V307EVT/EVT/EXAM/ETH/NetLib/eth_driver.c:162
        phyLinkCnt = 0;
    1396:	86018e23          	sb	zero,-1924(gp) # 2000009c <phyLinkCnt>
C:/ch32/data/CH32V307EVT/EVT/EXAM/ETH/NetLib/eth_driver.c:163
        phyRetryCnt = 0;
    139a:	88018223          	sb	zero,-1916(gp) # 200000a4 <phyRetryCnt>
C:/ch32/data/CH32V307EVT/EVT/EXAM/ETH/NetLib/eth_driver.c:200
}
    139e:	eb7fe06f          	j	254 <__riscv_restore_0>
C:/ch32/data/CH32V307EVT/EVT/EXAM/ETH/NetLib/eth_driver.c:152
            if((phySucCnt++ == 5) && ((phy_bmsr&(1<<5)) == 0))
    13a2:	88618793          	addi	a5,gp,-1914 # 200000a6 <phySucCnt>
    13a6:	2398                	lbu	a4,0(a5)
    13a8:	00170693          	addi	a3,a4,1
    13ac:	a394                	sb	a3,0(a5)
    13ae:	4695                	li	a3,5
    13b0:	fed713e3          	bne	a4,a3,1396 <WCHNET_LinkProcess+0x64>
C:/ch32/data/CH32V307EVT/EVT/EXAM/ETH/NetLib/eth_driver.c:152 (discriminator 1)
    13b4:	02057513          	andi	a0,a0,32
    13b8:	fd79                	bnez	a0,1396 <WCHNET_LinkProcess+0x64>
C:/ch32/data/CH32V307EVT/EVT/EXAM/ETH/NetLib/eth_driver.c:155
                RegVal = ETH_ReadPHYRegister(gPHYAddress, PHY_BCR);
    13ba:	200a                	lhu	a0,0(s0)
    13bc:	4581                	li	a1,0
C:/ch32/data/CH32V307EVT/EVT/EXAM/ETH/NetLib/eth_driver.c:154
                phySucCnt = 0;
    13be:	00078023          	sb	zero,0(a5)
C:/ch32/data/CH32V307EVT/EVT/EXAM/ETH/NetLib/eth_driver.c:155
                RegVal = ETH_ReadPHYRegister(gPHYAddress, PHY_BCR);
    13c2:	ffaff0ef          	jal	ra,bbc <ETH_ReadPHYRegister>
C:/ch32/data/CH32V307EVT/EVT/EXAM/ETH/NetLib/eth_driver.c:156
                RegVal |= 1<<9;
    13c6:	20056613          	ori	a2,a0,512
C:/ch32/data/CH32V307EVT/EVT/EXAM/ETH/NetLib/eth_driver.c:157
                ETH_WritePHYRegister( gPHYAddress, PHY_BCR, RegVal);
    13ca:	200a                	lhu	a0,0(s0)
    13cc:	0642                	slli	a2,a2,0x10
    13ce:	8241                	srli	a2,a2,0x10
    13d0:	4581                	li	a1,0
    13d2:	843ff0ef          	jal	ra,c14 <ETH_WritePHYRegister>
C:/ch32/data/CH32V307EVT/EVT/EXAM/ETH/NetLib/eth_driver.c:158
                phyPN ^= PHY_PN_SWITCH_N;
    13d6:	81c18793          	addi	a5,gp,-2020 # 2000003c <phyPN>
    13da:	2390                	lbu	a2,0(a5)
    13dc:	00464613          	xori	a2,a2,4
    13e0:	a390                	sb	a2,0(a5)
    13e2:	b755                	j	1386 <WCHNET_LinkProcess+0x54>
C:/ch32/data/CH32V307EVT/EVT/EXAM/ETH/NetLib/eth_driver.c:167
        if( phyLinkStatus == PHY_LINK_WAIT_SUC )
    13e4:	2394                	lbu	a3,0(a5)
    13e6:	08000713          	li	a4,128
    13ea:	04e69763          	bne	a3,a4,1438 <WCHNET_LinkProcess+0x106>
C:/ch32/data/CH32V307EVT/EVT/EXAM/ETH/NetLib/eth_driver.c:169
            phyRetryCnt = 0;
    13ee:	88018223          	sb	zero,-1916(gp) # 200000a4 <phyRetryCnt>
C:/ch32/data/CH32V307EVT/EVT/EXAM/ETH/NetLib/eth_driver.c:170
            if(phyLinkCnt++ == 15 )
    13f2:	87c18713          	addi	a4,gp,-1924 # 2000009c <phyLinkCnt>
    13f6:	2310                	lbu	a2,0(a4)
    13f8:	45bd                	li	a1,15
    13fa:	00160693          	addi	a3,a2,1 # 80000001 <_eusrstack+0x5fff0001>
    13fe:	0ff6f693          	andi	a3,a3,255
    1402:	00b60463          	beq	a2,a1,140a <WCHNET_LinkProcess+0xd8>
C:/ch32/data/CH32V307EVT/EVT/EXAM/ETH/NetLib/eth_driver.c:187
                if(phyLinkCnt++ == 15 )
    1406:	a314                	sb	a3,0(a4)
    1408:	bf59                	j	139e <WCHNET_LinkProcess+0x6c>
C:/ch32/data/CH32V307EVT/EVT/EXAM/ETH/NetLib/eth_driver.c:175
                PHY_PN_SWITCH(PHY_PN_SWITCH_AUTO);
    140a:	200a                	lhu	a0,0(s0)
C:/ch32/data/CH32V307EVT/EVT/EXAM/ETH/NetLib/eth_driver.c:172
                phyLinkCnt = 0;
    140c:	00070023          	sb	zero,0(a4)
C:/ch32/data/CH32V307EVT/EVT/EXAM/ETH/NetLib/eth_driver.c:175
                PHY_PN_SWITCH(PHY_PN_SWITCH_AUTO);
    1410:	4581                	li	a1,0
C:/ch32/data/CH32V307EVT/EVT/EXAM/ETH/NetLib/eth_driver.c:173
                phySucCnt = 0;
    1412:	88018323          	sb	zero,-1914(gp) # 200000a6 <phySucCnt>
C:/ch32/data/CH32V307EVT/EVT/EXAM/ETH/NetLib/eth_driver.c:174
                phyLinkStatus = PHY_LINK_INIT;
    1416:	00078023          	sb	zero,0(a5)
C:/ch32/data/CH32V307EVT/EVT/EXAM/ETH/NetLib/eth_driver.c:175
                PHY_PN_SWITCH(PHY_PN_SWITCH_AUTO);
    141a:	fa2ff0ef          	jal	ra,bbc <ETH_ReadPHYRegister>
    141e:	20056613          	ori	a2,a0,512
    1422:	200a                	lhu	a0,0(s0)
    1424:	0642                	slli	a2,a2,0x10
    1426:	8241                	srli	a2,a2,0x10
    1428:	4581                	li	a1,0
    142a:	feaff0ef          	jal	ra,c14 <ETH_WritePHYRegister>
    142e:	4721                	li	a4,8
    1430:	80e18e23          	sb	a4,-2020(gp) # 2000003c <phyPN>
C:/ch32/data/CH32V307EVT/EVT/EXAM/ETH/NetLib/eth_driver.c:196 (discriminator 1)
                PHY_RESTART_NEGOTIATION( );
    1434:	4621                	li	a2,8
    1436:	a025                	j	145e <WCHNET_LinkProcess+0x12c>
C:/ch32/data/CH32V307EVT/EVT/EXAM/ETH/NetLib/eth_driver.c:180
            if( phyPN == PHY_PN_SWITCH_P )
    1438:	81c18493          	addi	s1,gp,-2020 # 2000003c <phyPN>
    143c:	2094                	lbu	a3,0(s1)
    143e:	e68d                	bnez	a3,1468 <WCHNET_LinkProcess+0x136>
C:/ch32/data/CH32V307EVT/EVT/EXAM/ETH/NetLib/eth_driver.c:182
                PHY_PN_SWITCH(PHY_PN_SWITCH_N);
    1440:	200a                	lhu	a0,0(s0)
    1442:	4581                	li	a1,0
    1444:	f78ff0ef          	jal	ra,bbc <ETH_ReadPHYRegister>
    1448:	20056613          	ori	a2,a0,512
    144c:	200a                	lhu	a0,0(s0)
    144e:	0642                	slli	a2,a2,0x10
    1450:	8241                	srli	a2,a2,0x10
    1452:	4581                	li	a1,0
    1454:	fc0ff0ef          	jal	ra,c14 <ETH_WritePHYRegister>
    1458:	4791                	li	a5,4
    145a:	a09c                	sb	a5,0(s1)
    145c:	4611                	li	a2,4
C:/ch32/data/CH32V307EVT/EVT/EXAM/ETH/NetLib/eth_driver.c:196 (discriminator 1)
                PHY_RESTART_NEGOTIATION( );
    145e:	200a                	lhu	a0,0(s0)
    1460:	45f9                	li	a1,30
    1462:	fb2ff0ef          	jal	ra,c14 <ETH_WritePHYRegister>
C:/ch32/data/CH32V307EVT/EVT/EXAM/ETH/NetLib/eth_driver.c:200 (discriminator 1)
}
    1466:	bf25                	j	139e <WCHNET_LinkProcess+0x6c>
C:/ch32/data/CH32V307EVT/EVT/EXAM/ETH/NetLib/eth_driver.c:184
            else if( phyPN == PHY_PN_SWITCH_N )
    1468:	4611                	li	a2,4
    146a:	88418713          	addi	a4,gp,-1916 # 200000a4 <phyRetryCnt>
    146e:	04c69363          	bne	a3,a2,14b4 <WCHNET_LinkProcess+0x182>
C:/ch32/data/CH32V307EVT/EVT/EXAM/ETH/NetLib/eth_driver.c:186
                phyRetryCnt = 0;
    1472:	00070023          	sb	zero,0(a4)
C:/ch32/data/CH32V307EVT/EVT/EXAM/ETH/NetLib/eth_driver.c:187
                if(phyLinkCnt++ == 15 )
    1476:	87c18713          	addi	a4,gp,-1924 # 2000009c <phyLinkCnt>
    147a:	2310                	lbu	a2,0(a4)
    147c:	45bd                	li	a1,15
    147e:	00160693          	addi	a3,a2,1
    1482:	0ff6f693          	andi	a3,a3,255
    1486:	f8b610e3          	bne	a2,a1,1406 <WCHNET_LinkProcess+0xd4>
C:/ch32/data/CH32V307EVT/EVT/EXAM/ETH/NetLib/eth_driver.c:192
                    PHY_PN_SWITCH(PHY_PN_SWITCH_AUTO);
    148a:	200a                	lhu	a0,0(s0)
C:/ch32/data/CH32V307EVT/EVT/EXAM/ETH/NetLib/eth_driver.c:189
                    phyLinkCnt = 0;
    148c:	00070023          	sb	zero,0(a4)
C:/ch32/data/CH32V307EVT/EVT/EXAM/ETH/NetLib/eth_driver.c:192
                    PHY_PN_SWITCH(PHY_PN_SWITCH_AUTO);
    1490:	4581                	li	a1,0
C:/ch32/data/CH32V307EVT/EVT/EXAM/ETH/NetLib/eth_driver.c:191
                    phyLinkStatus = PHY_LINK_INIT;
    1492:	00078023          	sb	zero,0(a5)
C:/ch32/data/CH32V307EVT/EVT/EXAM/ETH/NetLib/eth_driver.c:190
                    phySucCnt = 0;
    1496:	88018323          	sb	zero,-1914(gp) # 200000a6 <phySucCnt>
C:/ch32/data/CH32V307EVT/EVT/EXAM/ETH/NetLib/eth_driver.c:192
                    PHY_PN_SWITCH(PHY_PN_SWITCH_AUTO);
    149a:	f22ff0ef          	jal	ra,bbc <ETH_ReadPHYRegister>
    149e:	20056613          	ori	a2,a0,512
    14a2:	200a                	lhu	a0,0(s0)
    14a4:	0642                	slli	a2,a2,0x10
    14a6:	8241                	srli	a2,a2,0x10
    14a8:	4581                	li	a1,0
    14aa:	f6aff0ef          	jal	ra,c14 <ETH_WritePHYRegister>
    14ae:	47a1                	li	a5,8
    14b0:	a09c                	sb	a5,0(s1)
    14b2:	b749                	j	1434 <WCHNET_LinkProcess+0x102>
C:/ch32/data/CH32V307EVT/EVT/EXAM/ETH/NetLib/eth_driver.c:196
                PHY_RESTART_NEGOTIATION( );
    14b4:	2314                	lbu	a3,0(a4)
    14b6:	06400613          	li	a2,100
    14ba:	00168793          	addi	a5,a3,1
    14be:	0ff7f793          	andi	a5,a5,255
    14c2:	00c68463          	beq	a3,a2,14ca <WCHNET_LinkProcess+0x198>
    14c6:	a31c                	sb	a5,0(a4)
    14c8:	bdd9                	j	139e <WCHNET_LinkProcess+0x6c>
C:/ch32/data/CH32V307EVT/EVT/EXAM/ETH/NetLib/eth_driver.c:196 (discriminator 1)
    14ca:	200a                	lhu	a0,0(s0)
    14cc:	6621                	lui	a2,0x8
    14ce:	4581                	li	a1,0
    14d0:	00070023          	sb	zero,0(a4)
    14d4:	f40ff0ef          	jal	ra,c14 <ETH_WritePHYRegister>
    14d8:	bfb1                	j	1434 <WCHNET_LinkProcess+0x102>

000014da <WCHNET_HandlePhyNegotiation>:
WCHNET_HandlePhyNegotiation():
C:/ch32/data/CH32V307EVT/EVT/EXAM/ETH/NetLib/eth_driver.c:213
    if( !phyStatus )                        /* Handling PHY Negotiation Exceptions */
    14da:	8851c783          	lbu	a5,-1915(gp) # 200000a5 <phyStatus>
    14de:	e39d                	bnez	a5,1504 <WCHNET_HandlePhyNegotiation+0x2a>
C:/ch32/data/CH32V307EVT/EVT/EXAM/ETH/NetLib/eth_driver.c:215
        if( LocalTime - phyLinkTime >= PHY_LINK_TASK_PERIOD )  /* 50ms cycle timing call */
    14e0:	86c18713          	addi	a4,gp,-1940 # 2000008c <LocalTime>
    14e4:	88018793          	addi	a5,gp,-1920 # 200000a0 <phyLinkTime>
    14e8:	4390                	lw	a2,0(a5)
    14ea:	4314                	lw	a3,0(a4)
    14ec:	8e91                	sub	a3,a3,a2
    14ee:	03100613          	li	a2,49
    14f2:	00d67963          	bgeu	a2,a3,1504 <WCHNET_HandlePhyNegotiation+0x2a>
C:/ch32/data/CH32V307EVT/EVT/EXAM/ETH/NetLib/eth_driver.c:212
{
    14f6:	d3bfe2ef          	jal	t0,230 <__riscv_save_0>
C:/ch32/data/CH32V307EVT/EVT/EXAM/ETH/NetLib/eth_driver.c:217
            phyLinkTime = LocalTime;
    14fa:	4318                	lw	a4,0(a4)
    14fc:	c398                	sw	a4,0(a5)
C:/ch32/data/CH32V307EVT/EVT/EXAM/ETH/NetLib/eth_driver.c:218
            WCHNET_LinkProcess( );
    14fe:	3d15                	jal	1332 <WCHNET_LinkProcess>
C:/ch32/data/CH32V307EVT/EVT/EXAM/ETH/NetLib/eth_driver.c:221
}
    1500:	d55fe06f          	j	254 <__riscv_restore_0>
    1504:	8082                	ret

00001506 <WCHNET_MainTask>:
WCHNET_MainTask():
C:/ch32/data/CH32V307EVT/EVT/EXAM/ETH/NetLib/eth_driver.c:231
{
    1506:	d2bfe2ef          	jal	t0,230 <__riscv_save_0>
C:/ch32/data/CH32V307EVT/EVT/EXAM/ETH/NetLib/eth_driver.c:232
    WCHNET_NetInput( );                     /* Ethernet data input */
    150a:	50f000ef          	jal	ra,2218 <WCHNET_NetInput>
C:/ch32/data/CH32V307EVT/EVT/EXAM/ETH/NetLib/eth_driver.c:233
    WCHNET_PeriodicHandle( );               /* Protocol stack time-related task processing */
    150e:	371000ef          	jal	ra,207e <WCHNET_PeriodicHandle>
C:/ch32/data/CH32V307EVT/EVT/EXAM/ETH/NetLib/eth_driver.c:236
    WCHNET_HandlePhyNegotiation();
    1512:	37e1                	jal	14da <WCHNET_HandlePhyNegotiation>
C:/ch32/data/CH32V307EVT/EVT/EXAM/ETH/NetLib/eth_driver.c:242
}
    1514:	d41fe06f          	j	254 <__riscv_restore_0>

00001518 <ETH_LedConfiguration>:
ETH_LedConfiguration():
C:/ch32/data/CH32V307EVT/EVT/EXAM/ETH/NetLib/eth_driver.c:291
{
    1518:	d19fe2ef          	jal	t0,230 <__riscv_save_0>
    151c:	1141                	addi	sp,sp,-16
C:/ch32/data/CH32V307EVT/EVT/EXAM/ETH/NetLib/eth_driver.c:294
    RCC_APB2PeriphClockCmd(RCC_APB2Periph_GPIOC,ENABLE);
    151e:	4585                	li	a1,1
    1520:	4541                	li	a0,16
C:/ch32/data/CH32V307EVT/EVT/EXAM/ETH/NetLib/eth_driver.c:292
    GPIO_InitTypeDef  GPIO={0};
    1522:	c202                	sw	zero,4(sp)
    1524:	c402                	sw	zero,8(sp)
    1526:	c602                	sw	zero,12(sp)
C:/ch32/data/CH32V307EVT/EVT/EXAM/ETH/NetLib/eth_driver.c:294
    RCC_APB2PeriphClockCmd(RCC_APB2Periph_GPIOC,ENABLE);
    1528:	abdff0ef          	jal	ra,fe4 <RCC_APB2PeriphClockCmd>
C:/ch32/data/CH32V307EVT/EVT/EXAM/ETH/NetLib/eth_driver.c:295
    GPIO.GPIO_Pin = GPIO_Pin_0|GPIO_Pin_1;
    152c:	478d                	li	a5,3
    152e:	827c                	sh	a5,4(sp)
C:/ch32/data/CH32V307EVT/EVT/EXAM/ETH/NetLib/eth_driver.c:296
    GPIO.GPIO_Mode = GPIO_Mode_Out_PP;
    1530:	47c1                	li	a5,16
    1532:	c63e                	sw	a5,12(sp)
C:/ch32/data/CH32V307EVT/EVT/EXAM/ETH/NetLib/eth_driver.c:298
    GPIO_Init(GPIOC,&GPIO);
    1534:	004c                	addi	a1,sp,4
C:/ch32/data/CH32V307EVT/EVT/EXAM/ETH/NetLib/eth_driver.c:297
    GPIO.GPIO_Speed = GPIO_Speed_50MHz;
    1536:	478d                	li	a5,3
C:/ch32/data/CH32V307EVT/EVT/EXAM/ETH/NetLib/eth_driver.c:298
    GPIO_Init(GPIOC,&GPIO);
    1538:	40011537          	lui	a0,0x40011
C:/ch32/data/CH32V307EVT/EVT/EXAM/ETH/NetLib/eth_driver.c:297
    GPIO.GPIO_Speed = GPIO_Speed_50MHz;
    153c:	c43e                	sw	a5,8(sp)
C:/ch32/data/CH32V307EVT/EVT/EXAM/ETH/NetLib/eth_driver.c:298
    GPIO_Init(GPIOC,&GPIO);
    153e:	841ff0ef          	jal	ra,d7e <GPIO_Init>
ETH_LedDataSet():
C:/ch32/data/CH32V307EVT/EVT/EXAM/ETH/NetLib/eth_driver.c:275
        GPIO_SetBits(GPIOC, GPIO_Pin_1);
    1542:	4589                	li	a1,2
    1544:	40011537          	lui	a0,0x40011
    1548:	8f7ff0ef          	jal	ra,e3e <GPIO_SetBits>
ETH_LedLinkSet():
C:/ch32/data/CH32V307EVT/EVT/EXAM/ETH/NetLib/eth_driver.c:256
        GPIO_SetBits(GPIOC, GPIO_Pin_0);
    154c:	4585                	li	a1,1
    154e:	40011537          	lui	a0,0x40011
    1552:	8edff0ef          	jal	ra,e3e <GPIO_SetBits>
ETH_LedConfiguration():
C:/ch32/data/CH32V307EVT/EVT/EXAM/ETH/NetLib/eth_driver.c:301
}
    1556:	0141                	addi	sp,sp,16
    1558:	cfdfe06f          	j	254 <__riscv_restore_0>

0000155c <ETH_SetClock>:
ETH_SetClock():
C:/ch32/data/CH32V307EVT/EVT/EXAM/ETH/NetLib/eth_driver.c:311
{
    155c:	cd5fe2ef          	jal	t0,230 <__riscv_save_0>
C:/ch32/data/CH32V307EVT/EVT/EXAM/ETH/NetLib/eth_driver.c:312
    RCC_PLL3Cmd(DISABLE);
    1560:	4501                	li	a0,0
    1562:	3639                	jal	1070 <RCC_PLL3Cmd>
C:/ch32/data/CH32V307EVT/EVT/EXAM/ETH/NetLib/eth_driver.c:313
    RCC_PREDIV2Config(RCC_PREDIV2_Div2);                /* HSE = 8M */
    1564:	4541                	li	a0,16
    1566:	34e5                	jal	104e <RCC_PREDIV2Config>
C:/ch32/data/CH32V307EVT/EVT/EXAM/ETH/NetLib/eth_driver.c:314
    RCC_PLL3Config(RCC_PLL3Mul_15);                     /* 4M*15 = 60MHz */
    1568:	6535                	lui	a0,0xd
    156a:	3cd5                	jal	105e <RCC_PLL3Config>
C:/ch32/data/CH32V307EVT/EVT/EXAM/ETH/NetLib/eth_driver.c:315
    RCC_PLL3Cmd(ENABLE);
    156c:	4505                	li	a0,1
    156e:	3609                	jal	1070 <RCC_PLL3Cmd>
C:/ch32/data/CH32V307EVT/EVT/EXAM/ETH/NetLib/eth_driver.c:316 (discriminator 1)
    while(RESET == RCC_GetFlagStatus(RCC_FLAG_PLL3RDY));
    1570:	03d00513          	li	a0,61
    1574:	aadff0ef          	jal	ra,1020 <RCC_GetFlagStatus>
    1578:	dd65                	beqz	a0,1570 <ETH_SetClock+0x14>
C:/ch32/data/CH32V307EVT/EVT/EXAM/ETH/NetLib/eth_driver.c:317
}
    157a:	cdbfe06f          	j	254 <__riscv_restore_0>

0000157e <ETH_PHYLink>:
ETH_PHYLink():
C:/ch32/data/CH32V307EVT/EVT/EXAM/ETH/NetLib/eth_driver.c:356
{
    157e:	c99fe2ef          	jal	t0,216 <__riscv_save_4>
C:/ch32/data/CH32V307EVT/EVT/EXAM/ETH/NetLib/eth_driver.c:361
    phy_anlpar = ETH_ReadPHYRegister( gPHYAddress, PHY_ANLPAR);
    1582:	87018a13          	addi	s4,gp,-1936 # 20000090 <gPHYAddress>
    1586:	000a5503          	lhu	a0,0(s4)
    158a:	4595                	li	a1,5
    158c:	e30ff0ef          	jal	ra,bbc <ETH_ReadPHYRegister>
    1590:	89aa                	mv	s3,a0
C:/ch32/data/CH32V307EVT/EVT/EXAM/ETH/NetLib/eth_driver.c:362
    phy_stat = ETH_ReadPHYRegister( gPHYAddress, PHY_BSR);
    1592:	000a5503          	lhu	a0,0(s4)
    1596:	4585                	li	a1,1
    1598:	87018413          	addi	s0,gp,-1936 # 20000090 <gPHYAddress>
    159c:	e20ff0ef          	jal	ra,bbc <ETH_ReadPHYRegister>
C:/ch32/data/CH32V307EVT/EVT/EXAM/ETH/NetLib/eth_driver.c:364
    if((phy_stat&(PHY_Linked_Status))&&(phy_anlpar == 0)){                         /* restart negotiation */
    15a0:	00457793          	andi	a5,a0,4
C:/ch32/data/CH32V307EVT/EVT/EXAM/ETH/NetLib/eth_driver.c:362
    phy_stat = ETH_ReadPHYRegister( gPHYAddress, PHY_BSR);
    15a4:	892a                	mv	s2,a0
C:/ch32/data/CH32V307EVT/EVT/EXAM/ETH/NetLib/eth_driver.c:364
    if((phy_stat&(PHY_Linked_Status))&&(phy_anlpar == 0)){                         /* restart negotiation */
    15a6:	88518493          	addi	s1,gp,-1915 # 200000a5 <phyStatus>
    15aa:	cfb1                	beqz	a5,1606 <ETH_PHYLink+0x88>
C:/ch32/data/CH32V307EVT/EVT/EXAM/ETH/NetLib/eth_driver.c:364 (discriminator 1)
    15ac:	04099d63          	bnez	s3,1606 <ETH_PHYLink+0x88>
C:/ch32/data/CH32V307EVT/EVT/EXAM/ETH/NetLib/eth_driver.c:365
        ETH_WritePHYRegister(gPHYAddress, PHY_BCR, PHY_Reset);
    15b0:	000a5503          	lhu	a0,0(s4)
    15b4:	6621                	lui	a2,0x8
    15b6:	4581                	li	a1,0
    15b8:	e5cff0ef          	jal	ra,c14 <ETH_WritePHYRegister>
C:/ch32/data/CH32V307EVT/EVT/EXAM/ETH/NetLib/eth_driver.c:366
        EXTEN->EXTEN_CTR &= ~EXTEN_ETH_10M_EN;
    15bc:	40024437          	lui	s0,0x40024
    15c0:	80042783          	lw	a5,-2048(s0) # 40023800 <_eusrstack+0x20013800>
C:/ch32/data/CH32V307EVT/EVT/EXAM/ETH/NetLib/eth_driver.c:367
        Delay_Ms(500);
    15c4:	1f400513          	li	a0,500
C:/ch32/data/CH32V307EVT/EVT/EXAM/ETH/NetLib/eth_driver.c:366
        EXTEN->EXTEN_CTR &= ~EXTEN_ETH_10M_EN;
    15c8:	9bed                	andi	a5,a5,-5
    15ca:	80f42023          	sw	a5,-2048(s0)
C:/ch32/data/CH32V307EVT/EVT/EXAM/ETH/NetLib/eth_driver.c:367
        Delay_Ms(500);
    15ce:	1d1000ef          	jal	ra,1f9e <Delay_Ms>
C:/ch32/data/CH32V307EVT/EVT/EXAM/ETH/NetLib/eth_driver.c:368
        EXTEN->EXTEN_CTR |= EXTEN_ETH_10M_EN;
    15d2:	80042783          	lw	a5,-2048(s0)
C:/ch32/data/CH32V307EVT/EVT/EXAM/ETH/NetLib/eth_driver.c:369
        PHY_NEGOTIATION_PARAM_INIT( );
    15d6:	000a5503          	lhu	a0,0(s4)
    15da:	4721                	li	a4,8
C:/ch32/data/CH32V307EVT/EVT/EXAM/ETH/NetLib/eth_driver.c:368
        EXTEN->EXTEN_CTR |= EXTEN_ETH_10M_EN;
    15dc:	0047e793          	ori	a5,a5,4
    15e0:	80f42023          	sw	a5,-2048(s0)
C:/ch32/data/CH32V307EVT/EVT/EXAM/ETH/NetLib/eth_driver.c:369
        PHY_NEGOTIATION_PARAM_INIT( );
    15e4:	88018223          	sb	zero,-1916(gp) # 200000a4 <phyRetryCnt>
    15e8:	88018323          	sb	zero,-1914(gp) # 200000a6 <phySucCnt>
    15ec:	86018e23          	sb	zero,-1924(gp) # 2000009c <phyLinkCnt>
    15f0:	86018ea3          	sb	zero,-1923(gp) # 2000009d <phyLinkStatus>
    15f4:	00048023          	sb	zero,0(s1)
    15f8:	80e18e23          	sb	a4,-2020(gp) # 2000003c <phyPN>
    15fc:	4621                	li	a2,8
    15fe:	45f9                	li	a1,30
C:/ch32/data/CH32V307EVT/EVT/EXAM/ETH/NetLib/eth_driver.c:398
        PHY_NEGOTIATION_PARAM_INIT( );
    1600:	e14ff0ef          	jal	ra,c14 <ETH_WritePHYRegister>
    1604:	a891                	j	1658 <ETH_PHYLink+0xda>
C:/ch32/data/CH32V307EVT/EVT/EXAM/ETH/NetLib/eth_driver.c:372
    WCHNET_PhyStatus( phy_stat );
    1606:	854a                	mv	a0,s2
    1608:	425000ef          	jal	ra,222c <WCHNET_PhyStatus>
C:/ch32/data/CH32V307EVT/EVT/EXAM/ETH/NetLib/eth_driver.c:374
    if( (phy_stat&(PHY_Linked_Status)) && (phy_stat&PHY_AutoNego_Complete) )
    160c:	02497913          	andi	s2,s2,36
    1610:	02400793          	li	a5,36
    1614:	04f91a63          	bne	s2,a5,1668 <ETH_PHYLink+0xea>
C:/ch32/data/CH32V307EVT/EVT/EXAM/ETH/NetLib/eth_driver.c:376
        phy_stat = ETH_ReadPHYRegister( gPHYAddress, PHY_STATUS );
    1618:	200a                	lhu	a0,0(s0)
    161a:	45c1                	li	a1,16
    161c:	da0ff0ef          	jal	ra,bbc <ETH_ReadPHYRegister>
C:/ch32/data/CH32V307EVT/EVT/EXAM/ETH/NetLib/eth_driver.c:377
        if( phy_stat & (1<<2) )
    1620:	8911                	andi	a0,a0,4
C:/ch32/data/CH32V307EVT/EVT/EXAM/ETH/NetLib/eth_driver.c:379
            ETH->MACCR |= ETH_Mode_FullDuplex;
    1622:	400286b7          	lui	a3,0x40028
C:/ch32/data/CH32V307EVT/EVT/EXAM/ETH/NetLib/eth_driver.c:377
        if( phy_stat & (1<<2) )
    1626:	e901                	bnez	a0,1636 <ETH_PHYLink+0xb8>
C:/ch32/data/CH32V307EVT/EVT/EXAM/ETH/NetLib/eth_driver.c:383
            if( (phy_anlpar&PHY_ANLPAR_SELECTOR_FIELD) != PHY_ANLPAR_SELECTOR_VALUE )
    1628:	01f9f993          	andi	s3,s3,31
    162c:	4785                	li	a5,1
C:/ch32/data/CH32V307EVT/EVT/EXAM/ETH/NetLib/eth_driver.c:385
                ETH->MACCR |= ETH_Mode_FullDuplex;
    162e:	400286b7          	lui	a3,0x40028
C:/ch32/data/CH32V307EVT/EVT/EXAM/ETH/NetLib/eth_driver.c:383
            if( (phy_anlpar&PHY_ANLPAR_SELECTOR_FIELD) != PHY_ANLPAR_SELECTOR_VALUE )
    1632:	02f98563          	beq	s3,a5,165c <ETH_PHYLink+0xde>
C:/ch32/data/CH32V307EVT/EVT/EXAM/ETH/NetLib/eth_driver.c:385
                ETH->MACCR |= ETH_Mode_FullDuplex;
    1636:	429c                	lw	a5,0(a3)
    1638:	6705                	lui	a4,0x1
    163a:	80070713          	addi	a4,a4,-2048 # 800 <__stack_size>
    163e:	8fd9                	or	a5,a5,a4
C:/ch32/data/CH32V307EVT/EVT/EXAM/ETH/NetLib/eth_driver.c:389
                ETH->MACCR &= ~ETH_Mode_FullDuplex;
    1640:	c29c                	sw	a5,0(a3)
C:/ch32/data/CH32V307EVT/EVT/EXAM/ETH/NetLib/eth_driver.c:392
        ETH->MACCR &= ~(ETH_Speed_100M|ETH_Speed_1000M);
    1642:	400286b7          	lui	a3,0x40028
    1646:	429c                	lw	a5,0(a3)
    1648:	7751                	lui	a4,0xffff4
    164a:	177d                	addi	a4,a4,-1
    164c:	8ff9                	and	a5,a5,a4
    164e:	c29c                	sw	a5,0(a3)
C:/ch32/data/CH32V307EVT/EVT/EXAM/ETH/NetLib/eth_driver.c:393
        phyStatus = PHY_Linked_Status;
    1650:	4791                	li	a5,4
    1652:	a09c                	sb	a5,0(s1)
C:/ch32/data/CH32V307EVT/EVT/EXAM/ETH/NetLib/eth_driver.c:394
        ETH_Start( );
    1654:	ec6ff0ef          	jal	ra,d1a <ETH_Start>
C:/ch32/data/CH32V307EVT/EVT/EXAM/ETH/NetLib/eth_driver.c:428
}
    1658:	bf3fe06f          	j	24a <__riscv_restore_4>
C:/ch32/data/CH32V307EVT/EVT/EXAM/ETH/NetLib/eth_driver.c:389
                ETH->MACCR &= ~ETH_Mode_FullDuplex;
    165c:	429c                	lw	a5,0(a3)
    165e:	777d                	lui	a4,0xfffff
    1660:	7ff70713          	addi	a4,a4,2047 # fffff7ff <_eusrstack+0xdffef7ff>
    1664:	8ff9                	and	a5,a5,a4
    1666:	bfe9                	j	1640 <ETH_PHYLink+0xc2>
C:/ch32/data/CH32V307EVT/EVT/EXAM/ETH/NetLib/eth_driver.c:398
        PHY_NEGOTIATION_PARAM_INIT( );
    1668:	88018223          	sb	zero,-1916(gp) # 200000a4 <phyRetryCnt>
    166c:	88018323          	sb	zero,-1914(gp) # 200000a6 <phySucCnt>
    1670:	86018e23          	sb	zero,-1924(gp) # 2000009c <phyLinkCnt>
    1674:	86018ea3          	sb	zero,-1923(gp) # 2000009d <phyLinkStatus>
    1678:	4721                	li	a4,8
    167a:	00048023          	sb	zero,0(s1)
    167e:	80e18e23          	sb	a4,-2020(gp) # 2000003c <phyPN>
    1682:	4621                	li	a2,8
    1684:	45f9                	li	a1,30
    1686:	200a                	lhu	a0,0(s0)
    1688:	bfa5                	j	1600 <ETH_PHYLink+0x82>

0000168a <ETH_RegInit>:
ETH_RegInit():
C:/ch32/data/CH32V307EVT/EVT/EXAM/ETH/NetLib/eth_driver.c:441
{
    168a:	ba7fe2ef          	jal	t0,230 <__riscv_save_0>
C:/ch32/data/CH32V307EVT/EVT/EXAM/ETH/NetLib/eth_driver.c:446
    tmpreg = ETH->MACMIIAR;
    168e:	400286b7          	lui	a3,0x40028
    1692:	4a98                	lw	a4,16(a3)
C:/ch32/data/CH32V307EVT/EVT/EXAM/ETH/NetLib/eth_driver.c:441
{
    1694:	87aa                	mv	a5,a0
    1696:	852e                	mv	a0,a1
C:/ch32/data/CH32V307EVT/EVT/EXAM/ETH/NetLib/eth_driver.c:447
    tmpreg &= MACMIIAR_CR_MASK;
    1698:	9b0d                	andi	a4,a4,-29
C:/ch32/data/CH32V307EVT/EVT/EXAM/ETH/NetLib/eth_driver.c:449
    ETH->MACMIIAR = (uint32_t)tmpreg;
    169a:	ca98                	sw	a4,16(a3)
C:/ch32/data/CH32V307EVT/EVT/EXAM/ETH/NetLib/eth_driver.c:454
    tmpreg |= (uint32_t)(ETH_InitStruct->ETH_AutoNegotiation |
    169c:	43cc                	lw	a1,4(a5)
    169e:	4398                	lw	a4,0(a5)
C:/ch32/data/CH32V307EVT/EVT/EXAM/ETH/NetLib/eth_driver.c:452
    tmpreg = ETH->MACCR;
    16a0:	4290                	lw	a2,0(a3)
C:/ch32/data/CH32V307EVT/EVT/EXAM/ETH/NetLib/eth_driver.c:454
    tmpreg |= (uint32_t)(ETH_InitStruct->ETH_AutoNegotiation |
    16a2:	8f4d                	or	a4,a4,a1
C:/ch32/data/CH32V307EVT/EVT/EXAM/ETH/NetLib/eth_driver.c:453
    tmpreg &= MACCR_CLEAR_MASK;
    16a4:	ff2085b7          	lui	a1,0xff208
    16a8:	10f58593          	addi	a1,a1,271 # ff20810f <_eusrstack+0xdf1f810f>
    16ac:	8e6d                	and	a2,a2,a1
    16ae:	8f51                	or	a4,a4,a2
    16b0:	4790                	lw	a2,8(a5)
    16b2:	8f51                	or	a4,a4,a2
    16b4:	47d0                	lw	a2,12(a5)
    16b6:	8f51                	or	a4,a4,a2
    16b8:	4b90                	lw	a2,16(a5)
    16ba:	8f51                	or	a4,a4,a2
    16bc:	4bd0                	lw	a2,20(a5)
    16be:	8f51                	or	a4,a4,a2
    16c0:	4f90                	lw	a2,24(a5)
    16c2:	8f51                	or	a4,a4,a2
    16c4:	4fd0                	lw	a2,28(a5)
    16c6:	8f51                	or	a4,a4,a2
    16c8:	5390                	lw	a2,32(a5)
    16ca:	8f51                	or	a4,a4,a2
    16cc:	53d0                	lw	a2,36(a5)
    16ce:	8f51                	or	a4,a4,a2
    16d0:	5790                	lw	a2,40(a5)
    16d2:	8f51                	or	a4,a4,a2
    16d4:	57d0                	lw	a2,44(a5)
    16d6:	8f51                	or	a4,a4,a2
    16d8:	5b90                	lw	a2,48(a5)
    16da:	8f51                	or	a4,a4,a2
C:/ch32/data/CH32V307EVT/EVT/EXAM/ETH/NetLib/eth_driver.c:454
    tmpreg |= (uint32_t)(ETH_InitStruct->ETH_AutoNegotiation |
    16dc:	5bd0                	lw	a2,52(a5)
    16de:	8f51                	or	a4,a4,a2
C:/ch32/data/CH32V307EVT/EVT/EXAM/ETH/NetLib/eth_driver.c:469
    ETH->MACCR = (uint32_t)tmpreg;
    16e0:	c298                	sw	a4,0(a3)
C:/ch32/data/CH32V307EVT/EVT/EXAM/ETH/NetLib/eth_driver.c:471
    ETH->MACCR |= ETH_Internal_Pull_Up_Res_Enable;/*  */
    16e2:	4298                	lw	a4,0(a3)
    16e4:	00100637          	lui	a2,0x100
    16e8:	8f51                	or	a4,a4,a2
    16ea:	c298                	sw	a4,0(a3)
C:/ch32/data/CH32V307EVT/EVT/EXAM/ETH/NetLib/eth_driver.c:473
    ETH->MACFFR = (uint32_t)(ETH_InitStruct->ETH_ReceiveAll |
    16ec:	5fd0                	lw	a2,60(a5)
    16ee:	5f98                	lw	a4,56(a5)
    16f0:	8f51                	or	a4,a4,a2
C:/ch32/data/CH32V307EVT/EVT/EXAM/ETH/NetLib/eth_driver.c:474
                          ETH_InitStruct->ETH_SourceAddrFilter |
    16f2:	43b0                	lw	a2,64(a5)
    16f4:	8f51                	or	a4,a4,a2
C:/ch32/data/CH32V307EVT/EVT/EXAM/ETH/NetLib/eth_driver.c:475
                          ETH_InitStruct->ETH_PassControlFrames |
    16f6:	43f0                	lw	a2,68(a5)
    16f8:	8f51                	or	a4,a4,a2
C:/ch32/data/CH32V307EVT/EVT/EXAM/ETH/NetLib/eth_driver.c:476
                          ETH_InitStruct->ETH_BroadcastFramesReception |
    16fa:	47b0                	lw	a2,72(a5)
    16fc:	8f51                	or	a4,a4,a2
C:/ch32/data/CH32V307EVT/EVT/EXAM/ETH/NetLib/eth_driver.c:477
                          ETH_InitStruct->ETH_DestinationAddrFilter |
    16fe:	47f0                	lw	a2,76(a5)
    1700:	8f51                	or	a4,a4,a2
C:/ch32/data/CH32V307EVT/EVT/EXAM/ETH/NetLib/eth_driver.c:478
                          ETH_InitStruct->ETH_PromiscuousMode |
    1702:	4bb0                	lw	a2,80(a5)
    1704:	8f51                	or	a4,a4,a2
C:/ch32/data/CH32V307EVT/EVT/EXAM/ETH/NetLib/eth_driver.c:479
                          ETH_InitStruct->ETH_MulticastFramesFilter |
    1706:	4bf0                	lw	a2,84(a5)
    1708:	8f51                	or	a4,a4,a2
C:/ch32/data/CH32V307EVT/EVT/EXAM/ETH/NetLib/eth_driver.c:473
    ETH->MACFFR = (uint32_t)(ETH_InitStruct->ETH_ReceiveAll |
    170a:	c2d8                	sw	a4,4(a3)
C:/ch32/data/CH32V307EVT/EVT/EXAM/ETH/NetLib/eth_driver.c:483
    ETH->MACHTHR = (uint32_t)ETH_InitStruct->ETH_HashTableHigh;
    170c:	4fb8                	lw	a4,88(a5)
    170e:	c698                	sw	a4,8(a3)
C:/ch32/data/CH32V307EVT/EVT/EXAM/ETH/NetLib/eth_driver.c:485
    ETH->MACHTLR = (uint32_t)ETH_InitStruct->ETH_HashTableLow;
    1710:	4ff8                	lw	a4,92(a5)
    1712:	c6d8                	sw	a4,12(a3)
C:/ch32/data/CH32V307EVT/EVT/EXAM/ETH/NetLib/eth_driver.c:488
    tmpreg = ETH->MACFCR;
    1714:	57ac                	lw	a1,104(a5)
    1716:	53f8                	lw	a4,100(a5)
    1718:	4e90                	lw	a2,24(a3)
C:/ch32/data/CH32V307EVT/EVT/EXAM/ETH/NetLib/eth_driver.c:491
    tmpreg |= (uint32_t)((ETH_InitStruct->ETH_PauseTime << 16) |
    171a:	8f4d                	or	a4,a4,a1
C:/ch32/data/CH32V307EVT/EVT/EXAM/ETH/NetLib/eth_driver.c:490
    tmpreg &= MACFCR_CLEAR_MASK;
    171c:	65c1                	lui	a1,0x10
    171e:	f4158593          	addi	a1,a1,-191 # ff41 <_data_lma+0x42ed>
    1722:	8e6d                	and	a2,a2,a1
    1724:	8f51                	or	a4,a4,a2
    1726:	57f0                	lw	a2,108(a5)
C:/ch32/data/CH32V307EVT/EVT/EXAM/ETH/NetLib/eth_driver.c:502
    tmpreg = ETH->DMAOMR;
    1728:	400295b7          	lui	a1,0x40029
    172c:	8f51                	or	a4,a4,a2
    172e:	5bb0                	lw	a2,112(a5)
    1730:	8f51                	or	a4,a4,a2
    1732:	5bf0                	lw	a2,116(a5)
    1734:	8f51                	or	a4,a4,a2
C:/ch32/data/CH32V307EVT/EVT/EXAM/ETH/NetLib/eth_driver.c:491
    tmpreg |= (uint32_t)((ETH_InitStruct->ETH_PauseTime << 16) |
    1736:	53b0                	lw	a2,96(a5)
    1738:	0642                	slli	a2,a2,0x10
    173a:	8f51                	or	a4,a4,a2
C:/ch32/data/CH32V307EVT/EVT/EXAM/ETH/NetLib/eth_driver.c:497
    ETH->MACFCR = (uint32_t)tmpreg;
    173c:	ce98                	sw	a4,24(a3)
C:/ch32/data/CH32V307EVT/EVT/EXAM/ETH/NetLib/eth_driver.c:499
    ETH->MACVLANTR = (uint32_t)(ETH_InitStruct->ETH_VLANTagComparison |
    173e:	5ff0                	lw	a2,124(a5)
    1740:	5fb8                	lw	a4,120(a5)
    1742:	8f51                	or	a4,a4,a2
    1744:	ced8                	sw	a4,28(a3)
C:/ch32/data/CH32V307EVT/EVT/EXAM/ETH/NetLib/eth_driver.c:504
    tmpreg |= (uint32_t)(ETH_InitStruct->ETH_DropTCPIPChecksumErrorFrame |
    1746:	0847a603          	lw	a2,132(a5)
    174a:	0807a703          	lw	a4,128(a5)
C:/ch32/data/CH32V307EVT/EVT/EXAM/ETH/NetLib/eth_driver.c:502
    tmpreg = ETH->DMAOMR;
    174e:	4d94                	lw	a3,24(a1)
C:/ch32/data/CH32V307EVT/EVT/EXAM/ETH/NetLib/eth_driver.c:504
    tmpreg |= (uint32_t)(ETH_InitStruct->ETH_DropTCPIPChecksumErrorFrame |
    1750:	8f51                	or	a4,a4,a2
C:/ch32/data/CH32V307EVT/EVT/EXAM/ETH/NetLib/eth_driver.c:503
    tmpreg &= DMAOMR_CLEAR_MASK;
    1752:	f8de4637          	lui	a2,0xf8de4
    1756:	f2360613          	addi	a2,a2,-221 # f8de3f23 <_eusrstack+0xd8dd3f23>
    175a:	8ef1                	and	a3,a3,a2
    175c:	8f55                	or	a4,a4,a3
    175e:	0887a683          	lw	a3,136(a5)
C:/ch32/data/CH32V307EVT/EVT/EXAM/ETH/NetLib/eth_driver.c:516
    ETH_WritePHYRegister(PHYAddress, PHY_BCR, PHY_Reset);
    1762:	6621                	lui	a2,0x8
    1764:	8f55                	or	a4,a4,a3
    1766:	08c7a683          	lw	a3,140(a5)
    176a:	8f55                	or	a4,a4,a3
    176c:	0907a683          	lw	a3,144(a5)
    1770:	8f55                	or	a4,a4,a3
    1772:	0947a683          	lw	a3,148(a5)
    1776:	8f55                	or	a4,a4,a3
    1778:	0987a683          	lw	a3,152(a5)
    177c:	8f55                	or	a4,a4,a3
    177e:	09c7a683          	lw	a3,156(a5)
C:/ch32/data/CH32V307EVT/EVT/EXAM/ETH/NetLib/eth_driver.c:504
    tmpreg |= (uint32_t)(ETH_InitStruct->ETH_DropTCPIPChecksumErrorFrame |
    1782:	0a07a783          	lw	a5,160(a5)
    1786:	8f55                	or	a4,a4,a3
    1788:	8f5d                	or	a4,a4,a5
C:/ch32/data/CH32V307EVT/EVT/EXAM/ETH/NetLib/eth_driver.c:513
    ETH->DMAOMR = (uint32_t)tmpreg;
    178a:	cd98                	sw	a4,24(a1)
C:/ch32/data/CH32V307EVT/EVT/EXAM/ETH/NetLib/eth_driver.c:516
    ETH_WritePHYRegister(PHYAddress, PHY_BCR, PHY_Reset);
    178c:	4581                	li	a1,0
    178e:	c86ff0ef          	jal	ra,c14 <ETH_WritePHYRegister>
C:/ch32/data/CH32V307EVT/EVT/EXAM/ETH/NetLib/eth_driver.c:517
    ETH_WritePHYRegister(gPHYAddress, PHY_MDIX, PHY_PN_SWITCH_AUTO);
    1792:	8701d503          	lhu	a0,-1936(gp) # 20000090 <gPHYAddress>
    1796:	4621                	li	a2,8
    1798:	45f9                	li	a1,30
    179a:	c7aff0ef          	jal	ra,c14 <ETH_WritePHYRegister>
C:/ch32/data/CH32V307EVT/EVT/EXAM/ETH/NetLib/eth_driver.c:519
}
    179e:	4505                	li	a0,1
    17a0:	ab5fe06f          	j	254 <__riscv_restore_0>

000017a4 <ETH_Configuration>:
ETH_Configuration():
C:/ch32/data/CH32V307EVT/EVT/EXAM/ETH/NetLib/eth_driver.c:529
{
    17a4:	a73fe2ef          	jal	t0,216 <__riscv_save_4>
    17a8:	7131                	addi	sp,sp,-192
C:/ch32/data/CH32V307EVT/EVT/EXAM/ETH/NetLib/eth_driver.c:534
    RCC_AHBPeriphClockCmd(RCC_AHBPeriph_ETH_MAC|RCC_AHBPeriph_ETH_MAC_Tx|RCC_AHBPeriph_ETH_MAC_Rx,ENABLE);
    17aa:	4585                	li	a1,1
C:/ch32/data/CH32V307EVT/EVT/EXAM/ETH/NetLib/eth_driver.c:529
{
    17ac:	84aa                	mv	s1,a0
C:/ch32/data/CH32V307EVT/EVT/EXAM/ETH/NetLib/eth_driver.c:534
    RCC_AHBPeriphClockCmd(RCC_AHBPeriph_ETH_MAC|RCC_AHBPeriph_ETH_MAC_Tx|RCC_AHBPeriph_ETH_MAC_Rx,ENABLE);
    17ae:	6571                	lui	a0,0x1c
    17b0:	817ff0ef          	jal	ra,fc6 <RCC_AHBPeriphClockCmd>
C:/ch32/data/CH32V307EVT/EVT/EXAM/ETH/NetLib/eth_driver.c:536
    gPHYAddress = PHY_ADDRESS;
    17b4:	4785                	li	a5,1
    17b6:	86f19823          	sh	a5,-1936(gp) # 20000090 <gPHYAddress>
C:/ch32/data/CH32V307EVT/EVT/EXAM/ETH/NetLib/eth_driver.c:538
    ETH_SetClock( );
    17ba:	334d                	jal	155c <ETH_SetClock>
C:/ch32/data/CH32V307EVT/EVT/EXAM/ETH/NetLib/eth_driver.c:540
    EXTEN->EXTEN_CTR |= EXTEN_ETH_10M_EN;    /* Enable 10M Ethernet physical layer   */
    17bc:	40024737          	lui	a4,0x40024
    17c0:	80072783          	lw	a5,-2048(a4) # 40023800 <_eusrstack+0x20013800>
C:/ch32/data/CH32V307EVT/EVT/EXAM/ETH/NetLib/eth_driver.c:549
    ETH_SoftwareReset();
    17c4:	6409                	lui	s0,0x2
    17c6:	71040413          	addi	s0,s0,1808 # 2710 <LwipTcpConnectedCallBack+0x1c>
C:/ch32/data/CH32V307EVT/EVT/EXAM/ETH/NetLib/eth_driver.c:540
    EXTEN->EXTEN_CTR |= EXTEN_ETH_10M_EN;    /* Enable 10M Ethernet physical layer   */
    17ca:	0047e793          	ori	a5,a5,4
    17ce:	80f72023          	sw	a5,-2048(a4)
C:/ch32/data/CH32V307EVT/EVT/EXAM/ETH/NetLib/eth_driver.c:546
    ETH_DeInit();
    17d2:	afeff0ef          	jal	ra,ad0 <ETH_DeInit>
C:/ch32/data/CH32V307EVT/EVT/EXAM/ETH/NetLib/eth_driver.c:549
    ETH_SoftwareReset();
    17d6:	87018913          	addi	s2,gp,-1936 # 20000090 <gPHYAddress>
    17da:	d1aff0ef          	jal	ra,cf4 <ETH_SoftwareReset>
C:/ch32/data/CH32V307EVT/EVT/EXAM/ETH/NetLib/eth_driver.c:555
    }while(ETH->DMABMR & ETH_DMABMR_SR);
    17de:	400299b7          	lui	s3,0x40029
C:/ch32/data/CH32V307EVT/EVT/EXAM/ETH/NetLib/eth_driver.c:553
        Delay_Us(10);
    17e2:	147d                	addi	s0,s0,-1
    17e4:	0442                	slli	s0,s0,0x10
    17e6:	4529                	li	a0,10
    17e8:	8041                	srli	s0,s0,0x10
    17ea:	77e000ef          	jal	ra,1f68 <Delay_Us>
C:/ch32/data/CH32V307EVT/EVT/EXAM/ETH/NetLib/eth_driver.c:554
        if( !--timeout )  break;
    17ee:	c409                	beqz	s0,17f8 <ETH_Configuration+0x54>
C:/ch32/data/CH32V307EVT/EVT/EXAM/ETH/NetLib/eth_driver.c:555
    }while(ETH->DMABMR & ETH_DMABMR_SR);
    17f0:	0009a783          	lw	a5,0(s3) # 40029000 <_eusrstack+0x20019000>
    17f4:	8b85                	andi	a5,a5,1
    17f6:	f7f5                	bnez	a5,17e2 <ETH_Configuration+0x3e>
C:/ch32/data/CH32V307EVT/EVT/EXAM/ETH/NetLib/eth_driver.c:559
    ETH_StructInit(&ETH_InitStructure);
    17f8:	0048                	addi	a0,sp,4
    17fa:	aeaff0ef          	jal	ra,ae4 <ETH_StructInit>
C:/ch32/data/CH32V307EVT/EVT/EXAM/ETH/NetLib/eth_driver.c:562
    ETH_InitStructure.ETH_Mode = ETH_Mode_FullDuplex;
    17fe:	6785                	lui	a5,0x1
    1800:	80078793          	addi	a5,a5,-2048 # 800 <__stack_size>
    1804:	d23e                	sw	a5,36(sp)
C:/ch32/data/CH32V307EVT/EVT/EXAM/ETH/NetLib/eth_driver.c:569
    ETH_InitStructure.ETH_ChecksumOffload = ETH_ChecksumOffload_Enable;
    1806:	40000793          	li	a5,1024
    180a:	d43e                	sw	a5,40(sp)
C:/ch32/data/CH32V307EVT/EVT/EXAM/ETH/NetLib/eth_driver.c:571
    ETH_InitStructure.ETH_AutoNegotiation = ETH_AutoNegotiation_Enable  ;
    180c:	4785                	li	a5,1
    180e:	c23e                	sw	a5,4(sp)
C:/ch32/data/CH32V307EVT/EVT/EXAM/ETH/NetLib/eth_driver.c:573
    ETH_InitStructure.ETH_RetryTransmission = ETH_RetryTransmission_Disable;
    1810:	20000793          	li	a5,512
    1814:	d63e                	sw	a5,44(sp)
C:/ch32/data/CH32V307EVT/EVT/EXAM/ETH/NetLib/eth_driver.c:586
    ETH_InitStructure.ETH_ReceiveStoreForward = ETH_ReceiveStoreForward_Enable;
    1816:	020007b7          	lui	a5,0x2000
    181a:	c53e                	sw	a5,136(sp)
C:/ch32/data/CH32V307EVT/EVT/EXAM/ETH/NetLib/eth_driver.c:592
    ETH_RegInit( &ETH_InitStructure, gPHYAddress );
    181c:	00095583          	lhu	a1,0(s2)
C:/ch32/data/CH32V307EVT/EVT/EXAM/ETH/NetLib/eth_driver.c:587
    ETH_InitStructure.ETH_TransmitStoreForward = ETH_TransmitStoreForward_Enable;
    1820:	002007b7          	lui	a5,0x200
    1824:	c93e                	sw	a5,144(sp)
C:/ch32/data/CH32V307EVT/EVT/EXAM/ETH/NetLib/eth_driver.c:588
    ETH_InitStructure.ETH_ForwardErrorFrames = ETH_ForwardErrorFrames_Enable;
    1826:	08000793          	li	a5,128
    182a:	cd3e                	sw	a5,152(sp)
C:/ch32/data/CH32V307EVT/EVT/EXAM/ETH/NetLib/eth_driver.c:592
    ETH_RegInit( &ETH_InitStructure, gPHYAddress );
    182c:	0048                	addi	a0,sp,4
C:/ch32/data/CH32V307EVT/EVT/EXAM/ETH/NetLib/eth_driver.c:589
    ETH_InitStructure.ETH_ForwardUndersizedGoodFrames = ETH_ForwardUndersizedGoodFrames_Enable;
    182e:	04000793          	li	a5,64
    1832:	cf3e                	sw	a5,156(sp)
C:/ch32/data/CH32V307EVT/EVT/EXAM/ETH/NetLib/eth_driver.c:564
    ETH_InitStructure.ETH_Speed = ETH_Speed_10M;
    1834:	cc02                	sw	zero,24(sp)
C:/ch32/data/CH32V307EVT/EVT/EXAM/ETH/NetLib/eth_driver.c:572
    ETH_InitStructure.ETH_LoopbackMode = ETH_LoopbackMode_Disable;
    1836:	d002                	sw	zero,32(sp)
C:/ch32/data/CH32V307EVT/EVT/EXAM/ETH/NetLib/eth_driver.c:574
    ETH_InitStructure.ETH_AutomaticPadCRCStrip = ETH_AutomaticPadCRCStrip_Disable;
    1838:	d802                	sw	zero,48(sp)
C:/ch32/data/CH32V307EVT/EVT/EXAM/ETH/NetLib/eth_driver.c:576
    ETH_InitStructure.ETH_ReceiveAll = ETH_ReceiveAll_Disable;
    183a:	de02                	sw	zero,60(sp)
C:/ch32/data/CH32V307EVT/EVT/EXAM/ETH/NetLib/eth_driver.c:577
    ETH_InitStructure.ETH_BroadcastFramesReception = ETH_BroadcastFramesReception_Enable;
    183c:	c482                	sw	zero,72(sp)
C:/ch32/data/CH32V307EVT/EVT/EXAM/ETH/NetLib/eth_driver.c:578
    ETH_InitStructure.ETH_PromiscuousMode = ETH_PromiscuousMode_Disable;
    183e:	c882                	sw	zero,80(sp)
C:/ch32/data/CH32V307EVT/EVT/EXAM/ETH/NetLib/eth_driver.c:579
    ETH_InitStructure.ETH_MulticastFramesFilter = ETH_MulticastFramesFilter_Perfect;
    1840:	ca82                	sw	zero,84(sp)
C:/ch32/data/CH32V307EVT/EVT/EXAM/ETH/NetLib/eth_driver.c:580
    ETH_InitStructure.ETH_UnicastFramesFilter = ETH_UnicastFramesFilter_Perfect;
    1842:	cc82                	sw	zero,88(sp)
C:/ch32/data/CH32V307EVT/EVT/EXAM/ETH/NetLib/eth_driver.c:585
    ETH_InitStructure.ETH_DropTCPIPChecksumErrorFrame = ETH_DropTCPIPChecksumErrorFrame_Enable;
    1844:	c302                	sw	zero,132(sp)
C:/ch32/data/CH32V307EVT/EVT/EXAM/ETH/NetLib/eth_driver.c:590
    ETH_InitStructure.ETH_SecondFrameOperate = ETH_SecondFrameOperate_Disable;
    1846:	d302                	sw	zero,164(sp)
C:/ch32/data/CH32V307EVT/EVT/EXAM/ETH/NetLib/eth_driver.c:592
    ETH_RegInit( &ETH_InitStructure, gPHYAddress );
    1848:	3589                	jal	168a <ETH_RegInit>
C:/ch32/data/CH32V307EVT/EVT/EXAM/ETH/NetLib/eth_driver.c:595
    ETH->MACA0HR = (uint32_t)((macAddr[5]<<8) | macAddr[4]);
    184a:	30dc                	lbu	a5,5(s1)
    184c:	20d8                	lbu	a4,4(s1)
    184e:	400286b7          	lui	a3,0x40028
    1852:	07a2                	slli	a5,a5,0x8
    1854:	8fd9                	or	a5,a5,a4
    1856:	c2bc                	sw	a5,64(a3)
C:/ch32/data/CH32V307EVT/EVT/EXAM/ETH/NetLib/eth_driver.c:596
    ETH->MACA0LR = (uint32_t)(macAddr[0] | (macAddr[1]<<8) | (macAddr[2]<<16) | (macAddr[3]<<24));
    1858:	3098                	lbu	a4,1(s1)
    185a:	209c                	lbu	a5,0(s1)
C:/ch32/data/CH32V307EVT/EVT/EXAM/ETH/NetLib/eth_driver.c:600
    ETH_DMAITConfig(ETH_DMA_IT_NIS |\
    185c:	80018537          	lui	a0,0x80018
    1860:	0722                	slli	a4,a4,0x8
    1862:	8f5d                	or	a4,a4,a5
    1864:	20bc                	lbu	a5,2(s1)
    1866:	4585                	li	a1,1
    1868:	0c150513          	addi	a0,a0,193 # 800180c1 <_eusrstack+0x600080c1>
    186c:	07c2                	slli	a5,a5,0x10
    186e:	8f5d                	or	a4,a4,a5
    1870:	30bc                	lbu	a5,3(s1)
    1872:	07e2                	slli	a5,a5,0x18
    1874:	8fd9                	or	a5,a5,a4
C:/ch32/data/CH32V307EVT/EVT/EXAM/ETH/NetLib/eth_driver.c:596
    ETH->MACA0LR = (uint32_t)(macAddr[0] | (macAddr[1]<<8) | (macAddr[2]<<16) | (macAddr[3]<<24));
    1876:	c2fc                	sw	a5,68(a3)
C:/ch32/data/CH32V307EVT/EVT/EXAM/ETH/NetLib/eth_driver.c:600
    ETH_DMAITConfig(ETH_DMA_IT_NIS |\
    1878:	cd4ff0ef          	jal	ra,d4c <ETH_DMAITConfig>
C:/ch32/data/CH32V307EVT/EVT/EXAM/ETH/NetLib/eth_driver.c:616
}
    187c:	6129                	addi	sp,sp,192
    187e:	9cdfe06f          	j	24a <__riscv_restore_4>

00001882 <WCHNET_ETHIsr>:
WCHNET_ETHIsr():
C:/ch32/data/CH32V307EVT/EVT/EXAM/ETH/NetLib/eth_driver.c:673
 * @brief   Ethernet Interrupt Service program
 *
 * @return  none
 */
void WCHNET_ETHIsr(void)
{
    1882:	9affe2ef          	jal	t0,230 <__riscv_save_0>
C:/ch32/data/CH32V307EVT/EVT/EXAM/ETH/NetLib/eth_driver.c:676
    uint32_t int_sta;

    int_sta = ETH->DMASR;
    1886:	400297b7          	lui	a5,0x40029
    188a:	4bc0                	lw	s0,20(a5)
C:/ch32/data/CH32V307EVT/EVT/EXAM/ETH/NetLib/eth_driver.c:677
    if (int_sta & ETH_DMA_IT_AIS)
    188c:	01041793          	slli	a5,s0,0x10
    1890:	0007dc63          	bgez	a5,18a8 <WCHNET_ETHIsr+0x26>
C:/ch32/data/CH32V307EVT/EVT/EXAM/ETH/NetLib/eth_driver.c:679
    {
        if (int_sta & ETH_DMA_IT_RBU)
    1894:	08047793          	andi	a5,s0,128
    1898:	c789                	beqz	a5,18a2 <WCHNET_ETHIsr+0x20>
C:/ch32/data/CH32V307EVT/EVT/EXAM/ETH/NetLib/eth_driver.c:681
        {
            ETH_DMAClearITPendingBit(ETH_DMA_IT_RBU);
    189a:	08000513          	li	a0,128
    189e:	c64ff0ef          	jal	ra,d02 <ETH_DMAClearITPendingBit>
C:/ch32/data/CH32V307EVT/EVT/EXAM/ETH/NetLib/eth_driver.c:683
        }
        ETH_DMAClearITPendingBit(ETH_DMA_IT_AIS);
    18a2:	6521                	lui	a0,0x8
    18a4:	c5eff0ef          	jal	ra,d02 <ETH_DMAClearITPendingBit>
C:/ch32/data/CH32V307EVT/EVT/EXAM/ETH/NetLib/eth_driver.c:686
    }

    if( int_sta & ETH_DMA_IT_NIS )
    18a8:	00f41793          	slli	a5,s0,0xf
    18ac:	0407d263          	bgez	a5,18f0 <WCHNET_ETHIsr+0x6e>
C:/ch32/data/CH32V307EVT/EVT/EXAM/ETH/NetLib/eth_driver.c:688
    {
        if( int_sta & ETH_DMA_IT_R )
    18b0:	04047793          	andi	a5,s0,64
    18b4:	c789                	beqz	a5,18be <WCHNET_ETHIsr+0x3c>
C:/ch32/data/CH32V307EVT/EVT/EXAM/ETH/NetLib/eth_driver.c:692
        {
            /*If you don't use the Ethernet library,
             * you can do some data processing operations here*/
            ETH_DMAClearITPendingBit(ETH_DMA_IT_R);
    18b6:	04000513          	li	a0,64
    18ba:	c48ff0ef          	jal	ra,d02 <ETH_DMAClearITPendingBit>
C:/ch32/data/CH32V307EVT/EVT/EXAM/ETH/NetLib/eth_driver.c:694
        }
        if( int_sta & ETH_DMA_IT_T )
    18be:	00147793          	andi	a5,s0,1
    18c2:	c781                	beqz	a5,18ca <WCHNET_ETHIsr+0x48>
C:/ch32/data/CH32V307EVT/EVT/EXAM/ETH/NetLib/eth_driver.c:696
        {
            ETH_DMAClearITPendingBit(ETH_DMA_IT_T);
    18c4:	4505                	li	a0,1
    18c6:	c3cff0ef          	jal	ra,d02 <ETH_DMAClearITPendingBit>
C:/ch32/data/CH32V307EVT/EVT/EXAM/ETH/NetLib/eth_driver.c:698
        }
        if( int_sta & ETH_DMA_IT_PHYLINK)
    18ca:	00045763          	bgez	s0,18d8 <WCHNET_ETHIsr+0x56>
C:/ch32/data/CH32V307EVT/EVT/EXAM/ETH/NetLib/eth_driver.c:700
        {
            ETH_PHYLink( );
    18ce:	3945                	jal	157e <ETH_PHYLink>
C:/ch32/data/CH32V307EVT/EVT/EXAM/ETH/NetLib/eth_driver.c:701
            ETH_DMAClearITPendingBit(ETH_DMA_IT_PHYLINK);
    18d0:	80000537          	lui	a0,0x80000
    18d4:	c2eff0ef          	jal	ra,d02 <ETH_DMAClearITPendingBit>
C:/ch32/data/CH32V307EVT/EVT/EXAM/ETH/NetLib/eth_driver.c:703
        }
        if (int_sta & ETH_DMA_IT_TBU)
    18d8:	8811                	andi	s0,s0,4
    18da:	c801                	beqz	s0,18ea <WCHNET_ETHIsr+0x68>
C:/ch32/data/CH32V307EVT/EVT/EXAM/ETH/NetLib/eth_driver.c:706
        {
            /* Resume DMA transmission */
            ETH->DMATPDR = 0;
    18dc:	400297b7          	lui	a5,0x40029
    18e0:	0007a223          	sw	zero,4(a5) # 40029004 <_eusrstack+0x20019004>
C:/ch32/data/CH32V307EVT/EVT/EXAM/ETH/NetLib/eth_driver.c:707
            ETH_DMAClearITPendingBit(ETH_DMA_IT_TBU);
    18e4:	4511                	li	a0,4
    18e6:	c1cff0ef          	jal	ra,d02 <ETH_DMAClearITPendingBit>
C:/ch32/data/CH32V307EVT/EVT/EXAM/ETH/NetLib/eth_driver.c:709
        }
        ETH_DMAClearITPendingBit(ETH_DMA_IT_NIS);
    18ea:	6541                	lui	a0,0x10
    18ec:	c16ff0ef          	jal	ra,d02 <ETH_DMAClearITPendingBit>
C:/ch32/data/CH32V307EVT/EVT/EXAM/ETH/NetLib/eth_driver.c:711
    }
}
    18f0:	965fe06f          	j	254 <__riscv_restore_0>

000018f4 <ETH_Init>:
ETH_Init():
C:/ch32/data/CH32V307EVT/EVT/EXAM/ETH/NetLib/eth_driver.c:721
 * @brief   Ethernet initialization.
 *
 * @return  none
 */
void ETH_Init( uint8_t *macAddr )
{
    18f4:	93dfe2ef          	jal	t0,230 <__riscv_save_0>
    18f8:	842a                	mv	s0,a0
C:/ch32/data/CH32V307EVT/EVT/EXAM/ETH/NetLib/eth_driver.c:723
#if( PHY_MODE ==  USE_10M_BASE )
    ETH_LedConfiguration( );
    18fa:	3939                	jal	1518 <ETH_LedConfiguration>
C:/ch32/data/CH32V307EVT/EVT/EXAM/ETH/NetLib/eth_driver.c:725
#endif
    Delay_Ms(100);
    18fc:	06400513          	li	a0,100
    1900:	69e000ef          	jal	ra,1f9e <Delay_Ms>
C:/ch32/data/CH32V307EVT/EVT/EXAM/ETH/NetLib/eth_driver.c:726
    ETH_Configuration( macAddr );
    1904:	8522                	mv	a0,s0
    1906:	3d79                	jal	17a4 <ETH_Configuration>
C:/ch32/data/CH32V307EVT/EVT/EXAM/ETH/NetLib/eth_driver.c:727
    ETH_DMATxDescChainInit(DMATxDscrTab, MACTxBuf, ETH_TXBUFNB);
    1908:	200025b7          	lui	a1,0x20002
    190c:	4d818413          	addi	s0,gp,1240 # 20000cf8 <DMATxDscrTab>
    1910:	4609                	li	a2,2
    1912:	51858593          	addi	a1,a1,1304 # 20002518 <MACTxBuf>
    1916:	4d818513          	addi	a0,gp,1240 # 20000cf8 <DMATxDscrTab>
    191a:	b4cff0ef          	jal	ra,c66 <ETH_DMATxDescChainInit>
C:/ch32/data/CH32V307EVT/EVT/EXAM/ETH/NetLib/eth_driver.c:728
    ETH_DMARxDescChainInit(DMARxDscrTab, MACRxBuf, ETH_RXBUFNB);
    191e:	200015b7          	lui	a1,0x20001
    1922:	49818493          	addi	s1,gp,1176 # 20000cb8 <DMARxDscrTab>
    1926:	4611                	li	a2,4
    1928:	d1858593          	addi	a1,a1,-744 # 20000d18 <MACRxBuf>
    192c:	49818513          	addi	a0,gp,1176 # 20000cb8 <DMARxDscrTab>
    1930:	b78ff0ef          	jal	ra,ca8 <ETH_DMARxDescChainInit>
C:/ch32/data/CH32V307EVT/EVT/EXAM/ETH/NetLib/eth_driver.c:729
    pDMARxSet = DMARxDscrTab;
    1934:	8691aa23          	sw	s1,-1932(gp) # 20000094 <pDMARxSet>
C:/ch32/data/CH32V307EVT/EVT/EXAM/ETH/NetLib/eth_driver.c:730
    pDMATxSet = DMATxDscrTab;
    1938:	8681ac23          	sw	s0,-1928(gp) # 20000098 <pDMATxSet>
NVIC_EnableIRQ():
C:\ch32\data\CH32V307EVT\EVT\EXAM\SRC\Core/core_riscv.h:169
    193c:	6709                	lui	a4,0x2
    193e:	e000e7b7          	lui	a5,0xe000e
    1942:	10e7a423          	sw	a4,264(a5) # e000e108 <_eusrstack+0xbfffe108>
ETH_Init():
C:/ch32/data/CH32V307EVT/EVT/EXAM/ETH/NetLib/eth_driver.c:732
    NVIC_EnableIRQ(ETH_IRQn);
}
    1946:	90ffe06f          	j	254 <__riscv_restore_0>

0000194a <ETH_LibInit>:
ETH_LibInit():
C:/ch32/data/CH32V307EVT/EVT/EXAM/ETH/NetLib/eth_driver.c:742
 * @brief   Ethernet library initialization program
 *
 * @return  command status
 */
uint8_t ETH_LibInit( uint8_t *ip, uint8_t *gwip, uint8_t *mask, uint8_t *macaddr )
{
    194a:	8e7fe2ef          	jal	t0,230 <__riscv_save_0>
    194e:	7139                	addi	sp,sp,-64
C:/ch32/data/CH32V307EVT/EVT/EXAM/ETH/NetLib/eth_driver.c:747
    uint8_t s;
    struct _WCH_CFG  cfg;

    memset(&cfg,0,sizeof(cfg));
    cfg.TxBufSize = ETH_TX_BUF_SZE;
    1950:	60000793          	li	a5,1536
    1954:	ca3e                	sw	a5,20(sp)
C:/ch32/data/CH32V307EVT/EVT/EXAM/ETH/NetLib/eth_driver.c:748
    cfg.TCPMss   = WCHNET_TCP_MSS;
    1956:	5b400793          	li	a5,1460
    195a:	cc3e                	sw	a5,24(sp)
C:/ch32/data/CH32V307EVT/EVT/EXAM/ETH/NetLib/eth_driver.c:749
    cfg.HeapSize = WCHNET_MEM_HEAP_SIZE;
    195c:	6785                	lui	a5,0x1
    195e:	23478793          	addi	a5,a5,564 # 1234 <USART_Init+0x96>
    1962:	ce3e                	sw	a5,28(sp)
C:/ch32/data/CH32V307EVT/EVT/EXAM/ETH/NetLib/eth_driver.c:750
    cfg.ARPTableNum = WCHNET_NUM_ARP_TABLE;
    1964:	03200793          	li	a5,50
    1968:	d03e                	sw	a5,32(sp)
C:/ch32/data/CH32V307EVT/EVT/EXAM/ETH/NetLib/eth_driver.c:751
    cfg.MiscConfig0 = WCHNET_MISC_CONFIG0;
    196a:	478d                	li	a5,3
    196c:	d23e                	sw	a5,36(sp)
C:/ch32/data/CH32V307EVT/EVT/EXAM/ETH/NetLib/eth_driver.c:752
    cfg.MiscConfig1 = WCHNET_MISC_CONFIG1;
    196e:	065527b7          	lui	a5,0x6552
    1972:	0785                	addi	a5,a5,1
    1974:	d43e                	sw	a5,40(sp)
C:/ch32/data/CH32V307EVT/EVT/EXAM/ETH/NetLib/eth_driver.c:754
#if( PHY_MODE ==  USE_10M_BASE )
    cfg.led_link = ETH_LedLinkSet;
    1976:	000017b7          	lui	a5,0x1
    197a:	2e878793          	addi	a5,a5,744 # 12e8 <ETH_LedLinkSet>
    197e:	d63e                	sw	a5,44(sp)
C:/ch32/data/CH32V307EVT/EVT/EXAM/ETH/NetLib/eth_driver.c:755
    cfg.led_data = ETH_LedDataSet;
    1980:	000017b7          	lui	a5,0x1
    1984:	2ca78793          	addi	a5,a5,714 # 12ca <ETH_LedDataSet>
    1988:	d83e                	sw	a5,48(sp)
C:/ch32/data/CH32V307EVT/EVT/EXAM/ETH/NetLib/eth_driver.c:757
#endif
    cfg.net_send = ETH_TxPktChainMode;
    198a:	000017b7          	lui	a5,0x1
    198e:	28078793          	addi	a5,a5,640 # 1280 <ETH_TxPktChainMode>
    1992:	da3e                	sw	a5,52(sp)
C:/ch32/data/CH32V307EVT/EVT/EXAM/ETH/NetLib/eth_driver.c:758
    cfg.CheckValid = WCHNET_CFG_VALID;
    1994:	123457b7          	lui	a5,0x12345
    1998:	67878793          	addi	a5,a5,1656 # 12345678 <_data_lma+0x12339a24>
C:/ch32/data/CH32V307EVT/EVT/EXAM/ETH/NetLib/eth_driver.c:742
{
    199c:	892a                	mv	s2,a0
C:/ch32/data/CH32V307EVT/EVT/EXAM/ETH/NetLib/eth_driver.c:759
    s = WCHNET_ConfigLIB(&cfg);
    199e:	0848                	addi	a0,sp,20
C:/ch32/data/CH32V307EVT/EVT/EXAM/ETH/NetLib/eth_driver.c:742
{
    19a0:	c62e                	sw	a1,12(sp)
    19a2:	c432                	sw	a2,8(sp)
    19a4:	84b6                	mv	s1,a3
C:/ch32/data/CH32V307EVT/EVT/EXAM/ETH/NetLib/eth_driver.c:746
    memset(&cfg,0,sizeof(cfg));
    19a6:	dc02                	sw	zero,56(sp)
C:/ch32/data/CH32V307EVT/EVT/EXAM/ETH/NetLib/eth_driver.c:758
    cfg.CheckValid = WCHNET_CFG_VALID;
    19a8:	de3e                	sw	a5,60(sp)
C:/ch32/data/CH32V307EVT/EVT/EXAM/ETH/NetLib/eth_driver.c:759
    s = WCHNET_ConfigLIB(&cfg);
    19aa:	6b5000ef          	jal	ra,285e <WCHNET_ConfigLIB>
C:/ch32/data/CH32V307EVT/EVT/EXAM/ETH/NetLib/eth_driver.c:760
    if( s ){
    19ae:	842a                	mv	s0,a0
    19b0:	e911                	bnez	a0,19c4 <ETH_LibInit+0x7a>
C:/ch32/data/CH32V307EVT/EVT/EXAM/ETH/NetLib/eth_driver.c:763
       return (s);
    }
    s = WCHNET_Init(ip,gwip,mask,macaddr);
    19b2:	4622                	lw	a2,8(sp)
    19b4:	45b2                	lw	a1,12(sp)
    19b6:	86a6                	mv	a3,s1
    19b8:	854a                	mv	a0,s2
    19ba:	5e3000ef          	jal	ra,279c <WCHNET_Init>
    19be:	842a                	mv	s0,a0
C:/ch32/data/CH32V307EVT/EVT/EXAM/ETH/NetLib/eth_driver.c:764
    ETH_Init( macaddr );
    19c0:	8526                	mv	a0,s1
    19c2:	3f0d                	jal	18f4 <ETH_Init>
C:/ch32/data/CH32V307EVT/EVT/EXAM/ETH/NetLib/eth_driver.c:766
    return (s);
}
    19c4:	8522                	mv	a0,s0
    19c6:	6121                	addi	sp,sp,64
    19c8:	88dfe06f          	j	254 <__riscv_restore_0>

000019cc <ST7789_GPIO_init>:
ST7789_GPIO_init():
C:\ch32\data\CH32V307EVT\EVT\EXAM\ETH\TcpClient\obj/../General_File/driver/st7789.c:22
#include "font.h"
/* LCD */
u16 POINT_COLOR = 0x0000;   /*  */
u16 BACK_COLOR = 0xFFFF;    /*  */
//st7789
void ST7789_GPIO_init(){
    19cc:	865fe2ef          	jal	t0,230 <__riscv_save_0>
    19d0:	1141                	addi	sp,sp,-16
C:\ch32\data\CH32V307EVT\EVT\EXAM\ETH\TcpClient\obj/../General_File/driver/st7789.c:25
    GPIO_InitTypeDef GPIO_init_structure={0};

        RCC_APB2PeriphClockCmd(RCC_APB2Periph_GPIOE,ENABLE);
    19d2:	4585                	li	a1,1
    19d4:	04000513          	li	a0,64
C:\ch32\data\CH32V307EVT\EVT\EXAM\ETH\TcpClient\obj/../General_File/driver/st7789.c:23
    GPIO_InitTypeDef GPIO_init_structure={0};
    19d8:	c202                	sw	zero,4(sp)
    19da:	c402                	sw	zero,8(sp)
    19dc:	c602                	sw	zero,12(sp)
C:\ch32\data\CH32V307EVT\EVT\EXAM\ETH\TcpClient\obj/../General_File/driver/st7789.c:25
        RCC_APB2PeriphClockCmd(RCC_APB2Periph_GPIOE,ENABLE);
    19de:	e06ff0ef          	jal	ra,fe4 <RCC_APB2PeriphClockCmd>
C:\ch32\data\CH32V307EVT\EVT\EXAM\ETH\TcpClient\obj/../General_File/driver/st7789.c:26
        GPIO_init_structure.GPIO_Pin=GPIO_Pin_7|GPIO_Pin_8|GPIO_Pin_9|GPIO_Pin_10|GPIO_Pin_11|GPIO_Pin_12|GPIO_Pin_13|GPIO_Pin_14;
    19e2:	77e1                	lui	a5,0xffff8
    19e4:	f807c793          	xori	a5,a5,-128
    19e8:	827c                	sh	a5,4(sp)
C:\ch32\data\CH32V307EVT\EVT\EXAM\ETH\TcpClient\obj/../General_File/driver/st7789.c:29
        GPIO_init_structure.GPIO_Mode=GPIO_Mode_Out_PP;
        GPIO_init_structure.GPIO_Speed=GPIO_Speed_50MHz;
        GPIO_Init(GPIOE,&GPIO_init_structure);
    19ea:	40012537          	lui	a0,0x40012
C:\ch32\data\CH32V307EVT\EVT\EXAM\ETH\TcpClient\obj/../General_File/driver/st7789.c:27
        GPIO_init_structure.GPIO_Mode=GPIO_Mode_Out_PP;
    19ee:	47c1                	li	a5,16
    19f0:	c63e                	sw	a5,12(sp)
C:\ch32\data\CH32V307EVT\EVT\EXAM\ETH\TcpClient\obj/../General_File/driver/st7789.c:29
        GPIO_Init(GPIOE,&GPIO_init_structure);
    19f2:	004c                	addi	a1,sp,4
C:\ch32\data\CH32V307EVT\EVT\EXAM\ETH\TcpClient\obj/../General_File/driver/st7789.c:28
        GPIO_init_structure.GPIO_Speed=GPIO_Speed_50MHz;
    19f4:	478d                	li	a5,3
C:\ch32\data\CH32V307EVT\EVT\EXAM\ETH\TcpClient\obj/../General_File/driver/st7789.c:29
        GPIO_Init(GPIOE,&GPIO_init_structure);
    19f6:	80050513          	addi	a0,a0,-2048 # 40011800 <_eusrstack+0x20001800>
C:\ch32\data\CH32V307EVT\EVT\EXAM\ETH\TcpClient\obj/../General_File/driver/st7789.c:28
        GPIO_init_structure.GPIO_Speed=GPIO_Speed_50MHz;
    19fa:	c43e                	sw	a5,8(sp)
C:\ch32\data\CH32V307EVT\EVT\EXAM\ETH\TcpClient\obj/../General_File/driver/st7789.c:29
        GPIO_Init(GPIOE,&GPIO_init_structure);
    19fc:	b82ff0ef          	jal	ra,d7e <GPIO_Init>
C:\ch32\data\CH32V307EVT\EVT\EXAM\ETH\TcpClient\obj/../General_File/driver/st7789.c:37
//        LCD_RST(1);
//        LCD_WR(1);
//        LCD_SDA(1);
//        LCD_SCK(1);
//        LCD_LED(1);
}
    1a00:	0141                	addi	sp,sp,16
    1a02:	853fe06f          	j	254 <__riscv_restore_0>

00001a06 <lcd_write_reg>:
lcd_write_reg():
C:\ch32\data\CH32V307EVT\EVT\EXAM\ETH\TcpClient\obj/../General_File/driver/st7789.c:47
 *
 *lcd
 *uint_8 reg
 *
 * */
void lcd_write_reg(u8 reg){
    1a06:	811fe2ef          	jal	t0,216 <__riscv_save_4>
C:\ch32\data\CH32V307EVT\EVT\EXAM\ETH\TcpClient\obj/../General_File/driver/st7789.c:52


        u8 i;

        LCD_CS(0);
    1a0a:	40012437          	lui	s0,0x40012
    1a0e:	4601                	li	a2,0
    1a10:	6591                	lui	a1,0x4
C:\ch32\data\CH32V307EVT\EVT\EXAM\ETH\TcpClient\obj/../General_File/driver/st7789.c:47
void lcd_write_reg(u8 reg){
    1a12:	84aa                	mv	s1,a0
C:\ch32\data\CH32V307EVT\EVT\EXAM\ETH\TcpClient\obj/../General_File/driver/st7789.c:52
        LCD_CS(0);
    1a14:	80040513          	addi	a0,s0,-2048 # 40011800 <_eusrstack+0x20001800>
    1a18:	c2eff0ef          	jal	ra,e46 <GPIO_WriteBit>
C:\ch32\data\CH32V307EVT\EVT\EXAM\ETH\TcpClient\obj/../General_File/driver/st7789.c:53
        LCD_WR(0);
    1a1c:	6585                	lui	a1,0x1
    1a1e:	80040513          	addi	a0,s0,-2048
    1a22:	4601                	li	a2,0
    1a24:	80058593          	addi	a1,a1,-2048 # 800 <__stack_size>
C:\ch32\data\CH32V307EVT\EVT\EXAM\ETH\TcpClient\obj/../General_File/driver/st7789.c:57

        for(i = 0; i < 8; i++)
        {
            LCD_SCK(0);
    1a28:	400129b7          	lui	s3,0x40012
C:\ch32\data\CH32V307EVT\EVT\EXAM\ETH\TcpClient\obj/../General_File/driver/st7789.c:53
        LCD_WR(0);
    1a2c:	c1aff0ef          	jal	ra,e46 <GPIO_WriteBit>
    1a30:	4421                	li	s0,8
C:\ch32\data\CH32V307EVT\EVT\EXAM\ETH\TcpClient\obj/../General_File/driver/st7789.c:57
            LCD_SCK(0);
    1a32:	80098913          	addi	s2,s3,-2048 # 40011800 <_eusrstack+0x20001800>
    1a36:	4601                	li	a2,0
    1a38:	20000593          	li	a1,512
    1a3c:	854a                	mv	a0,s2
    1a3e:	c08ff0ef          	jal	ra,e46 <GPIO_WriteBit>
C:\ch32\data\CH32V307EVT\EVT\EXAM\ETH\TcpClient\obj/../General_File/driver/st7789.c:58
            if(reg & 0x80)
    1a42:	01849793          	slli	a5,s1,0x18
    1a46:	87e1                	srai	a5,a5,0x18
C:\ch32\data\CH32V307EVT\EVT\EXAM\ETH\TcpClient\obj/../General_File/driver/st7789.c:59
                LCD_SDA(1);
    1a48:	4605                	li	a2,1
C:\ch32\data\CH32V307EVT\EVT\EXAM\ETH\TcpClient\obj/../General_File/driver/st7789.c:58
            if(reg & 0x80)
    1a4a:	0007c363          	bltz	a5,1a50 <lcd_write_reg+0x4a>
C:\ch32\data\CH32V307EVT\EVT\EXAM\ETH\TcpClient\obj/../General_File/driver/st7789.c:61
            else
                LCD_SDA(0);
    1a4e:	4601                	li	a2,0
    1a50:	40000593          	li	a1,1024
    1a54:	854a                	mv	a0,s2
    1a56:	bf0ff0ef          	jal	ra,e46 <GPIO_WriteBit>
C:\ch32\data\CH32V307EVT\EVT\EXAM\ETH\TcpClient\obj/../General_File/driver/st7789.c:62
            LCD_SCK(1);
    1a5a:	147d                	addi	s0,s0,-1
    1a5c:	4605                	li	a2,1
    1a5e:	20000593          	li	a1,512
    1a62:	854a                	mv	a0,s2
C:\ch32\data\CH32V307EVT\EVT\EXAM\ETH\TcpClient\obj/../General_File/driver/st7789.c:63
            reg <<= 1;
    1a64:	0486                	slli	s1,s1,0x1
    1a66:	0ff47413          	andi	s0,s0,255
C:\ch32\data\CH32V307EVT\EVT\EXAM\ETH\TcpClient\obj/../General_File/driver/st7789.c:62
            LCD_SCK(1);
    1a6a:	bdcff0ef          	jal	ra,e46 <GPIO_WriteBit>
C:\ch32\data\CH32V307EVT\EVT\EXAM\ETH\TcpClient\obj/../General_File/driver/st7789.c:63
            reg <<= 1;
    1a6e:	0ff4f493          	andi	s1,s1,255
C:\ch32\data\CH32V307EVT\EVT\EXAM\ETH\TcpClient\obj/../General_File/driver/st7789.c:55
        for(i = 0; i < 8; i++)
    1a72:	f071                	bnez	s0,1a36 <lcd_write_reg+0x30>
C:\ch32\data\CH32V307EVT\EVT\EXAM\ETH\TcpClient\obj/../General_File/driver/st7789.c:65
        }
        LCD_CS(1);
    1a74:	4605                	li	a2,1
    1a76:	6591                	lui	a1,0x4
    1a78:	80098513          	addi	a0,s3,-2048
    1a7c:	bcaff0ef          	jal	ra,e46 <GPIO_WriteBit>
C:\ch32\data\CH32V307EVT\EVT\EXAM\ETH\TcpClient\obj/../General_File/driver/st7789.c:68
//        LCD_WR(1);

}
    1a80:	fcafe06f          	j	24a <__riscv_restore_4>

00001a84 <lcd_write_data>:
lcd_write_data():
C:\ch32\data\CH32V307EVT\EVT\EXAM\ETH\TcpClient\obj/../General_File/driver/st7789.c:79
 * lcd
 *uint_8 data
 *
 * */

void lcd_write_data(u8 data){
    1a84:	f92fe2ef          	jal	t0,216 <__riscv_save_4>
C:\ch32\data\CH32V307EVT\EVT\EXAM\ETH\TcpClient\obj/../General_File/driver/st7789.c:82
    u8 i;

    LCD_CS(0);
    1a88:	40012437          	lui	s0,0x40012
    1a8c:	4601                	li	a2,0
    1a8e:	6591                	lui	a1,0x4
C:\ch32\data\CH32V307EVT\EVT\EXAM\ETH\TcpClient\obj/../General_File/driver/st7789.c:79
void lcd_write_data(u8 data){
    1a90:	84aa                	mv	s1,a0
C:\ch32\data\CH32V307EVT\EVT\EXAM\ETH\TcpClient\obj/../General_File/driver/st7789.c:82
    LCD_CS(0);
    1a92:	80040513          	addi	a0,s0,-2048 # 40011800 <_eusrstack+0x20001800>
    1a96:	bb0ff0ef          	jal	ra,e46 <GPIO_WriteBit>
C:\ch32\data\CH32V307EVT\EVT\EXAM\ETH\TcpClient\obj/../General_File/driver/st7789.c:83
    LCD_WR(1);
    1a9a:	6585                	lui	a1,0x1
    1a9c:	80040513          	addi	a0,s0,-2048
    1aa0:	4605                	li	a2,1
    1aa2:	80058593          	addi	a1,a1,-2048 # 800 <__stack_size>
C:\ch32\data\CH32V307EVT\EVT\EXAM\ETH\TcpClient\obj/../General_File/driver/st7789.c:87

    for(i = 0; i < 8; i++)
    {
        LCD_SCK(0);
    1aa6:	400129b7          	lui	s3,0x40012
C:\ch32\data\CH32V307EVT\EVT\EXAM\ETH\TcpClient\obj/../General_File/driver/st7789.c:83
    LCD_WR(1);
    1aaa:	b9cff0ef          	jal	ra,e46 <GPIO_WriteBit>
    1aae:	4421                	li	s0,8
C:\ch32\data\CH32V307EVT\EVT\EXAM\ETH\TcpClient\obj/../General_File/driver/st7789.c:87
        LCD_SCK(0);
    1ab0:	80098913          	addi	s2,s3,-2048 # 40011800 <_eusrstack+0x20001800>
    1ab4:	4601                	li	a2,0
    1ab6:	20000593          	li	a1,512
    1aba:	854a                	mv	a0,s2
    1abc:	b8aff0ef          	jal	ra,e46 <GPIO_WriteBit>
C:\ch32\data\CH32V307EVT\EVT\EXAM\ETH\TcpClient\obj/../General_File/driver/st7789.c:88
        if(data & 0x80)
    1ac0:	01849793          	slli	a5,s1,0x18
    1ac4:	87e1                	srai	a5,a5,0x18
C:\ch32\data\CH32V307EVT\EVT\EXAM\ETH\TcpClient\obj/../General_File/driver/st7789.c:89
            LCD_SDA(1);
    1ac6:	4605                	li	a2,1
C:\ch32\data\CH32V307EVT\EVT\EXAM\ETH\TcpClient\obj/../General_File/driver/st7789.c:88
        if(data & 0x80)
    1ac8:	0007c363          	bltz	a5,1ace <lcd_write_data+0x4a>
C:\ch32\data\CH32V307EVT\EVT\EXAM\ETH\TcpClient\obj/../General_File/driver/st7789.c:91
        else
            LCD_SDA(0);
    1acc:	4601                	li	a2,0
    1ace:	40000593          	li	a1,1024
    1ad2:	854a                	mv	a0,s2
    1ad4:	b72ff0ef          	jal	ra,e46 <GPIO_WriteBit>
C:\ch32\data\CH32V307EVT\EVT\EXAM\ETH\TcpClient\obj/../General_File/driver/st7789.c:92
        LCD_SCK(1);
    1ad8:	147d                	addi	s0,s0,-1
    1ada:	4605                	li	a2,1
    1adc:	20000593          	li	a1,512
    1ae0:	854a                	mv	a0,s2
C:\ch32\data\CH32V307EVT\EVT\EXAM\ETH\TcpClient\obj/../General_File/driver/st7789.c:93
        data <<= 1;
    1ae2:	0486                	slli	s1,s1,0x1
    1ae4:	0ff47413          	andi	s0,s0,255
C:\ch32\data\CH32V307EVT\EVT\EXAM\ETH\TcpClient\obj/../General_File/driver/st7789.c:92
        LCD_SCK(1);
    1ae8:	b5eff0ef          	jal	ra,e46 <GPIO_WriteBit>
C:\ch32\data\CH32V307EVT\EVT\EXAM\ETH\TcpClient\obj/../General_File/driver/st7789.c:93
        data <<= 1;
    1aec:	0ff4f493          	andi	s1,s1,255
C:\ch32\data\CH32V307EVT\EVT\EXAM\ETH\TcpClient\obj/../General_File/driver/st7789.c:85
    for(i = 0; i < 8; i++)
    1af0:	f071                	bnez	s0,1ab4 <lcd_write_data+0x30>
C:\ch32\data\CH32V307EVT\EVT\EXAM\ETH\TcpClient\obj/../General_File/driver/st7789.c:95
    }
    LCD_CS(1);
    1af2:	4605                	li	a2,1
    1af4:	6591                	lui	a1,0x4
    1af6:	80098513          	addi	a0,s3,-2048
    1afa:	b4cff0ef          	jal	ra,e46 <GPIO_WriteBit>
C:\ch32\data\CH32V307EVT\EVT\EXAM\ETH\TcpClient\obj/../General_File/driver/st7789.c:99
//    LCD_WR(1);


}
    1afe:	f4cfe06f          	j	24a <__riscv_restore_4>

00001b02 <lcd_write_ram>:
lcd_write_ram():
C:\ch32\data\CH32V307EVT\EVT\EXAM\ETH\TcpClient\obj/../General_File/driver/st7789.c:109
 : 
      : 
       : 
**************************************************************/
void lcd_write_ram(void)
{
    1b02:	f2efe2ef          	jal	t0,230 <__riscv_save_0>
C:\ch32\data\CH32V307EVT\EVT\EXAM\ETH\TcpClient\obj/../General_File/driver/st7789.c:110
    lcd_write_reg(0x2C);
    1b06:	02c00513          	li	a0,44
    1b0a:	3df5                	jal	1a06 <lcd_write_reg>
C:\ch32\data\CH32V307EVT\EVT\EXAM\ETH\TcpClient\obj/../General_File/driver/st7789.c:111
}
    1b0c:	f48fe06f          	j	254 <__riscv_restore_0>

00001b10 <lcd_set_address>:
lcd_set_address():
C:\ch32\data\CH32V307EVT\EVT\EXAM\ETH\TcpClient\obj/../General_File/driver/st7789.c:121
 : x1,y1x2,y2
      : 
       : 
**************************************************************/
void lcd_set_address(u16 x1, u16 y1, u16 x2, u16 y2)
{
    1b10:	f06fe2ef          	jal	t0,216 <__riscv_save_4>
    1b14:	89aa                	mv	s3,a0
C:\ch32\data\CH32V307EVT\EVT\EXAM\ETH\TcpClient\obj/../General_File/driver/st7789.c:122
    lcd_write_reg(0x2a);
    1b16:	02a00513          	li	a0,42
C:\ch32\data\CH32V307EVT\EVT\EXAM\ETH\TcpClient\obj/../General_File/driver/st7789.c:121
{
    1b1a:	8436                	mv	s0,a3
    1b1c:	84ae                	mv	s1,a1
    1b1e:	8932                	mv	s2,a2
C:\ch32\data\CH32V307EVT\EVT\EXAM\ETH\TcpClient\obj/../General_File/driver/st7789.c:122
    lcd_write_reg(0x2a);
    1b20:	35dd                	jal	1a06 <lcd_write_reg>
C:\ch32\data\CH32V307EVT\EVT\EXAM\ETH\TcpClient\obj/../General_File/driver/st7789.c:123
    lcd_write_data(x1 >> 8);
    1b22:	0089d513          	srli	a0,s3,0x8
    1b26:	3fb9                	jal	1a84 <lcd_write_data>
C:\ch32\data\CH32V307EVT\EVT\EXAM\ETH\TcpClient\obj/../General_File/driver/st7789.c:124
    lcd_write_data(x1&0xff);
    1b28:	0ff9f513          	andi	a0,s3,255
    1b2c:	3fa1                	jal	1a84 <lcd_write_data>
C:\ch32\data\CH32V307EVT\EVT\EXAM\ETH\TcpClient\obj/../General_File/driver/st7789.c:125
    lcd_write_data(x2 >> 8);
    1b2e:	00895513          	srli	a0,s2,0x8
    1b32:	3f89                	jal	1a84 <lcd_write_data>
C:\ch32\data\CH32V307EVT\EVT\EXAM\ETH\TcpClient\obj/../General_File/driver/st7789.c:126
    lcd_write_data(x2&0xff);
    1b34:	0ff97513          	andi	a0,s2,255
    1b38:	37b1                	jal	1a84 <lcd_write_data>
C:\ch32\data\CH32V307EVT\EVT\EXAM\ETH\TcpClient\obj/../General_File/driver/st7789.c:128

    lcd_write_reg(0x2b);
    1b3a:	02b00513          	li	a0,43
    1b3e:	35e1                	jal	1a06 <lcd_write_reg>
C:\ch32\data\CH32V307EVT\EVT\EXAM\ETH\TcpClient\obj/../General_File/driver/st7789.c:129
    lcd_write_data(y1 >> 8);
    1b40:	0084d513          	srli	a0,s1,0x8
    1b44:	3781                	jal	1a84 <lcd_write_data>
C:\ch32\data\CH32V307EVT\EVT\EXAM\ETH\TcpClient\obj/../General_File/driver/st7789.c:130
    lcd_write_data(y1&0xff);
    1b46:	0ff4f513          	andi	a0,s1,255
    1b4a:	3f2d                	jal	1a84 <lcd_write_data>
C:\ch32\data\CH32V307EVT\EVT\EXAM\ETH\TcpClient\obj/../General_File/driver/st7789.c:131
    lcd_write_data(y2 >> 8);
    1b4c:	00845513          	srli	a0,s0,0x8
    1b50:	3f15                	jal	1a84 <lcd_write_data>
C:\ch32\data\CH32V307EVT\EVT\EXAM\ETH\TcpClient\obj/../General_File/driver/st7789.c:132
    lcd_write_data(y2&0xff);
    1b52:	0ff47513          	andi	a0,s0,255
    1b56:	373d                	jal	1a84 <lcd_write_data>
C:\ch32\data\CH32V307EVT\EVT\EXAM\ETH\TcpClient\obj/../General_File/driver/st7789.c:133
    lcd_write_reg(0x2c);
    1b58:	02c00513          	li	a0,44
    1b5c:	356d                	jal	1a06 <lcd_write_reg>
C:\ch32\data\CH32V307EVT\EVT\EXAM\ETH\TcpClient\obj/../General_File/driver/st7789.c:134
}
    1b5e:	eecfe06f          	j	24a <__riscv_restore_4>

00001b62 <lcd_display_on>:
lcd_display_on():
C:\ch32\data\CH32V307EVT\EVT\EXAM\ETH\TcpClient\obj/../General_File/driver/st7789.c:144
 : 
      : 
       : 
**************************************************************/
void lcd_display_on(void)
{
    1b62:	ecefe2ef          	jal	t0,230 <__riscv_save_0>
C:\ch32\data\CH32V307EVT\EVT\EXAM\ETH\TcpClient\obj/../General_File/driver/st7789.c:146
//    LCD_PWR(1);
    lcd_write_reg(0x29);
    1b66:	02900513          	li	a0,41
    1b6a:	3d71                	jal	1a06 <lcd_write_reg>
C:\ch32\data\CH32V307EVT\EVT\EXAM\ETH\TcpClient\obj/../General_File/driver/st7789.c:147
}
    1b6c:	ee8fe06f          	j	254 <__riscv_restore_0>

00001b70 <lcd_display_off>:
lcd_display_off():
C:\ch32\data\CH32V307EVT\EVT\EXAM\ETH\TcpClient\obj/../General_File/driver/st7789.c:157
 : 
      : 
       : 
**************************************************************/
void lcd_display_off(void)
{
    1b70:	ec0fe2ef          	jal	t0,230 <__riscv_save_0>
C:\ch32\data\CH32V307EVT\EVT\EXAM\ETH\TcpClient\obj/../General_File/driver/st7789.c:159
//    LCD_PWR(0);
    lcd_write_reg(0x28);
    1b74:	02800513          	li	a0,40
    1b78:	3579                	jal	1a06 <lcd_write_reg>
C:\ch32\data\CH32V307EVT\EVT\EXAM\ETH\TcpClient\obj/../General_File/driver/st7789.c:160
}
    1b7a:	edafe06f          	j	254 <__riscv_restore_0>

00001b7e <lcd_clear>:
lcd_clear():
C:\ch32\data\CH32V307EVT\EVT\EXAM\ETH\TcpClient\obj/../General_File/driver/st7789.c:170
 : color
      : 
       : RAM
**************************************************************/
void lcd_clear(u16 color)
{
    1b7e:	e98fe2ef          	jal	t0,216 <__riscv_save_4>
    1b82:	892a                	mv	s2,a0
C:\ch32\data\CH32V307EVT\EVT\EXAM\ETH\TcpClient\obj/../General_File/driver/st7789.c:173
    u16 i, j;

    lcd_display_off();      /*  */
    1b84:	37f5                	jal	1b70 <lcd_display_off>
C:\ch32\data\CH32V307EVT\EVT\EXAM\ETH\TcpClient\obj/../General_File/driver/st7789.c:174
    lcd_set_address(0, 0, LCD_WIDTH - 1, LCD_HEIHGT - 1);
    1b86:	13f00693          	li	a3,319
    1b8a:	0ef00613          	li	a2,239
    1b8e:	4581                	li	a1,0
    1b90:	4501                	li	a0,0
    1b92:	3fbd                	jal	1b10 <lcd_set_address>
C:\ch32\data\CH32V307EVT\EVT\EXAM\ETH\TcpClient\obj/../General_File/driver/st7789.c:181

    for(i = 0; i < LCD_HEIHGT; i++)
    {
        for(j = 0; j < LCD_WIDTH; j++)
        {
            lcd_write_data(color >> 8);
    1b94:	00895993          	srli	s3,s2,0x8
C:\ch32\data\CH32V307EVT\EVT\EXAM\ETH\TcpClient\obj/../General_File/driver/st7789.c:175
    lcd_write_ram();
    1b98:	37ad                	jal	1b02 <lcd_write_ram>
C:\ch32\data\CH32V307EVT\EVT\EXAM\ETH\TcpClient\obj/../General_File/driver/st7789.c:181
            lcd_write_data(color >> 8);
    1b9a:	14000493          	li	s1,320
C:\ch32\data\CH32V307EVT\EVT\EXAM\ETH\TcpClient\obj/../General_File/driver/st7789.c:182
            lcd_write_data(color & 0x00ff);
    1b9e:	0ff97913          	andi	s2,s2,255
C:\ch32\data\CH32V307EVT\EVT\EXAM\ETH\TcpClient\obj/../General_File/driver/st7789.c:170
{
    1ba2:	0f000413          	li	s0,240
C:\ch32\data\CH32V307EVT\EVT\EXAM\ETH\TcpClient\obj/../General_File/driver/st7789.c:181 (discriminator 3)
            lcd_write_data(color >> 8);
    1ba6:	854e                	mv	a0,s3
    1ba8:	147d                	addi	s0,s0,-1
    1baa:	3de9                	jal	1a84 <lcd_write_data>
C:\ch32\data\CH32V307EVT\EVT\EXAM\ETH\TcpClient\obj/../General_File/driver/st7789.c:182 (discriminator 3)
            lcd_write_data(color & 0x00ff);
    1bac:	0442                	slli	s0,s0,0x10
    1bae:	854a                	mv	a0,s2
    1bb0:	8041                	srli	s0,s0,0x10
    1bb2:	3dc9                	jal	1a84 <lcd_write_data>
C:\ch32\data\CH32V307EVT\EVT\EXAM\ETH\TcpClient\obj/../General_File/driver/st7789.c:179 (discriminator 3)
        for(j = 0; j < LCD_WIDTH; j++)
    1bb4:	f86d                	bnez	s0,1ba6 <lcd_clear+0x28>
    1bb6:	14fd                	addi	s1,s1,-1
    1bb8:	04c2                	slli	s1,s1,0x10
    1bba:	80c1                	srli	s1,s1,0x10
C:\ch32\data\CH32V307EVT\EVT\EXAM\ETH\TcpClient\obj/../General_File/driver/st7789.c:177 (discriminator 2)
    for(i = 0; i < LCD_HEIHGT; i++)
    1bbc:	f0fd                	bnez	s1,1ba2 <lcd_clear+0x24>
C:\ch32\data\CH32V307EVT\EVT\EXAM\ETH\TcpClient\obj/../General_File/driver/st7789.c:185
        }
    }
    lcd_display_on();       /*  */
    1bbe:	3755                	jal	1b62 <lcd_display_on>
C:\ch32\data\CH32V307EVT\EVT\EXAM\ETH\TcpClient\obj/../General_File/driver/st7789.c:186
}
    1bc0:	e8afe06f          	j	24a <__riscv_restore_4>

00001bc4 <lcd_draw_point>:
lcd_draw_point():
C:\ch32\data\CH32V307EVT\EVT\EXAM\ETH\TcpClient\obj/../General_File/driver/st7789.c:196
 : x,y  --> color --> 
      : 
       : 
**************************************************************/
void lcd_draw_point(u16 x, u16 y, u16 color)
{
    1bc4:	e6cfe2ef          	jal	t0,230 <__riscv_save_0>
    1bc8:	8432                	mv	s0,a2
C:\ch32\data\CH32V307EVT\EVT\EXAM\ETH\TcpClient\obj/../General_File/driver/st7789.c:197
    lcd_set_address(x, y, x, y);
    1bca:	86ae                	mv	a3,a1
    1bcc:	862a                	mv	a2,a0
    1bce:	3789                	jal	1b10 <lcd_set_address>
C:\ch32\data\CH32V307EVT\EVT\EXAM\ETH\TcpClient\obj/../General_File/driver/st7789.c:198
    lcd_write_ram();
    1bd0:	3f0d                	jal	1b02 <lcd_write_ram>
C:\ch32\data\CH32V307EVT\EVT\EXAM\ETH\TcpClient\obj/../General_File/driver/st7789.c:199
    lcd_write_data(color >> 8);
    1bd2:	00845513          	srli	a0,s0,0x8
    1bd6:	357d                	jal	1a84 <lcd_write_data>
C:\ch32\data\CH32V307EVT\EVT\EXAM\ETH\TcpClient\obj/../General_File/driver/st7789.c:200
    lcd_write_data(color & 0x00ff);
    1bd8:	0ff47513          	andi	a0,s0,255
    1bdc:	3565                	jal	1a84 <lcd_write_data>
C:\ch32\data\CH32V307EVT\EVT\EXAM\ETH\TcpClient\obj/../General_File/driver/st7789.c:201
}
    1bde:	e76fe06f          	j	254 <__riscv_restore_0>

00001be2 <lcd_show_char>:
lcd_show_char():
C:\ch32\data\CH32V307EVT\EVT\EXAM\ETH\TcpClient\obj/../General_File/driver/st7789.c:214
           mode:(1)(0)
      : 
       : 
**************************************************************/
void lcd_show_char(u16 x, u16 y, u8 num, u8 size, u8 mode)
{
    1be2:	e1efe2ef          	jal	t0,200 <__riscv_save_12>
C:\ch32\data\CH32V307EVT\EVT\EXAM\ETH\TcpClient\obj/../General_File/driver/st7789.c:217
    u16 temp, t1, t;
    u16 y0 = y;
    u16 csize = ((size / 8) + ((size % 8) ? 1 : 0)) * (size/2); /*    */
    1be6:	0076f493          	andi	s1,a3,7
    1bea:	0036d793          	srli	a5,a3,0x3
    1bee:	009034b3          	snez	s1,s1
    1bf2:	94be                	add	s1,s1,a5
    1bf4:	0016d793          	srli	a5,a3,0x1
    1bf8:	02f487b3          	mul	a5,s1,a5
C:\ch32\data\CH32V307EVT\EVT\EXAM\ETH\TcpClient\obj/../General_File/driver/st7789.c:219

    num = num - ' ';    /* ASCII-' ' */
    1bfc:	fe060913          	addi	s2,a2,-32 # 7fe0 <udp_input+0xcc>
    1c00:	0ff97913          	andi	s2,s2,255
C:\ch32\data\CH32V307EVT\EVT\EXAM\ETH\TcpClient\obj/../General_File/driver/st7789.c:214
{
    1c04:	1141                	addi	sp,sp,-16
    1c06:	02400a13          	li	s4,36
C:\ch32\data\CH32V307EVT\EVT\EXAM\ETH\TcpClient\obj/../General_File/driver/st7789.c:233
        {
            temp = asc2_2412[num][t];   /* 2412 */
        }
        else if(32 == size)
        {
            temp = asc2_3216[num][t];   /* 3216 */
    1c0a:	6aa9                	lui	s5,0xa
C:\ch32\data\CH32V307EVT\EVT\EXAM\ETH\TcpClient\obj/../General_File/driver/st7789.c:229
            temp = asc2_2412[num][t];   /* 2412 */
    1c0c:	6b25                	lui	s6,0x9
C:\ch32\data\CH32V307EVT\EVT\EXAM\ETH\TcpClient\obj/../General_File/driver/st7789.c:225
            temp = asc2_1608[num][t];   /* 1608 */
    1c0e:	6ba5                	lui	s7,0x9
C:\ch32\data\CH32V307EVT\EVT\EXAM\ETH\TcpClient\obj/../General_File/driver/st7789.c:214
{
    1c10:	89aa                	mv	s3,a0
    1c12:	8cae                	mv	s9,a1
C:\ch32\data\CH32V307EVT\EVT\EXAM\ETH\TcpClient\obj/../General_File/driver/st7789.c:217
    u16 csize = ((size / 8) + ((size % 8) ? 1 : 0)) * (size/2); /*    */
    1c14:	c03e                	sw	a5,0(sp)
C:\ch32\data\CH32V307EVT\EVT\EXAM\ETH\TcpClient\obj/../General_File/driver/st7789.c:221
    for(t = 0; t < csize; t++)  /*LCD */
    1c16:	00691793          	slli	a5,s2,0x6
    1c1a:	03490a33          	mul	s4,s2,s4
    1c1e:	c23e                	sw	a5,4(sp)
    1c20:	0912                	slli	s2,s2,0x4
    1c22:	842e                	mv	s0,a1
    1c24:	4c01                	li	s8,0
C:\ch32\data\CH32V307EVT\EVT\EXAM\ETH\TcpClient\obj/../General_File/driver/st7789.c:233
            temp = asc2_3216[num][t];   /* 3216 */
    1c26:	42ca8a93          	addi	s5,s5,1068 # a42c <asc2_3216>
C:\ch32\data\CH32V307EVT\EVT\EXAM\ETH\TcpClient\obj/../General_File/driver/st7789.c:229
            temp = asc2_2412[num][t];   /* 2412 */
    1c2a:	6d0b0b13          	addi	s6,s6,1744 # 96d0 <asc2_2412>
C:\ch32\data\CH32V307EVT\EVT\EXAM\ETH\TcpClient\obj/../General_File/driver/st7789.c:225
            temp = asc2_1608[num][t];   /* 1608 */
    1c2e:	0e0b8b93          	addi	s7,s7,224 # 90e0 <asc2_1608>
C:\ch32\data\CH32V307EVT\EVT\EXAM\ETH\TcpClient\obj/../General_File/driver/st7789.c:221 (discriminator 1)
    for(t = 0; t < csize; t++)  /*LCD */
    1c32:	4602                	lw	a2,0(sp)
    1c34:	010c1793          	slli	a5,s8,0x10
    1c38:	83c1                	srli	a5,a5,0x10
    1c3a:	00c7e563          	bltu	a5,a2,1c44 <lcd_show_char+0x62>
C:\ch32\data\CH32V307EVT\EVT\EXAM\ETH\TcpClient\obj/../General_File/driver/st7789.c:268
                }
                break;
            }
        }
    }
}
    1c3e:	0141                	addi	sp,sp,16
    1c40:	dfcfe06f          	j	23c <__riscv_restore_12>
C:\ch32\data\CH32V307EVT\EVT\EXAM\ETH\TcpClient\obj/../General_File/driver/st7789.c:223
        if(16 == size)
    1c44:	47c1                	li	a5,16
    1c46:	06f69863          	bne	a3,a5,1cb6 <lcd_show_char+0xd4>
C:\ch32\data\CH32V307EVT\EVT\EXAM\ETH\TcpClient\obj/../General_File/driver/st7789.c:225
            temp = asc2_1608[num][t];   /* 1608 */
    1c4a:	018907b3          	add	a5,s2,s8
    1c4e:	97de                	add	a5,a5,s7
C:\ch32\data\CH32V307EVT\EVT\EXAM\ETH\TcpClient\obj/../General_File/driver/st7789.c:233
            temp = asc2_3216[num][t];   /* 3216 */
    1c50:	2384                	lbu	s1,0(a5)
    1c52:	00140793          	addi	a5,s0,1
    1c56:	07c2                	slli	a5,a5,0x10
    1c58:	00840313          	addi	t1,s0,8
    1c5c:	83c1                	srli	a5,a5,0x10
    1c5e:	01031d13          	slli	s10,t1,0x10
    1c62:	41978db3          	sub	s11,a5,s9
    1c66:	010d5d13          	srli	s10,s10,0x10
C:\ch32\data\CH32V307EVT\EVT\EXAM\ETH\TcpClient\obj/../General_File/driver/st7789.c:241
            if(temp & 0x80)
    1c6a:	0804f613          	andi	a2,s1,128
    1c6e:	c23d                	beqz	a2,1cd4 <lcd_show_char+0xf2>
C:\ch32\data\CH32V307EVT\EVT\EXAM\ETH\TcpClient\obj/../General_File/driver/st7789.c:243
                lcd_draw_point(x, y, POINT_COLOR);
    1c70:	8881d603          	lhu	a2,-1912(gp) # 200000a8 <POINT_COLOR>
    1c74:	85a2                	mv	a1,s0
    1c76:	854e                	mv	a0,s3
    1c78:	c63a                	sw	a4,12(sp)
    1c7a:	c436                	sw	a3,8(sp)
    1c7c:	37a1                	jal	1bc4 <lcd_draw_point>
    1c7e:	46a2                	lw	a3,8(sp)
    1c80:	4732                	lw	a4,12(sp)
C:\ch32\data\CH32V307EVT\EVT\EXAM\ETH\TcpClient\obj/../General_File/driver/st7789.c:250
            y++;
    1c82:	0405                	addi	s0,s0,1
C:\ch32\data\CH32V307EVT\EVT\EXAM\ETH\TcpClient\obj/../General_File/driver/st7789.c:249
            temp <<= 1;
    1c84:	00149813          	slli	a6,s1,0x1
C:\ch32\data\CH32V307EVT\EVT\EXAM\ETH\TcpClient\obj/../General_File/driver/st7789.c:250
            y++;
    1c88:	0442                	slli	s0,s0,0x10
C:\ch32\data\CH32V307EVT\EVT\EXAM\ETH\TcpClient\obj/../General_File/driver/st7789.c:249
            temp <<= 1;
    1c8a:	01081493          	slli	s1,a6,0x10
C:\ch32\data\CH32V307EVT\EVT\EXAM\ETH\TcpClient\obj/../General_File/driver/st7789.c:250
            y++;
    1c8e:	8041                	srli	s0,s0,0x10
C:\ch32\data\CH32V307EVT\EVT\EXAM\ETH\TcpClient\obj/../General_File/driver/st7789.c:252
            if(y >= LCD_HEIHGT)
    1c90:	13f00793          	li	a5,319
C:\ch32\data\CH32V307EVT\EVT\EXAM\ETH\TcpClient\obj/../General_File/driver/st7789.c:249
            temp <<= 1;
    1c94:	80c1                	srli	s1,s1,0x10
C:\ch32\data\CH32V307EVT\EVT\EXAM\ETH\TcpClient\obj/../General_File/driver/st7789.c:252
            if(y >= LCD_HEIHGT)
    1c96:	fa87e4e3          	bltu	a5,s0,1c3e <lcd_show_char+0x5c>
C:\ch32\data\CH32V307EVT\EVT\EXAM\ETH\TcpClient\obj/../General_File/driver/st7789.c:256
            if((y - y0) == size)
    1c9a:	05b69863          	bne	a3,s11,1cea <lcd_show_char+0x108>
C:\ch32\data\CH32V307EVT\EVT\EXAM\ETH\TcpClient\obj/../General_File/driver/st7789.c:259
                x++;
    1c9e:	0985                	addi	s3,s3,1
    1ca0:	09c2                	slli	s3,s3,0x10
    1ca2:	0109d993          	srli	s3,s3,0x10
C:\ch32\data\CH32V307EVT\EVT\EXAM\ETH\TcpClient\obj/../General_File/driver/st7789.c:260
                if(x >= LCD_WIDTH)
    1ca6:	0ef00793          	li	a5,239
    1caa:	f937eae3          	bltu	a5,s3,1c3e <lcd_show_char+0x5c>
C:\ch32\data\CH32V307EVT\EVT\EXAM\ETH\TcpClient\obj/../General_File/driver/st7789.c:258
                y = y0;
    1cae:	8d66                	mv	s10,s9
    1cb0:	0c05                	addi	s8,s8,1
C:\ch32\data\CH32V307EVT\EVT\EXAM\ETH\TcpClient\obj/../General_File/driver/st7789.c:221 (discriminator 2)
    for(t = 0; t < csize; t++)  /*LCD */
    1cb2:	846a                	mv	s0,s10
    1cb4:	bfbd                	j	1c32 <lcd_show_char+0x50>
C:\ch32\data\CH32V307EVT\EVT\EXAM\ETH\TcpClient\obj/../General_File/driver/st7789.c:227
        else if(24 == size)
    1cb6:	47e1                	li	a5,24
    1cb8:	00f69663          	bne	a3,a5,1cc4 <lcd_show_char+0xe2>
C:\ch32\data\CH32V307EVT\EVT\EXAM\ETH\TcpClient\obj/../General_File/driver/st7789.c:229
            temp = asc2_2412[num][t];   /* 2412 */
    1cbc:	018a07b3          	add	a5,s4,s8
    1cc0:	97da                	add	a5,a5,s6
    1cc2:	b779                	j	1c50 <lcd_show_char+0x6e>
C:\ch32\data\CH32V307EVT\EVT\EXAM\ETH\TcpClient\obj/../General_File/driver/st7789.c:231
        else if(32 == size)
    1cc4:	02000793          	li	a5,32
    1cc8:	f6f69be3          	bne	a3,a5,1c3e <lcd_show_char+0x5c>
C:\ch32\data\CH32V307EVT\EVT\EXAM\ETH\TcpClient\obj/../General_File/driver/st7789.c:233
            temp = asc2_3216[num][t];   /* 3216 */
    1ccc:	4792                	lw	a5,4(sp)
    1cce:	97e2                	add	a5,a5,s8
    1cd0:	97d6                	add	a5,a5,s5
    1cd2:	bfbd                	j	1c50 <lcd_show_char+0x6e>
C:\ch32\data\CH32V307EVT\EVT\EXAM\ETH\TcpClient\obj/../General_File/driver/st7789.c:245
            else if(0 == mode)
    1cd4:	f75d                	bnez	a4,1c82 <lcd_show_char+0xa0>
C:\ch32\data\CH32V307EVT\EVT\EXAM\ETH\TcpClient\obj/../General_File/driver/st7789.c:247
                lcd_draw_point(x, y, BACK_COLOR);
    1cd6:	81e1d603          	lhu	a2,-2018(gp) # 2000003e <BACK_COLOR>
    1cda:	85a2                	mv	a1,s0
    1cdc:	854e                	mv	a0,s3
    1cde:	c63a                	sw	a4,12(sp)
    1ce0:	c436                	sw	a3,8(sp)
    1ce2:	35cd                	jal	1bc4 <lcd_draw_point>
    1ce4:	4732                	lw	a4,12(sp)
    1ce6:	46a2                	lw	a3,8(sp)
    1ce8:	bf69                	j	1c82 <lcd_show_char+0xa0>
    1cea:	0d85                	addi	s11,s11,1
C:\ch32\data\CH32V307EVT\EVT\EXAM\ETH\TcpClient\obj/../General_File/driver/st7789.c:239 (discriminator 2)
        for(t1 = 0; t1 < 8; t1++)   /*  */
    1cec:	f68d1fe3          	bne	s10,s0,1c6a <lcd_show_char+0x88>
    1cf0:	b7c1                	j	1cb0 <lcd_show_char+0xce>

00001cf2 <lcd_init>:
lcd_init():
C:\ch32\data\CH32V307EVT\EVT\EXAM\ETH\TcpClient\obj/../General_File/driver/st7789.c:448
LCD
u16 POINT_COLOR = 0x0000;    
u16 BACK_COLOR = 0xFFFF;    
**************************************************************/
void lcd_init(void)
{
    1cf2:	d3efe2ef          	jal	t0,230 <__riscv_save_0>
C:\ch32\data\CH32V307EVT\EVT\EXAM\ETH\TcpClient\obj/../General_File/driver/st7789.c:449
    ST7789_GPIO_init();
    1cf6:	cd7ff0ef          	jal	ra,19cc <ST7789_GPIO_init>
C:\ch32\data\CH32V307EVT\EVT\EXAM\ETH\TcpClient\obj/../General_File/driver/st7789.c:450
    LCD_RST(1);
    1cfa:	40012437          	lui	s0,0x40012
    1cfe:	4605                	li	a2,1
    1d00:	6585                	lui	a1,0x1
    1d02:	80040513          	addi	a0,s0,-2048 # 40011800 <_eusrstack+0x20001800>
    1d06:	940ff0ef          	jal	ra,e46 <GPIO_WriteBit>
C:\ch32\data\CH32V307EVT\EVT\EXAM\ETH\TcpClient\obj/../General_File/driver/st7789.c:451
    delay_ms(1);
    1d0a:	4505                	li	a0,1
    1d0c:	2c49                	jal	1f9e <Delay_Ms>
C:\ch32\data\CH32V307EVT\EVT\EXAM\ETH\TcpClient\obj/../General_File/driver/st7789.c:452
    LCD_RST(0);
    1d0e:	4601                	li	a2,0
    1d10:	6585                	lui	a1,0x1
    1d12:	80040513          	addi	a0,s0,-2048
    1d16:	930ff0ef          	jal	ra,e46 <GPIO_WriteBit>
C:\ch32\data\CH32V307EVT\EVT\EXAM\ETH\TcpClient\obj/../General_File/driver/st7789.c:453
    delay_ms(10);
    1d1a:	4529                	li	a0,10
    1d1c:	2449                	jal	1f9e <Delay_Ms>
C:\ch32\data\CH32V307EVT\EVT\EXAM\ETH\TcpClient\obj/../General_File/driver/st7789.c:454
    LCD_RST(1);
    1d1e:	4605                	li	a2,1
    1d20:	6585                	lui	a1,0x1
    1d22:	80040513          	addi	a0,s0,-2048
    1d26:	920ff0ef          	jal	ra,e46 <GPIO_WriteBit>
C:\ch32\data\CH32V307EVT\EVT\EXAM\ETH\TcpClient\obj/../General_File/driver/st7789.c:455
    delay_ms(120);
    1d2a:	07800513          	li	a0,120
    1d2e:	2c85                	jal	1f9e <Delay_Ms>
C:\ch32\data\CH32V307EVT\EVT\EXAM\ETH\TcpClient\obj/../General_File/driver/st7789.c:458

    /* Sleep Out */
    lcd_write_reg(0x11);
    1d30:	4545                	li	a0,17
    1d32:	cd5ff0ef          	jal	ra,1a06 <lcd_write_reg>
C:\ch32\data\CH32V307EVT\EVT\EXAM\ETH\TcpClient\obj/../General_File/driver/st7789.c:460
    /* wait for power stability */
    delay_ms(120);
    1d36:	07800513          	li	a0,120
    1d3a:	2495                	jal	1f9e <Delay_Ms>
C:\ch32\data\CH32V307EVT\EVT\EXAM\ETH\TcpClient\obj/../General_File/driver/st7789.c:463

    /* Memory Data Access Control */
    lcd_write_reg(0x36);
    1d3c:	03600513          	li	a0,54
    1d40:	cc7ff0ef          	jal	ra,1a06 <lcd_write_reg>
C:\ch32\data\CH32V307EVT\EVT\EXAM\ETH\TcpClient\obj/../General_File/driver/st7789.c:464
    lcd_write_data(0x00);
    1d44:	4501                	li	a0,0
    1d46:	d3fff0ef          	jal	ra,1a84 <lcd_write_data>
C:\ch32\data\CH32V307EVT\EVT\EXAM\ETH\TcpClient\obj/../General_File/driver/st7789.c:467

    /* RGB 5-6-5-bit  */
    lcd_write_reg(0x3A);
    1d4a:	03a00513          	li	a0,58
    1d4e:	cb9ff0ef          	jal	ra,1a06 <lcd_write_reg>
C:\ch32\data\CH32V307EVT\EVT\EXAM\ETH\TcpClient\obj/../General_File/driver/st7789.c:469
//    lcd_write_data(0x65);
    lcd_write_data(0x05);
    1d52:	4515                	li	a0,5
    1d54:	d31ff0ef          	jal	ra,1a84 <lcd_write_data>
C:\ch32\data\CH32V307EVT\EVT\EXAM\ETH\TcpClient\obj/../General_File/driver/st7789.c:473


    /* Porch Setting */
    lcd_write_reg(0xB2);
    1d58:	0b200513          	li	a0,178
    1d5c:	cabff0ef          	jal	ra,1a06 <lcd_write_reg>
C:\ch32\data\CH32V307EVT\EVT\EXAM\ETH\TcpClient\obj/../General_File/driver/st7789.c:474
    lcd_write_data(0x0C);
    1d60:	4531                	li	a0,12
    1d62:	d23ff0ef          	jal	ra,1a84 <lcd_write_data>
C:\ch32\data\CH32V307EVT\EVT\EXAM\ETH\TcpClient\obj/../General_File/driver/st7789.c:475
    lcd_write_data(0x0C);
    1d66:	4531                	li	a0,12
    1d68:	d1dff0ef          	jal	ra,1a84 <lcd_write_data>
C:\ch32\data\CH32V307EVT\EVT\EXAM\ETH\TcpClient\obj/../General_File/driver/st7789.c:476
    lcd_write_data(0x00);
    1d6c:	4501                	li	a0,0
    1d6e:	d17ff0ef          	jal	ra,1a84 <lcd_write_data>
C:\ch32\data\CH32V307EVT\EVT\EXAM\ETH\TcpClient\obj/../General_File/driver/st7789.c:477
    lcd_write_data(0x33);
    1d72:	03300513          	li	a0,51
    1d76:	d0fff0ef          	jal	ra,1a84 <lcd_write_data>
C:\ch32\data\CH32V307EVT\EVT\EXAM\ETH\TcpClient\obj/../General_File/driver/st7789.c:478
    lcd_write_data(0x33);
    1d7a:	03300513          	li	a0,51
    1d7e:	d07ff0ef          	jal	ra,1a84 <lcd_write_data>
C:\ch32\data\CH32V307EVT\EVT\EXAM\ETH\TcpClient\obj/../General_File/driver/st7789.c:481

    /*  Gate Control */
    lcd_write_reg(0xB7);
    1d82:	0b700513          	li	a0,183
    1d86:	c81ff0ef          	jal	ra,1a06 <lcd_write_reg>
C:\ch32\data\CH32V307EVT\EVT\EXAM\ETH\TcpClient\obj/../General_File/driver/st7789.c:482
    lcd_write_data(0x35);
    1d8a:	03500513          	li	a0,53
    1d8e:	cf7ff0ef          	jal	ra,1a84 <lcd_write_data>
C:\ch32\data\CH32V307EVT\EVT\EXAM\ETH\TcpClient\obj/../General_File/driver/st7789.c:486
//    lcd_write_data(0x72);

    /* VCOM Setting */
    lcd_write_reg(0xBB);
    1d92:	0bb00513          	li	a0,187
    1d96:	c71ff0ef          	jal	ra,1a06 <lcd_write_reg>
C:\ch32\data\CH32V307EVT\EVT\EXAM\ETH\TcpClient\obj/../General_File/driver/st7789.c:487
    lcd_write_data(0x28);   //Vcom=1.625V
    1d9a:	02800513          	li	a0,40
    1d9e:	ce7ff0ef          	jal	ra,1a84 <lcd_write_data>
C:\ch32\data\CH32V307EVT\EVT\EXAM\ETH\TcpClient\obj/../General_File/driver/st7789.c:491
//    lcd_write_data(0x3D);   //Vcom=1.625V

    /* LCM Control */
    lcd_write_reg(0xC0);
    1da2:	0c000513          	li	a0,192
    1da6:	c61ff0ef          	jal	ra,1a06 <lcd_write_reg>
C:\ch32\data\CH32V307EVT\EVT\EXAM\ETH\TcpClient\obj/../General_File/driver/st7789.c:492
    lcd_write_data(0x2C);
    1daa:	02c00513          	li	a0,44
    1dae:	cd7ff0ef          	jal	ra,1a84 <lcd_write_data>
C:\ch32\data\CH32V307EVT\EVT\EXAM\ETH\TcpClient\obj/../General_File/driver/st7789.c:495

    /* VDV and VRH Command Enable */
    lcd_write_reg(0xC2);
    1db2:	0c200513          	li	a0,194
    1db6:	c51ff0ef          	jal	ra,1a06 <lcd_write_reg>
C:\ch32\data\CH32V307EVT\EVT\EXAM\ETH\TcpClient\obj/../General_File/driver/st7789.c:496
    lcd_write_data(0x01);
    1dba:	4505                	li	a0,1
    1dbc:	cc9ff0ef          	jal	ra,1a84 <lcd_write_data>
C:\ch32\data\CH32V307EVT\EVT\EXAM\ETH\TcpClient\obj/../General_File/driver/st7789.c:499

    /* VRH Set */
    lcd_write_reg(0xC3);
    1dc0:	0c300513          	li	a0,195
    1dc4:	c43ff0ef          	jal	ra,1a06 <lcd_write_reg>
C:\ch32\data\CH32V307EVT\EVT\EXAM\ETH\TcpClient\obj/../General_File/driver/st7789.c:501
//    lcd_write_data(0x19);
    lcd_write_data(0x0b);
    1dc8:	452d                	li	a0,11
    1dca:	cbbff0ef          	jal	ra,1a84 <lcd_write_data>
C:\ch32\data\CH32V307EVT\EVT\EXAM\ETH\TcpClient\obj/../General_File/driver/st7789.c:504

    /* VDV Set */
    lcd_write_reg(0xC4);
    1dce:	0c400513          	li	a0,196
    1dd2:	c35ff0ef          	jal	ra,1a06 <lcd_write_reg>
C:\ch32\data\CH32V307EVT\EVT\EXAM\ETH\TcpClient\obj/../General_File/driver/st7789.c:505
    lcd_write_data(0x20);
    1dd6:	02000513          	li	a0,32
    1dda:	cabff0ef          	jal	ra,1a84 <lcd_write_data>
C:\ch32\data\CH32V307EVT\EVT\EXAM\ETH\TcpClient\obj/../General_File/driver/st7789.c:508

    /* Frame Rate Control in Normal Mode */
    lcd_write_reg(0xC6);
    1dde:	0c600513          	li	a0,198
    1de2:	c25ff0ef          	jal	ra,1a06 <lcd_write_reg>
C:\ch32\data\CH32V307EVT\EVT\EXAM\ETH\TcpClient\obj/../General_File/driver/st7789.c:509
    lcd_write_data(0x0F);   //60MHZ
    1de6:	453d                	li	a0,15
    1de8:	c9dff0ef          	jal	ra,1a84 <lcd_write_data>
C:\ch32\data\CH32V307EVT\EVT\EXAM\ETH\TcpClient\obj/../General_File/driver/st7789.c:512

    /* Power Control 1 */
    lcd_write_reg(0xD0);
    1dec:	0d000513          	li	a0,208
    1df0:	c17ff0ef          	jal	ra,1a06 <lcd_write_reg>
C:\ch32\data\CH32V307EVT\EVT\EXAM\ETH\TcpClient\obj/../General_File/driver/st7789.c:513
    lcd_write_data(0xA4);
    1df4:	0a400513          	li	a0,164
    1df8:	c8dff0ef          	jal	ra,1a84 <lcd_write_data>
C:\ch32\data\CH32V307EVT\EVT\EXAM\ETH\TcpClient\obj/../General_File/driver/st7789.c:514
    lcd_write_data(0xA1);
    1dfc:	0a100513          	li	a0,161
    1e00:	c85ff0ef          	jal	ra,1a84 <lcd_write_data>
C:\ch32\data\CH32V307EVT\EVT\EXAM\ETH\TcpClient\obj/../General_File/driver/st7789.c:517

    /* Positive Voltage Gamma Control */
    lcd_write_reg(0xE0);
    1e04:	0e000513          	li	a0,224
    1e08:	bffff0ef          	jal	ra,1a06 <lcd_write_reg>
C:\ch32\data\CH32V307EVT\EVT\EXAM\ETH\TcpClient\obj/../General_File/driver/st7789.c:518
    lcd_write_data(0xD0);
    1e0c:	0d000513          	li	a0,208
    1e10:	c75ff0ef          	jal	ra,1a84 <lcd_write_data>
C:\ch32\data\CH32V307EVT\EVT\EXAM\ETH\TcpClient\obj/../General_File/driver/st7789.c:519
    lcd_write_data(0x01);
    1e14:	4505                	li	a0,1
    1e16:	c6fff0ef          	jal	ra,1a84 <lcd_write_data>
C:\ch32\data\CH32V307EVT\EVT\EXAM\ETH\TcpClient\obj/../General_File/driver/st7789.c:522
//    lcd_write_data(0x04);

    lcd_write_data(0x08);
    1e1a:	4521                	li	a0,8
    1e1c:	c69ff0ef          	jal	ra,1a84 <lcd_write_data>
C:\ch32\data\CH32V307EVT\EVT\EXAM\ETH\TcpClient\obj/../General_File/driver/st7789.c:536
//    lcd_write_data(0x18);
//    lcd_write_data(0x0D);
//    lcd_write_data(0x0B);
//    lcd_write_data(0x1F);
//    lcd_write_data(0x23);
    lcd_write_data (0x0f);
    1e20:	453d                	li	a0,15
    1e22:	c63ff0ef          	jal	ra,1a84 <lcd_write_data>
C:\ch32\data\CH32V307EVT\EVT\EXAM\ETH\TcpClient\obj/../General_File/driver/st7789.c:537
    lcd_write_data (0x11);
    1e26:	4545                	li	a0,17
    1e28:	c5dff0ef          	jal	ra,1a84 <lcd_write_data>
C:\ch32\data\CH32V307EVT\EVT\EXAM\ETH\TcpClient\obj/../General_File/driver/st7789.c:538
    lcd_write_data (0x2a);
    1e2c:	02a00513          	li	a0,42
    1e30:	c55ff0ef          	jal	ra,1a84 <lcd_write_data>
C:\ch32\data\CH32V307EVT\EVT\EXAM\ETH\TcpClient\obj/../General_File/driver/st7789.c:539
    lcd_write_data (0x36);
    1e34:	03600513          	li	a0,54
    1e38:	c4dff0ef          	jal	ra,1a84 <lcd_write_data>
C:\ch32\data\CH32V307EVT\EVT\EXAM\ETH\TcpClient\obj/../General_File/driver/st7789.c:540
    lcd_write_data (0x55);
    1e3c:	05500513          	li	a0,85
    1e40:	c45ff0ef          	jal	ra,1a84 <lcd_write_data>
C:\ch32\data\CH32V307EVT\EVT\EXAM\ETH\TcpClient\obj/../General_File/driver/st7789.c:541
    lcd_write_data (0x44);
    1e44:	04400513          	li	a0,68
    1e48:	c3dff0ef          	jal	ra,1a84 <lcd_write_data>
C:\ch32\data\CH32V307EVT\EVT\EXAM\ETH\TcpClient\obj/../General_File/driver/st7789.c:542
    lcd_write_data (0x3a);
    1e4c:	03a00513          	li	a0,58
    1e50:	c35ff0ef          	jal	ra,1a84 <lcd_write_data>
C:\ch32\data\CH32V307EVT\EVT\EXAM\ETH\TcpClient\obj/../General_File/driver/st7789.c:543
    lcd_write_data (0x0b);
    1e54:	452d                	li	a0,11
    1e56:	c2fff0ef          	jal	ra,1a84 <lcd_write_data>
C:\ch32\data\CH32V307EVT\EVT\EXAM\ETH\TcpClient\obj/../General_File/driver/st7789.c:544
    lcd_write_data (0x06);
    1e5a:	4519                	li	a0,6
    1e5c:	c29ff0ef          	jal	ra,1a84 <lcd_write_data>
C:\ch32\data\CH32V307EVT\EVT\EXAM\ETH\TcpClient\obj/../General_File/driver/st7789.c:545
    lcd_write_data (0x11);
    1e60:	4545                	li	a0,17
    1e62:	c23ff0ef          	jal	ra,1a84 <lcd_write_data>
C:\ch32\data\CH32V307EVT\EVT\EXAM\ETH\TcpClient\obj/../General_File/driver/st7789.c:546
    lcd_write_data (0x20);
    1e66:	02000513          	li	a0,32
    1e6a:	c1bff0ef          	jal	ra,1a84 <lcd_write_data>
C:\ch32\data\CH32V307EVT\EVT\EXAM\ETH\TcpClient\obj/../General_File/driver/st7789.c:548
    /* Negative Voltage Gamma Control */
    lcd_write_reg(0xE1);
    1e6e:	0e100513          	li	a0,225
    1e72:	b95ff0ef          	jal	ra,1a06 <lcd_write_reg>
C:\ch32\data\CH32V307EVT\EVT\EXAM\ETH\TcpClient\obj/../General_File/driver/st7789.c:563
//    lcd_write_data(0x2F);
//    lcd_write_data(0x1F);
//    lcd_write_data(0x1F);
//    lcd_write_data(0x20);
//    lcd_write_data(0x23);
    lcd_write_data (0xd0);
    1e76:	0d000513          	li	a0,208
    1e7a:	c0bff0ef          	jal	ra,1a84 <lcd_write_data>
C:\ch32\data\CH32V307EVT\EVT\EXAM\ETH\TcpClient\obj/../General_File/driver/st7789.c:564
    lcd_write_data (0x02);
    1e7e:	4509                	li	a0,2
    1e80:	c05ff0ef          	jal	ra,1a84 <lcd_write_data>
C:\ch32\data\CH32V307EVT\EVT\EXAM\ETH\TcpClient\obj/../General_File/driver/st7789.c:565
    lcd_write_data (0x07);
    1e84:	451d                	li	a0,7
    1e86:	bffff0ef          	jal	ra,1a84 <lcd_write_data>
C:\ch32\data\CH32V307EVT\EVT\EXAM\ETH\TcpClient\obj/../General_File/driver/st7789.c:566
    lcd_write_data (0x0a);
    1e8a:	4529                	li	a0,10
    1e8c:	bf9ff0ef          	jal	ra,1a84 <lcd_write_data>
C:\ch32\data\CH32V307EVT\EVT\EXAM\ETH\TcpClient\obj/../General_File/driver/st7789.c:567
    lcd_write_data (0x0b);
    1e90:	452d                	li	a0,11
    1e92:	bf3ff0ef          	jal	ra,1a84 <lcd_write_data>
C:\ch32\data\CH32V307EVT\EVT\EXAM\ETH\TcpClient\obj/../General_File/driver/st7789.c:568
    lcd_write_data (0x18);
    1e96:	4561                	li	a0,24
    1e98:	bedff0ef          	jal	ra,1a84 <lcd_write_data>
C:\ch32\data\CH32V307EVT\EVT\EXAM\ETH\TcpClient\obj/../General_File/driver/st7789.c:569
    lcd_write_data (0x34);
    1e9c:	03400513          	li	a0,52
    1ea0:	be5ff0ef          	jal	ra,1a84 <lcd_write_data>
C:\ch32\data\CH32V307EVT\EVT\EXAM\ETH\TcpClient\obj/../General_File/driver/st7789.c:570
    lcd_write_data (0x43);
    1ea4:	04300513          	li	a0,67
    1ea8:	bddff0ef          	jal	ra,1a84 <lcd_write_data>
C:\ch32\data\CH32V307EVT\EVT\EXAM\ETH\TcpClient\obj/../General_File/driver/st7789.c:571
    lcd_write_data (0x4a);
    1eac:	04a00513          	li	a0,74
    1eb0:	bd5ff0ef          	jal	ra,1a84 <lcd_write_data>
C:\ch32\data\CH32V307EVT\EVT\EXAM\ETH\TcpClient\obj/../General_File/driver/st7789.c:572
    lcd_write_data (0x2b);
    1eb4:	02b00513          	li	a0,43
    1eb8:	bcdff0ef          	jal	ra,1a84 <lcd_write_data>
C:\ch32\data\CH32V307EVT\EVT\EXAM\ETH\TcpClient\obj/../General_File/driver/st7789.c:573
    lcd_write_data (0x1b);
    1ebc:	456d                	li	a0,27
    1ebe:	bc7ff0ef          	jal	ra,1a84 <lcd_write_data>
C:\ch32\data\CH32V307EVT\EVT\EXAM\ETH\TcpClient\obj/../General_File/driver/st7789.c:574
    lcd_write_data (0x1c);
    1ec2:	4571                	li	a0,28
    1ec4:	bc1ff0ef          	jal	ra,1a84 <lcd_write_data>
C:\ch32\data\CH32V307EVT\EVT\EXAM\ETH\TcpClient\obj/../General_File/driver/st7789.c:575
    lcd_write_data (0x22);
    1ec8:	02200513          	li	a0,34
    1ecc:	bb9ff0ef          	jal	ra,1a84 <lcd_write_data>
C:\ch32\data\CH32V307EVT\EVT\EXAM\ETH\TcpClient\obj/../General_File/driver/st7789.c:576
    lcd_write_data (0x1f);
    1ed0:	457d                	li	a0,31
    1ed2:	bb3ff0ef          	jal	ra,1a84 <lcd_write_data>
C:\ch32\data\CH32V307EVT\EVT\EXAM\ETH\TcpClient\obj/../General_File/driver/st7789.c:580

    /* Display Inversion On */
//    lcd_write_reg(0x21);
    lcd_write_reg(0x29);
    1ed6:	02900513          	li	a0,41
    1eda:	b2dff0ef          	jal	ra,1a06 <lcd_write_reg>
C:\ch32\data\CH32V307EVT\EVT\EXAM\ETH\TcpClient\obj/../General_File/driver/st7789.c:585

//    lcd_clear(BACK_COLOR);
//    /**/
//    LCD_PWR(1);
}
    1ede:	b76fe06f          	j	254 <__riscv_restore_0>

00001ee2 <EXTI0_IRQHandler>:
EXTI0_IRQHandler():
C:\ch32\data\CH32V307EVT\EVT\EXAM\ETH\TcpClient\obj/../General_File/system.c:126
volatile uint16_t LED_Status = 0; //  volatile 

//
void EXTI0_IRQHandler(void)
{
    EXTI_ClearFlag(EXTI_Line0); // 
    1ee2:	4505                	li	a0,1
    1ee4:	e87fe0ef          	jal	ra,d6a <EXTI_ClearFlag>
C:\ch32\data\CH32V307EVT\EVT\EXAM\ETH\TcpClient\obj/../General_File/system.c:127
    LED_Status = !LED_Status ;  //  LED 
    1ee8:	88a18793          	addi	a5,gp,-1910 # 200000aa <LED_Status>
    1eec:	239a                	lhu	a4,0(a5)
C:\ch32\data\CH32V307EVT\EVT\EXAM\ETH\TcpClient\obj/../General_File/system.c:128
    GPIO_WriteBit(GPIOE, GPIO_Pin_11, LED_Status); //  PE11 ( LED1) 
    1eee:	6585                	lui	a1,0x1
    1ef0:	40012537          	lui	a0,0x40012
C:\ch32\data\CH32V307EVT\EVT\EXAM\ETH\TcpClient\obj/../General_File/system.c:127
    LED_Status = !LED_Status ;  //  LED 
    1ef4:	0742                	slli	a4,a4,0x10
    1ef6:	8341                	srli	a4,a4,0x10
    1ef8:	00173713          	seqz	a4,a4
    1efc:	a39a                	sh	a4,0(a5)
C:\ch32\data\CH32V307EVT\EVT\EXAM\ETH\TcpClient\obj/../General_File/system.c:128
    GPIO_WriteBit(GPIOE, GPIO_Pin_11, LED_Status); //  PE11 ( LED1) 
    1efe:	2392                	lhu	a2,0(a5)
    1f00:	80058593          	addi	a1,a1,-2048 # 800 <__stack_size>
    1f04:	80050513          	addi	a0,a0,-2048 # 40011800 <_eusrstack+0x20001800>
    1f08:	f3ffe0ef          	jal	ra,e46 <GPIO_WriteBit>
C:\ch32\data\CH32V307EVT\EVT\EXAM\ETH\TcpClient\obj/../General_File/system.c:129
}
    1f0c:	30200073          	mret

00001f10 <TIM6_IRQHandler>:
TIM6_IRQHandler():
C:\ch32\data\CH32V307EVT\EVT\EXAM\ETH\TcpClient\obj/../General_File/system.c:135

//
//volatile uint16_t LED_Status = 0; //  volatile 
   void TIM6_IRQHandler(void)
   {
      TIM_ClearFlag(TIM6, TIM_FLAG_Update);//
    1f10:	4585                	li	a1,1
    1f12:	40001537          	lui	a0,0x40001
    1f16:	a70ff0ef          	jal	ra,1186 <TIM_ClearFlag>
C:\ch32\data\CH32V307EVT\EVT\EXAM\ETH\TcpClient\obj/../General_File/system.c:136
      LED_Status = !LED_Status ;  //  LED 
    1f1a:	88a18793          	addi	a5,gp,-1910 # 200000aa <LED_Status>
    1f1e:	239a                	lhu	a4,0(a5)
C:\ch32\data\CH32V307EVT\EVT\EXAM\ETH\TcpClient\obj/../General_File/system.c:137
      GPIO_WriteBit(GPIOE, GPIO_Pin_11, LED_Status); //  PE11 ( LED1) 
    1f20:	6585                	lui	a1,0x1
    1f22:	40012537          	lui	a0,0x40012
C:\ch32\data\CH32V307EVT\EVT\EXAM\ETH\TcpClient\obj/../General_File/system.c:136
      LED_Status = !LED_Status ;  //  LED 
    1f26:	0742                	slli	a4,a4,0x10
    1f28:	8341                	srli	a4,a4,0x10
    1f2a:	00173713          	seqz	a4,a4
    1f2e:	a39a                	sh	a4,0(a5)
C:\ch32\data\CH32V307EVT\EVT\EXAM\ETH\TcpClient\obj/../General_File/system.c:137
      GPIO_WriteBit(GPIOE, GPIO_Pin_11, LED_Status); //  PE11 ( LED1) 
    1f30:	2392                	lhu	a2,0(a5)
    1f32:	80058593          	addi	a1,a1,-2048 # 800 <__stack_size>
    1f36:	80050513          	addi	a0,a0,-2048 # 40011800 <_eusrstack+0x20001800>
    1f3a:	f0dfe0ef          	jal	ra,e46 <GPIO_WriteBit>
C:\ch32\data\CH32V307EVT\EVT\EXAM\ETH\TcpClient\obj/../General_File/system.c:138
   }
    1f3e:	30200073          	mret

00001f42 <Delay_Init>:
Delay_Init():
C:/ch32/data/CH32V307EVT/EVT/EXAM/SRC/Debug/debug.c:27
 *
 * @return  none
 */
void Delay_Init(void)
{
    p_us = SystemCoreClock / 8000000;
    1f42:	8141a783          	lw	a5,-2028(gp) # 20000034 <SystemCoreClock>
    1f46:	007a1737          	lui	a4,0x7a1
    1f4a:	20070713          	addi	a4,a4,512 # 7a1200 <_data_lma+0x7955ac>
    1f4e:	02e7d7b3          	divu	a5,a5,a4
    1f52:	0ff7f793          	andi	a5,a5,255
    1f56:	88f18723          	sb	a5,-1906(gp) # 200000ae <p_us>
C:/ch32/data/CH32V307EVT/EVT/EXAM/SRC/Debug/debug.c:28
    p_ms = (uint16_t)p_us * 1000;
    1f5a:	3e800713          	li	a4,1000
    1f5e:	02e787b3          	mul	a5,a5,a4
    1f62:	88f19623          	sh	a5,-1908(gp) # 200000ac <p_ms>
C:/ch32/data/CH32V307EVT/EVT/EXAM/SRC/Debug/debug.c:29
}
    1f66:	8082                	ret

00001f68 <Delay_Us>:
Delay_Us():
C:/ch32/data/CH32V307EVT/EVT/EXAM/SRC/Debug/debug.c:44
 */
void Delay_Us(uint32_t n)
{
    uint32_t i;

    SysTick->SR &= ~(1 << 0);
    1f68:	e000f7b7          	lui	a5,0xe000f
    1f6c:	43d8                	lw	a4,4(a5)
C:/ch32/data/CH32V307EVT/EVT/EXAM/SRC/Debug/debug.c:47
    i = (uint32_t)n * p_us;

    SysTick->CMP = i;
    1f6e:	4681                	li	a3,0
C:/ch32/data/CH32V307EVT/EVT/EXAM/SRC/Debug/debug.c:44
    SysTick->SR &= ~(1 << 0);
    1f70:	9b79                	andi	a4,a4,-2
    1f72:	c3d8                	sw	a4,4(a5)
C:/ch32/data/CH32V307EVT/EVT/EXAM/SRC/Debug/debug.c:45
    i = (uint32_t)n * p_us;
    1f74:	88e1c703          	lbu	a4,-1906(gp) # 200000ae <p_us>
C:/ch32/data/CH32V307EVT/EVT/EXAM/SRC/Debug/debug.c:47
    SysTick->CMP = i;
    1f78:	02a70633          	mul	a2,a4,a0
    1f7c:	cb90                	sw	a2,16(a5)
    1f7e:	cbd4                	sw	a3,20(a5)
C:/ch32/data/CH32V307EVT/EVT/EXAM/SRC/Debug/debug.c:48
    SysTick->CTLR |= (1 << 4);
    1f80:	4398                	lw	a4,0(a5)
    1f82:	01076713          	ori	a4,a4,16
    1f86:	c398                	sw	a4,0(a5)
C:/ch32/data/CH32V307EVT/EVT/EXAM/SRC/Debug/debug.c:49
    SysTick->CTLR |= (1 << 5) | (1 << 0);
    1f88:	4398                	lw	a4,0(a5)
    1f8a:	02176713          	ori	a4,a4,33
    1f8e:	c398                	sw	a4,0(a5)
C:/ch32/data/CH32V307EVT/EVT/EXAM/SRC/Debug/debug.c:51 (discriminator 1)

    while((SysTick->SR & (1 << 0)) != (1 << 0))
    1f90:	43d8                	lw	a4,4(a5)
    1f92:	8b05                	andi	a4,a4,1
    1f94:	df75                	beqz	a4,1f90 <Delay_Us+0x28>
C:/ch32/data/CH32V307EVT/EVT/EXAM/SRC/Debug/debug.c:53
        ;
    SysTick->CTLR &= ~(1 << 0);
    1f96:	4398                	lw	a4,0(a5)
    1f98:	9b79                	andi	a4,a4,-2
    1f9a:	c398                	sw	a4,0(a5)
C:/ch32/data/CH32V307EVT/EVT/EXAM/SRC/Debug/debug.c:54
}
    1f9c:	8082                	ret

00001f9e <Delay_Ms>:
Delay_Ms():
C:/ch32/data/CH32V307EVT/EVT/EXAM/SRC/Debug/debug.c:69
 */
void Delay_Ms(uint32_t n)
{
    uint32_t i;

    SysTick->SR &= ~(1 << 0);
    1f9e:	e000f7b7          	lui	a5,0xe000f
    1fa2:	43d8                	lw	a4,4(a5)
C:/ch32/data/CH32V307EVT/EVT/EXAM/SRC/Debug/debug.c:72
    i = (uint32_t)n * p_ms;

    SysTick->CMP = i;
    1fa4:	4681                	li	a3,0
C:/ch32/data/CH32V307EVT/EVT/EXAM/SRC/Debug/debug.c:69
    SysTick->SR &= ~(1 << 0);
    1fa6:	9b79                	andi	a4,a4,-2
    1fa8:	c3d8                	sw	a4,4(a5)
C:/ch32/data/CH32V307EVT/EVT/EXAM/SRC/Debug/debug.c:70
    i = (uint32_t)n * p_ms;
    1faa:	88c1d703          	lhu	a4,-1908(gp) # 200000ac <p_ms>
C:/ch32/data/CH32V307EVT/EVT/EXAM/SRC/Debug/debug.c:72
    SysTick->CMP = i;
    1fae:	02a70633          	mul	a2,a4,a0
    1fb2:	cb90                	sw	a2,16(a5)
    1fb4:	cbd4                	sw	a3,20(a5)
C:/ch32/data/CH32V307EVT/EVT/EXAM/SRC/Debug/debug.c:73
    SysTick->CTLR |= (1 << 4);
    1fb6:	4398                	lw	a4,0(a5)
    1fb8:	01076713          	ori	a4,a4,16
    1fbc:	c398                	sw	a4,0(a5)
C:/ch32/data/CH32V307EVT/EVT/EXAM/SRC/Debug/debug.c:74
    SysTick->CTLR |= (1 << 5) | (1 << 0);
    1fbe:	4398                	lw	a4,0(a5)
    1fc0:	02176713          	ori	a4,a4,33
    1fc4:	c398                	sw	a4,0(a5)
C:/ch32/data/CH32V307EVT/EVT/EXAM/SRC/Debug/debug.c:76 (discriminator 1)

    while((SysTick->SR & (1 << 0)) != (1 << 0))
    1fc6:	43d8                	lw	a4,4(a5)
    1fc8:	8b05                	andi	a4,a4,1
    1fca:	df75                	beqz	a4,1fc6 <Delay_Ms+0x28>
C:/ch32/data/CH32V307EVT/EVT/EXAM/SRC/Debug/debug.c:78
        ;
    SysTick->CTLR &= ~(1 << 0);
    1fcc:	4398                	lw	a4,0(a5)
    1fce:	9b79                	andi	a4,a4,-2
    1fd0:	c398                	sw	a4,0(a5)
C:/ch32/data/CH32V307EVT/EVT/EXAM/SRC/Debug/debug.c:79
}
    1fd2:	8082                	ret

00001fd4 <USART_Printf_Init>:
USART_Printf_Init():
C:/ch32/data/CH32V307EVT/EVT/EXAM/SRC/Debug/debug.c:91
 * @param   baudrate - USART communication baud rate.
 *
 * @return  None
 */
void USART_Printf_Init(uint32_t baudrate)
{
    1fd4:	a5cfe2ef          	jal	t0,230 <__riscv_save_0>
    1fd8:	842a                	mv	s0,a0
C:/ch32/data/CH32V307EVT/EVT/EXAM/SRC/Debug/debug.c:96
    GPIO_InitTypeDef  GPIO_InitStructure;
    USART_InitTypeDef USART_InitStructure;

#if(DEBUG == DEBUG_UART1)
    RCC_APB2PeriphClockCmd(RCC_APB2Periph_USART1 | RCC_APB2Periph_GPIOA, ENABLE);
    1fda:	6511                	lui	a0,0x4
C:/ch32/data/CH32V307EVT/EVT/EXAM/SRC/Debug/debug.c:91
{
    1fdc:	1101                	addi	sp,sp,-32
C:/ch32/data/CH32V307EVT/EVT/EXAM/SRC/Debug/debug.c:96
    RCC_APB2PeriphClockCmd(RCC_APB2Periph_USART1 | RCC_APB2Periph_GPIOA, ENABLE);
    1fde:	4585                	li	a1,1
    1fe0:	0511                	addi	a0,a0,4
    1fe2:	802ff0ef          	jal	ra,fe4 <RCC_APB2PeriphClockCmd>
C:/ch32/data/CH32V307EVT/EVT/EXAM/SRC/Debug/debug.c:98

    GPIO_InitStructure.GPIO_Pin = GPIO_Pin_9;
    1fe6:	20000793          	li	a5,512
    1fea:	827c                	sh	a5,4(sp)
C:/ch32/data/CH32V307EVT/EVT/EXAM/SRC/Debug/debug.c:101
    GPIO_InitStructure.GPIO_Speed = GPIO_Speed_50MHz;
    GPIO_InitStructure.GPIO_Mode = GPIO_Mode_AF_PP;
    GPIO_Init(GPIOA, &GPIO_InitStructure);
    1fec:	40011537          	lui	a0,0x40011
C:/ch32/data/CH32V307EVT/EVT/EXAM/SRC/Debug/debug.c:99
    GPIO_InitStructure.GPIO_Speed = GPIO_Speed_50MHz;
    1ff0:	478d                	li	a5,3
    1ff2:	c43e                	sw	a5,8(sp)
C:/ch32/data/CH32V307EVT/EVT/EXAM/SRC/Debug/debug.c:101
    GPIO_Init(GPIOA, &GPIO_InitStructure);
    1ff4:	004c                	addi	a1,sp,4
C:/ch32/data/CH32V307EVT/EVT/EXAM/SRC/Debug/debug.c:100
    GPIO_InitStructure.GPIO_Mode = GPIO_Mode_AF_PP;
    1ff6:	47e1                	li	a5,24
C:/ch32/data/CH32V307EVT/EVT/EXAM/SRC/Debug/debug.c:101
    GPIO_Init(GPIOA, &GPIO_InitStructure);
    1ff8:	80050513          	addi	a0,a0,-2048 # 40010800 <_eusrstack+0x20000800>
C:/ch32/data/CH32V307EVT/EVT/EXAM/SRC/Debug/debug.c:100
    GPIO_InitStructure.GPIO_Mode = GPIO_Mode_AF_PP;
    1ffc:	c63e                	sw	a5,12(sp)
C:/ch32/data/CH32V307EVT/EVT/EXAM/SRC/Debug/debug.c:101
    GPIO_Init(GPIOA, &GPIO_InitStructure);
    1ffe:	d81fe0ef          	jal	ra,d7e <GPIO_Init>
C:/ch32/data/CH32V307EVT/EVT/EXAM/SRC/Debug/debug.c:123
    GPIO_InitStructure.GPIO_Mode = GPIO_Mode_AF_PP;
    GPIO_Init(GPIOB, &GPIO_InitStructure);

#endif

    USART_InitStructure.USART_BaudRate = baudrate;
    2002:	c822                	sw	s0,16(sp)
C:/ch32/data/CH32V307EVT/EVT/EXAM/SRC/Debug/debug.c:131
    USART_InitStructure.USART_Parity = USART_Parity_No;
    USART_InitStructure.USART_HardwareFlowControl = USART_HardwareFlowControl_None;
    USART_InitStructure.USART_Mode = USART_Mode_Tx;

#if(DEBUG == DEBUG_UART1)
    USART_Init(USART1, &USART_InitStructure);
    2004:	40014437          	lui	s0,0x40014
C:/ch32/data/CH32V307EVT/EVT/EXAM/SRC/Debug/debug.c:126
    USART_InitStructure.USART_Parity = USART_Parity_No;
    2008:	000807b7          	lui	a5,0x80
C:/ch32/data/CH32V307EVT/EVT/EXAM/SRC/Debug/debug.c:131
    USART_Init(USART1, &USART_InitStructure);
    200c:	080c                	addi	a1,sp,16
    200e:	80040513          	addi	a0,s0,-2048 # 40013800 <_eusrstack+0x20003800>
C:/ch32/data/CH32V307EVT/EVT/EXAM/SRC/Debug/debug.c:126
    USART_InitStructure.USART_Parity = USART_Parity_No;
    2012:	cc3e                	sw	a5,24(sp)
C:/ch32/data/CH32V307EVT/EVT/EXAM/SRC/Debug/debug.c:124
    USART_InitStructure.USART_WordLength = USART_WordLength_8b;
    2014:	ca02                	sw	zero,20(sp)
C:/ch32/data/CH32V307EVT/EVT/EXAM/SRC/Debug/debug.c:127
    USART_InitStructure.USART_HardwareFlowControl = USART_HardwareFlowControl_None;
    2016:	00011e23          	sh	zero,28(sp)
C:/ch32/data/CH32V307EVT/EVT/EXAM/SRC/Debug/debug.c:131
    USART_Init(USART1, &USART_InitStructure);
    201a:	984ff0ef          	jal	ra,119e <USART_Init>
C:/ch32/data/CH32V307EVT/EVT/EXAM/SRC/Debug/debug.c:132
    USART_Cmd(USART1, ENABLE);
    201e:	4585                	li	a1,1
    2020:	80040513          	addi	a0,s0,-2048
    2024:	a34ff0ef          	jal	ra,1258 <USART_Cmd>
C:/ch32/data/CH32V307EVT/EVT/EXAM/SRC/Debug/debug.c:143
#elif(DEBUG == DEBUG_UART3)
    USART_Init(USART3, &USART_InitStructure);
    USART_Cmd(USART3, ENABLE);

#endif
}
    2028:	6105                	addi	sp,sp,32
    202a:	a2afe06f          	j	254 <__riscv_restore_0>

0000202e <_write>:
_write():
C:/ch32/data/CH32V307EVT/EVT/EXAM/SRC/Debug/debug.c:156
 *          size - Data length
 *
 * @return  size: Data length
 */
__attribute__((used)) int _write(int fd, char *buf, int size)
{
    202e:	9e8fe2ef          	jal	t0,216 <__riscv_save_4>
C:/ch32/data/CH32V307EVT/EVT/EXAM/SRC/Debug/debug.c:162
    int i;

    for(i = 0; i < size; i++)
    {
#if(DEBUG == DEBUG_UART1)
        while(USART_GetFlagStatus(USART1, USART_FLAG_TC) == RESET);
    2032:	400144b7          	lui	s1,0x40014
C:/ch32/data/CH32V307EVT/EVT/EXAM/SRC/Debug/debug.c:156
{
    2036:	89ae                	mv	s3,a1
    2038:	8932                	mv	s2,a2
C:/ch32/data/CH32V307EVT/EVT/EXAM/SRC/Debug/debug.c:159
    for(i = 0; i < size; i++)
    203a:	4401                	li	s0,0
C:/ch32/data/CH32V307EVT/EVT/EXAM/SRC/Debug/debug.c:162
        while(USART_GetFlagStatus(USART1, USART_FLAG_TC) == RESET);
    203c:	80048493          	addi	s1,s1,-2048 # 40013800 <_eusrstack+0x20003800>
C:/ch32/data/CH32V307EVT/EVT/EXAM/SRC/Debug/debug.c:159 (discriminator 1)
    for(i = 0; i < size; i++)
    2040:	01244563          	blt	s0,s2,204a <_write+0x1c>
C:/ch32/data/CH32V307EVT/EVT/EXAM/SRC/Debug/debug.c:174
        USART_SendData(USART3, *buf++);
#endif
    }

    return size;
}
    2044:	854a                	mv	a0,s2
    2046:	a04fe06f          	j	24a <__riscv_restore_4>
C:/ch32/data/CH32V307EVT/EVT/EXAM/SRC/Debug/debug.c:162 (discriminator 1)
        while(USART_GetFlagStatus(USART1, USART_FLAG_TC) == RESET);
    204a:	04000593          	li	a1,64
    204e:	8526                	mv	a0,s1
    2050:	a26ff0ef          	jal	ra,1276 <USART_GetFlagStatus>
    2054:	d97d                	beqz	a0,204a <_write+0x1c>
C:/ch32/data/CH32V307EVT/EVT/EXAM/SRC/Debug/debug.c:163 (discriminator 2)
        USART_SendData(USART1, *buf++);
    2056:	008987b3          	add	a5,s3,s0
    205a:	00078583          	lb	a1,0(a5) # 80000 <_data_lma+0x743ac>
    205e:	8526                	mv	a0,s1
C:/ch32/data/CH32V307EVT/EVT/EXAM/SRC/Debug/debug.c:159 (discriminator 2)
    for(i = 0; i < size; i++)
    2060:	0405                	addi	s0,s0,1
C:/ch32/data/CH32V307EVT/EVT/EXAM/SRC/Debug/debug.c:163 (discriminator 2)
        USART_SendData(USART1, *buf++);
    2062:	05c2                	slli	a1,a1,0x10
    2064:	81c1                	srli	a1,a1,0x10
    2066:	a08ff0ef          	jal	ra,126e <USART_SendData>
    206a:	bfd9                	j	2040 <_write+0x12>

0000206c <__get_MEPC>:
__get_MEPC():
C:/ch32/data/CH32V307EVT/EVT/EXAM/SRC/Core/core_riscv.c:248
 */
uint32_t __get_MEPC(void)
{
  uint32_t result;

  __ASM volatile ( "csrr %0," "mepc" : "=r" (result) );
    206c:	34102573          	csrr	a0,mepc
C:/ch32/data/CH32V307EVT/EVT/EXAM/SRC/Core/core_riscv.c:250
  return (result);
}
    2070:	8082                	ret

00002072 <__get_MCAUSE>:
__get_MCAUSE():
C:/ch32/data/CH32V307EVT/EVT/EXAM/SRC/Core/core_riscv.c:275
 */
uint32_t __get_MCAUSE(void)
{
  uint32_t result;

  __ASM volatile ( "csrr %0," "mcause" : "=r" (result) );
    2072:	34202573          	csrr	a0,mcause
C:/ch32/data/CH32V307EVT/EVT/EXAM/SRC/Core/core_riscv.c:277
  return (result);
}
    2076:	8082                	ret

00002078 <__get_MTVAL>:
__get_MTVAL():
C:/ch32/data/CH32V307EVT/EVT/EXAM/SRC/Core/core_riscv.c:302
 */
uint32_t __get_MTVAL(void)
{
  uint32_t result;

  __ASM volatile ( "csrr %0," "mtval" : "=r" (result) );
    2078:	34302573          	csrr	a0,mtval
C:/ch32/data/CH32V307EVT/EVT/EXAM/SRC/Core/core_riscv.c:304
  return (result);
}
    207c:	8082                	ret

0000207e <WCHNET_PeriodicHandle>:
WCHNET_PeriodicHandle():
    207e:	9b2fe2ef          	jal	t0,230 <__riscv_save_0>
    2082:	86c1a783          	lw	a5,-1940(gp) # 2000008c <LocalTime>
    2086:	1141                	addi	sp,sp,-16
    2088:	c63e                	sw	a5,12(sp)
    208a:	0ea010ef          	jal	ra,3174 <WCHNET_GetPHYStatus>
    208e:	8911                	andi	a0,a0,4
    2090:	12050163          	beqz	a0,21b2 <WCHNET_PeriodicHandle+0x134>
    2094:	8a818793          	addi	a5,gp,-1880 # 200000c8 <TCPTimer>
    2098:	4398                	lw	a4,0(a5)
    209a:	46b2                	lw	a3,12(sp)
    209c:	8e99                	sub	a3,a3,a4
    209e:	20006737          	lui	a4,0x20006
    20a2:	22872703          	lw	a4,552(a4) # 20006228 <NetInf+0x1c>
    20a6:	8305                	srli	a4,a4,0x1
    20a8:	00d77663          	bgeu	a4,a3,20b4 <WCHNET_PeriodicHandle+0x36>
    20ac:	4732                	lw	a4,12(sp)
    20ae:	c398                	sw	a4,0(a5)
    20b0:	23f030ef          	jal	ra,5aee <tcp_tmr>
    20b4:	561030ef          	jal	ra,5e14 <RemoveTimeWaiTCP>
    20b8:	8a418493          	addi	s1,gp,-1884 # 200000c4 <IPFragTimer>
    20bc:	4098                	lw	a4,0(s1)
    20be:	47b2                	lw	a5,12(sp)
    20c0:	8f99                	sub	a5,a5,a4
    20c2:	3e700713          	li	a4,999
    20c6:	00f77663          	bgeu	a4,a5,20d2 <WCHNET_PeriodicHandle+0x54>
    20ca:	7f7010ef          	jal	ra,40c0 <ip_reass_tmr>
    20ce:	47b2                	lw	a5,12(sp)
    20d0:	c09c                	sw	a5,0(s1)
    20d2:	89018793          	addi	a5,gp,-1904 # 200000b0 <ARPTimer>
    20d6:	4398                	lw	a4,0(a5)
    20d8:	46b2                	lw	a3,12(sp)
    20da:	8e99                	sub	a3,a3,a4
    20dc:	6705                	lui	a4,0x1
    20de:	38770713          	addi	a4,a4,903 # 1387 <WCHNET_LinkProcess+0x55>
    20e2:	00d77663          	bgeu	a4,a3,20ee <WCHNET_PeriodicHandle+0x70>
    20e6:	4732                	lw	a4,12(sp)
    20e8:	c398                	sw	a4,0(a5)
    20ea:	3b4010ef          	jal	ra,349e <etharp_tmr>
    20ee:	200067b7          	lui	a5,0x20006
    20f2:	1ec78793          	addi	a5,a5,492 # 200061ec <DNSInf>
    20f6:	47d8                	lw	a4,12(a5)
    20f8:	cf11                	beqz	a4,2114 <WCHNET_PeriodicHandle+0x96>
    20fa:	8a018713          	addi	a4,gp,-1888 # 200000c0 <DNSTimer>
    20fe:	4310                	lw	a2,0(a4)
    2100:	46b2                	lw	a3,12(sp)
    2102:	8e91                	sub	a3,a3,a2
    2104:	3e700613          	li	a2,999
    2108:	00d67663          	bgeu	a2,a3,2114 <WCHNET_PeriodicHandle+0x96>
    210c:	46b2                	lw	a3,12(sp)
    210e:	43dc                	lw	a5,4(a5)
    2110:	c314                	sw	a3,0(a4)
    2112:	9782                	jalr	a5
    2114:	200064b7          	lui	s1,0x20006
    2118:	1944a783          	lw	a5,404(s1) # 20006194 <DHCPCtrl>
    211c:	c3b1                	beqz	a5,2160 <WCHNET_PeriodicHandle+0xe2>
    211e:	89c18793          	addi	a5,gp,-1892 # 200000bc <DHCPfineTimer>
    2122:	4394                	lw	a3,0(a5)
    2124:	4732                	lw	a4,12(sp)
    2126:	8f15                	sub	a4,a4,a3
    2128:	7cf00693          	li	a3,1999
    212c:	00e6f963          	bgeu	a3,a4,213e <WCHNET_PeriodicHandle+0xc0>
    2130:	4732                	lw	a4,12(sp)
    2132:	c398                	sw	a4,0(a5)
    2134:	19448793          	addi	a5,s1,404
    2138:	4b9c                	lw	a5,16(a5)
    213a:	c391                	beqz	a5,213e <WCHNET_PeriodicHandle+0xc0>
    213c:	9782                	jalr	a5
    213e:	89818793          	addi	a5,gp,-1896 # 200000b8 <DHCPcoarseTimer>
    2142:	4398                	lw	a4,0(a5)
    2144:	46b2                	lw	a3,12(sp)
    2146:	8e99                	sub	a3,a3,a4
    2148:	673d                	lui	a4,0xf
    214a:	a5f70713          	addi	a4,a4,-1441 # ea5f <_data_lma+0x2e0b>
    214e:	00d77963          	bgeu	a4,a3,2160 <WCHNET_PeriodicHandle+0xe2>
    2152:	4732                	lw	a4,12(sp)
    2154:	19448493          	addi	s1,s1,404
    2158:	c398                	sw	a4,0(a5)
    215a:	48dc                	lw	a5,20(s1)
    215c:	c391                	beqz	a5,2160 <WCHNET_PeriodicHandle+0xe2>
    215e:	9782                	jalr	a5
    2160:	4532                	lw	a0,12(sp)
    2162:	89418493          	addi	s1,gp,-1900 # 200000b4 <ArpCheckTime>
    2166:	2c9d                	jal	23dc <IPCheckTmr>
    2168:	409c                	lw	a5,0(s1)
    216a:	4732                	lw	a4,12(sp)
    216c:	8f1d                	sub	a4,a4,a5
    216e:	67bd                	lui	a5,0xf
    2170:	a5f78793          	addi	a5,a5,-1441 # ea5f <_data_lma+0x2e0b>
    2174:	00e7f563          	bgeu	a5,a4,217e <WCHNET_PeriodicHandle+0x100>
    2178:	2435                	jal	23a4 <SelIPARPSend>
    217a:	47b2                	lw	a5,12(sp)
    217c:	c09c                	sw	a5,0(s1)
    217e:	8b51c703          	lbu	a4,-1867(gp) # 200000d5 <phydata>
    2182:	84be                	mv	s1,a5
    2184:	0ff77713          	andi	a4,a4,255
    2188:	c70d                	beqz	a4,21b2 <WCHNET_PeriodicHandle+0x134>
    218a:	8b51c703          	lbu	a4,-1867(gp) # 200000d5 <phydata>
    218e:	0c077713          	andi	a4,a4,192
    2192:	e31d                	bnez	a4,21b8 <WCHNET_PeriodicHandle+0x13a>
    2194:	200067b7          	lui	a5,0x20006
    2198:	26c7a783          	lw	a5,620(a5) # 2000626c <WCHCfg+0x1c>
    219c:	c399                	beqz	a5,21a2 <WCHNET_PeriodicHandle+0x124>
    219e:	4505                	li	a0,1
    21a0:	9782                	jalr	a5
    21a2:	86c1a703          	lw	a4,-1940(gp) # 2000008c <LocalTime>
    21a6:	8ae1a823          	sw	a4,-1872(gp) # 200000d0 <phydatatime>
    21aa:	04000793          	li	a5,64
    21ae:	8af18aa3          	sb	a5,-1867(gp) # 200000d5 <phydata>
    21b2:	0141                	addi	sp,sp,16
    21b4:	8a0fe06f          	j	254 <__riscv_restore_0>
    21b8:	8b51c703          	lbu	a4,-1867(gp) # 200000d5 <phydata>
    21bc:	04077713          	andi	a4,a4,64
    21c0:	cb15                	beqz	a4,21f4 <WCHNET_PeriodicHandle+0x176>
    21c2:	8b01a683          	lw	a3,-1872(gp) # 200000d0 <phydatatime>
    21c6:	86c1a703          	lw	a4,-1940(gp) # 2000008c <LocalTime>
    21ca:	8b018913          	addi	s2,gp,-1872 # 200000d0 <phydatatime>
    21ce:	8f15                	sub	a4,a4,a3
    21d0:	06400693          	li	a3,100
    21d4:	fce6ffe3          	bgeu	a3,a4,21b2 <WCHNET_PeriodicHandle+0x134>
    21d8:	200067b7          	lui	a5,0x20006
    21dc:	26c7a783          	lw	a5,620(a5) # 2000626c <WCHCfg+0x1c>
    21e0:	c399                	beqz	a5,21e6 <WCHNET_PeriodicHandle+0x168>
    21e2:	4501                	li	a0,0
    21e4:	9782                	jalr	a5
    21e6:	86c1a783          	lw	a5,-1940(gp) # 2000008c <LocalTime>
    21ea:	00f92023          	sw	a5,0(s2)
    21ee:	f8000793          	li	a5,-128
    21f2:	bf75                	j	21ae <WCHNET_PeriodicHandle+0x130>
    21f4:	8b51c703          	lbu	a4,-1867(gp) # 200000d5 <phydata>
    21f8:	0762                	slli	a4,a4,0x18
    21fa:	8761                	srai	a4,a4,0x18
    21fc:	fa075be3          	bgez	a4,21b2 <WCHNET_PeriodicHandle+0x134>
    2200:	8b01a683          	lw	a3,-1872(gp) # 200000d0 <phydatatime>
    2204:	86c1a703          	lw	a4,-1940(gp) # 2000008c <LocalTime>
    2208:	8f15                	sub	a4,a4,a3
    220a:	06400693          	li	a3,100
    220e:	fae6f2e3          	bgeu	a3,a4,21b2 <WCHNET_PeriodicHandle+0x134>
    2212:	8a018aa3          	sb	zero,-1867(gp) # 200000d5 <phydata>
    2216:	bf71                	j	21b2 <WCHNET_PeriodicHandle+0x134>

00002218 <WCHNET_NetInput>:
WCHNET_NetInput():
    2218:	818fe2ef          	jal	t0,230 <__riscv_save_0>
    221c:	20006537          	lui	a0,0x20006
    2220:	27c50513          	addi	a0,a0,636 # 2000627c <WCHNetIf>
    2224:	0ab010ef          	jal	ra,3ace <ethernetif_input>
    2228:	82cfe06f          	j	254 <__riscv_restore_0>

0000222c <WCHNET_PhyStatus>:
WCHNET_PhyStatus():
    222c:	804fe2ef          	jal	t0,230 <__riscv_save_0>
    2230:	200067b7          	lui	a5,0x20006
    2234:	20c78793          	addi	a5,a5,524 # 2000620c <NetInf>
    2238:	57d8                	lw	a4,44(a5)
    223a:	20006437          	lui	s0,0x20006
    223e:	d388                	sw	a0,32(a5)
    2240:	00476713          	ori	a4,a4,4
    2244:	d7d8                	sw	a4,44(a5)
    2246:	8911                	andi	a0,a0,4
    2248:	25040793          	addi	a5,s0,592 # 20006250 <WCHCfg>
    224c:	4f9c                	lw	a5,24(a5)
    224e:	25040413          	addi	s0,s0,592
    2252:	cd01                	beqz	a0,226a <WCHNET_PhyStatus+0x3e>
    2254:	c399                	beqz	a5,225a <WCHNET_PhyStatus+0x2e>
    2256:	4501                	li	a0,0
    2258:	9782                	jalr	a5
    225a:	4c5c                	lw	a5,28(s0)
    225c:	c399                	beqz	a5,2262 <WCHNET_PhyStatus+0x36>
    225e:	4501                	li	a0,0
    2260:	9782                	jalr	a5
    2262:	4505                	li	a0,1
    2264:	220d                	jal	2386 <IPCheckParaInit>
    2266:	feffd06f          	j	254 <__riscv_restore_0>
    226a:	c399                	beqz	a5,2270 <WCHNET_PhyStatus+0x44>
    226c:	4505                	li	a0,1
    226e:	9782                	jalr	a5
    2270:	4c5c                	lw	a5,28(s0)
    2272:	dbf5                	beqz	a5,2266 <WCHNET_PhyStatus+0x3a>
    2274:	4505                	li	a0,1
    2276:	9782                	jalr	a5
    2278:	b7fd                	j	2266 <WCHNET_PhyStatus+0x3a>

0000227a <WCHNET_Rx>:
WCHNET_Rx():
    227a:	8741a783          	lw	a5,-1932(gp) # 20000094 <pDMARxSet>
    227e:	00052023          	sw	zero,0(a0)
    2282:	cb85                	beqz	a5,22b2 <WCHNET_Rx+0x38>
    2284:	4398                	lw	a4,0(a5)
    2286:	00075863          	bgez	a4,2296 <WCHNET_Rx+0x1c>
    228a:	47dc                	lw	a5,12(a5)
    228c:	4398                	lw	a4,0(a5)
    228e:	02074263          	bltz	a4,22b2 <WCHNET_Rx+0x38>
    2292:	86f1aa23          	sw	a5,-1932(gp) # 20000094 <pDMARxSet>
    2296:	8741a783          	lw	a5,-1932(gp) # 20000094 <pDMARxSet>
    229a:	6591                	lui	a1,0x4
    229c:	4601                	li	a2,0
    229e:	15fd                	addi	a1,a1,-1
    22a0:	4835                	li	a6,13
    22a2:	800008b7          	lui	a7,0x80000
    22a6:	4398                	lw	a4,0(a5)
    22a8:	00075763          	bgez	a4,22b6 <WCHNET_Rx+0x3c>
    22ac:	c219                	beqz	a2,22b2 <WCHNET_Rx+0x38>
    22ae:	86f1aa23          	sw	a5,-1932(gp) # 20000094 <pDMARxSet>
    22b2:	4501                	li	a0,0
    22b4:	8082                	ret
    22b6:	4398                	lw	a4,0(a5)
    22b8:	01071313          	slli	t1,a4,0x10
    22bc:	02034863          	bltz	t1,22ec <WCHNET_Rx+0x72>
    22c0:	4398                	lw	a4,0(a5)
    22c2:	10077713          	andi	a4,a4,256
    22c6:	c31d                	beqz	a4,22ec <WCHNET_Rx+0x72>
    22c8:	4398                	lw	a4,0(a5)
    22ca:	20077713          	andi	a4,a4,512
    22ce:	cf19                	beqz	a4,22ec <WCHNET_Rx+0x72>
    22d0:	4398                	lw	a4,0(a5)
    22d2:	8341                	srli	a4,a4,0x10
    22d4:	8f6d                	and	a4,a4,a1
    22d6:	1771                	addi	a4,a4,-4
    22d8:	c118                	sw	a4,0(a0)
    22da:	00e87963          	bgeu	a6,a4,22ec <WCHNET_Rx+0x72>
    22de:	c219                	beqz	a2,22e4 <WCHNET_Rx+0x6a>
    22e0:	86f1aa23          	sw	a5,-1932(gp) # 20000094 <pDMARxSet>
    22e4:	479c                	lw	a5,8(a5)
    22e6:	c15c                	sw	a5,4(a0)
    22e8:	4505                	li	a0,1
    22ea:	8082                	ret
    22ec:	0117a023          	sw	a7,0(a5)
    22f0:	4605                	li	a2,1
    22f2:	47dc                	lw	a5,12(a5)
    22f4:	bf4d                	j	22a6 <WCHNET_Rx+0x2c>

000022f6 <setRxBuffAddr>:
setRxBuffAddr():
    22f6:	8741a703          	lw	a4,-1932(gp) # 20000094 <pDMARxSet>
    22fa:	800006b7          	lui	a3,0x80000
    22fe:	c314                	sw	a3,0(a4)
    2300:	4758                	lw	a4,12(a4)
    2302:	86e1aa23          	sw	a4,-1932(gp) # 20000094 <pDMARxSet>
    2306:	8082                	ret

00002308 <WCHNET_Tx>:
WCHNET_Tx():
    2308:	f29fd2ef          	jal	t0,230 <__riscv_save_0>
    230c:	8b51c783          	lbu	a5,-1867(gp) # 200000d5 <phydata>
    2310:	0ff7f793          	andi	a5,a5,255
    2314:	e781                	bnez	a5,231c <WCHNET_Tx+0x14>
    2316:	4785                	li	a5,1
    2318:	8af18aa3          	sb	a5,-1867(gp) # 200000d5 <phydata>
    231c:	86c1a703          	lw	a4,-1940(gp) # 2000008c <LocalTime>
    2320:	8ac18793          	addi	a5,gp,-1876 # 200000cc <TxTimer>
    2324:	cb09                	beqz	a4,2336 <WCHNET_Tx+0x2e>
    2326:	c398                	sw	a4,0(a5)
    2328:	200067b7          	lui	a5,0x20006
    232c:	2707a783          	lw	a5,624(a5) # 20006270 <WCHCfg+0x20>
    2330:	9782                	jalr	a5
    2332:	f23fd06f          	j	254 <__riscv_restore_0>
    2336:	4705                	li	a4,1
    2338:	b7fd                	j	2326 <WCHNET_Tx+0x1e>

0000233a <getTxBuffAddr>:
getTxBuffAddr():
    233a:	200067b7          	lui	a5,0x20006
    233e:	2707a783          	lw	a5,624(a5) # 20006270 <WCHCfg+0x20>
    2342:	4501                	li	a0,0
    2344:	cf85                	beqz	a5,237c <getTxBuffAddr+0x42>
    2346:	8681a703          	lw	a4,-1944(gp) # 20000088 <DMATxDescToSet>
    234a:	cb0d                	beqz	a4,237c <getTxBuffAddr+0x42>
    234c:	4314                	lw	a3,0(a4)
    234e:	4708                	lw	a0,8(a4)
    2350:	8ac18793          	addi	a5,gp,-1876 # 200000cc <TxTimer>
    2354:	0206d263          	bgez	a3,2378 <getTxBuffAddr+0x3e>
    2358:	438c                	lw	a1,0(a5)
    235a:	66a1                	lui	a3,0x8
    235c:	0689                	addi	a3,a3,2
    235e:	06300893          	li	a7,99
    2362:	86c1a603          	lw	a2,-1940(gp) # 2000008c <LocalTime>
    2366:	8e0d                	sub	a2,a2,a1
    2368:	00c8e463          	bltu	a7,a2,2370 <getTxBuffAddr+0x36>
    236c:	16fd                	addi	a3,a3,-1
    236e:	ea81                	bnez	a3,237e <getTxBuffAddr+0x44>
    2370:	4314                	lw	a3,0(a4)
    2372:	0686                	slli	a3,a3,0x1
    2374:	8285                	srli	a3,a3,0x1
    2376:	c314                	sw	a3,0(a4)
    2378:	0007a023          	sw	zero,0(a5)
    237c:	8082                	ret
    237e:	4310                	lw	a2,0(a4)
    2380:	fe0641e3          	bltz	a2,2362 <getTxBuffAddr+0x28>
    2384:	bfd5                	j	2378 <getTxBuffAddr+0x3e>

00002386 <IPCheckParaInit>:
IPCheckParaInit():
    2386:	86c1a703          	lw	a4,-1940(gp) # 2000008c <LocalTime>
    238a:	200067b7          	lui	a5,0x20006
    238e:	18878793          	addi	a5,a5,392 # 20006188 <SelARP>
    2392:	a388                	sb	a0,0(a5)
    2394:	00079123          	sh	zero,2(a5)
    2398:	00079223          	sh	zero,4(a5)
    239c:	c798                	sw	a4,8(a5)
    239e:	000780a3          	sb	zero,1(a5)
    23a2:	8082                	ret

000023a4 <SelIPARPSend>:
SelIPARPSend():
    23a4:	e8dfd2ef          	jal	t0,230 <__riscv_save_0>
    23a8:	200064b7          	lui	s1,0x20006
    23ac:	27c48413          	addi	s0,s1,636 # 2000627c <WCHNetIf>
    23b0:	405c                	lw	a5,4(s0)
    23b2:	1141                	addi	sp,sp,-16
    23b4:	006c                	addi	a1,sp,12
    23b6:	27c48513          	addi	a0,s1,636
    23ba:	c63e                	sw	a5,12(sp)
    23bc:	00042223          	sw	zero,4(s0)
    23c0:	2ee010ef          	jal	ra,36ae <etharp_request>
    23c4:	47b2                	lw	a5,12(sp)
    23c6:	006c                	addi	a1,sp,12
    23c8:	27c48513          	addi	a0,s1,636
    23cc:	c05c                	sw	a5,4(s0)
    23ce:	445c                	lw	a5,12(s0)
    23d0:	c63e                	sw	a5,12(sp)
    23d2:	2dc010ef          	jal	ra,36ae <etharp_request>
    23d6:	0141                	addi	sp,sp,16
    23d8:	e7dfd06f          	j	254 <__riscv_restore_0>

000023dc <IPCheckTmr>:
IPCheckTmr():
    23dc:	200067b7          	lui	a5,0x20006
    23e0:	18878793          	addi	a5,a5,392 # 20006188 <SelARP>
    23e4:	2398                	lbu	a4,0(a5)
    23e6:	e319                	bnez	a4,23ec <IPCheckTmr+0x10>
    23e8:	c788                	sw	a0,8(a5)
    23ea:	8082                	ret
    23ec:	4798                	lw	a4,8(a5)
    23ee:	3e700693          	li	a3,999
    23f2:	40e50733          	sub	a4,a0,a4
    23f6:	02e6f163          	bgeu	a3,a4,2418 <IPCheckTmr+0x3c>
    23fa:	e37fd2ef          	jal	t0,230 <__riscv_save_0>
    23fe:	23ba                	lhu	a4,2(a5)
    2400:	c788                	sw	a0,8(a5)
    2402:	4691                	li	a3,4
    2404:	00e6f663          	bgeu	a3,a4,2410 <IPCheckTmr+0x34>
    2408:	4501                	li	a0,0
    240a:	3fb5                	jal	2386 <IPCheckParaInit>
    240c:	e49fd06f          	j	254 <__riscv_restore_0>
    2410:	0705                	addi	a4,a4,1
    2412:	a3ba                	sh	a4,2(a5)
    2414:	3f41                	jal	23a4 <SelIPARPSend>
    2416:	bfdd                	j	240c <IPCheckTmr+0x30>
    2418:	8082                	ret

0000241a <IPConflictHandle>:
IPConflictHandle():
    241a:	e17fd2ef          	jal	t0,230 <__riscv_save_0>
    241e:	842a                	mv	s0,a0
    2420:	4501                	li	a0,0
    2422:	f65ff0ef          	jal	ra,2386 <IPCheckParaInit>
    2426:	200067b7          	lui	a5,0x20006
    242a:	18878793          	addi	a5,a5,392 # 20006188 <SelARP>
    242e:	c811                	beqz	s0,2442 <IPConflictHandle+0x28>
    2430:	4705                	li	a4,1
    2432:	b398                	sb	a4,1(a5)
    2434:	200067b7          	lui	a5,0x20006
    2438:	4709                	li	a4,2
    243a:	22e7ac23          	sw	a4,568(a5) # 20006238 <NetInf+0x2c>
    243e:	e17fd06f          	j	254 <__riscv_restore_0>
    2442:	000780a3          	sb	zero,1(a5)
    2446:	bfe5                	j	243e <IPConflictHandle+0x24>

00002448 <NET_TCPError>:
NET_TCPError():
    2448:	8082                	ret

0000244a <LwipTCPSendCallBack>:
LwipTCPSendCallBack():
    244a:	03852803          	lw	a6,56(a0)
    244e:	02080b63          	beqz	a6,2484 <LwipTCPSendCallBack+0x3a>
    2452:	ddffd2ef          	jal	t0,230 <__riscv_save_0>
    2456:	5dfc                	lw	a5,124(a1)
    2458:	4701                	li	a4,0
    245a:	c791                	beqz	a5,2466 <LwipTCPSendCallBack+0x1c>
    245c:	0705                	addi	a4,a4,1
    245e:	0742                	slli	a4,a4,0x10
    2460:	8341                	srli	a4,a4,0x10
    2462:	439c                	lw	a5,0(a5)
    2464:	bfdd                	j	245a <LwipTCPSendCallBack+0x10>
    2466:	0805a783          	lw	a5,128(a1) # 4080 <ip_addr_isbroadcast+0xa>
    246a:	c791                	beqz	a5,2476 <LwipTCPSendCallBack+0x2c>
    246c:	0705                	addi	a4,a4,1
    246e:	0742                	slli	a4,a4,0x10
    2470:	8341                	srli	a4,a4,0x10
    2472:	439c                	lw	a5,0(a5)
    2474:	bfdd                	j	246a <LwipTCPSendCallBack+0x20>
    2476:	4681                	li	a3,0
    2478:	4601                	li	a2,0
    247a:	4581                	li	a1,0
    247c:	9802                	jalr	a6
    247e:	4501                	li	a0,0
    2480:	dd5fd06f          	j	254 <__riscv_restore_0>
    2484:	4501                	li	a0,0
    2486:	8082                	ret

00002488 <LwipTCPPollCallBack>:
LwipTCPPollCallBack():
    2488:	4501                	li	a0,0
    248a:	8082                	ret

0000248c <SocketIPRAWReceive>:
SocketIPRAWReceive():
    248c:	d7dfd2ef          	jal	t0,208 <__riscv_save_10>
    2490:	425c                	lw	a5,4(a2)
    2492:	00852a03          	lw	s4,8(a0)
    2496:	00c52903          	lw	s2,12(a0)
    249a:	4900                	lw	s0,16(a0)
    249c:	84aa                	mv	s1,a0
    249e:	2388                	lbu	a0,0(a5)
    24a0:	339c                	lbu	a5,1(a5)
    24a2:	89b2                	mv	s3,a2
    24a4:	07a2                	slli	a5,a5,0x8
    24a6:	8d5d                	or	a0,a0,a5
    24a8:	71a010ef          	jal	ra,3bc2 <ntohs>
    24ac:	00655593          	srli	a1,a0,0x6
    24b0:	03c5f593          	andi	a1,a1,60
    24b4:	40b005b3          	neg	a1,a1
    24b8:	854e                	mv	a0,s3
    24ba:	269020ef          	jal	ra,4f22 <pbuf_header>
    24be:	e549                	bnez	a0,2548 <SocketIPRAWReceive+0xbc>
    24c0:	44dc                	lw	a5,12(s1)
    24c2:	4c98                	lw	a4,24(s1)
    24c4:	0089db03          	lhu	s6,8(s3)
    24c8:	8f99                	sub	a5,a5,a4
    24ca:	0167f863          	bgeu	a5,s6,24da <SocketIPRAWReceive+0x4e>
    24ce:	854e                	mv	a0,s3
    24d0:	2c1020ef          	jal	ra,4f90 <pbuf_free>
    24d4:	4505                	li	a0,1
    24d6:	d6bfd06f          	j	240 <__riscv_restore_10>
    24da:	9a4a                	add	s4,s4,s2
    24dc:	894e                	mv	s2,s3
    24de:	00a95603          	lhu	a2,10(s2)
    24e2:	408a0ab3          	sub	s5,s4,s0
    24e6:	00492b83          	lw	s7,4(s2)
    24ea:	04caf463          	bgeu	s5,a2,2532 <SocketIPRAWReceive+0xa6>
    24ee:	8656                	mv	a2,s5
    24f0:	85de                	mv	a1,s7
    24f2:	8522                	mv	a0,s0
    24f4:	16f060ef          	jal	ra,8e62 <memcpy>
    24f8:	00a95783          	lhu	a5,10(s2)
    24fc:	4498                	lw	a4,8(s1)
    24fe:	41440433          	sub	s0,s0,s4
    2502:	943e                	add	s0,s0,a5
    2504:	8622                	mv	a2,s0
    2506:	015b85b3          	add	a1,s7,s5
    250a:	853a                	mv	a0,a4
    250c:	157060ef          	jal	ra,8e62 <memcpy>
    2510:	942a                	add	s0,s0,a0
    2512:	00092903          	lw	s2,0(s2)
    2516:	fc0914e3          	bnez	s2,24de <SocketIPRAWReceive+0x52>
    251a:	854e                	mv	a0,s3
    251c:	275020ef          	jal	ra,4f90 <pbuf_free>
    2520:	4c9c                	lw	a5,24(s1)
    2522:	c880                	sw	s0,16(s1)
    2524:	97da                	add	a5,a5,s6
    2526:	cc9c                	sw	a5,24(s1)
    2528:	409c                	lw	a5,0(s1)
    252a:	0047e793          	ori	a5,a5,4
    252e:	c09c                	sw	a5,0(s1)
    2530:	b755                	j	24d4 <SocketIPRAWReceive+0x48>
    2532:	8522                	mv	a0,s0
    2534:	85de                	mv	a1,s7
    2536:	12d060ef          	jal	ra,8e62 <memcpy>
    253a:	00a95783          	lhu	a5,10(s2)
    253e:	943e                	add	s0,s0,a5
    2540:	fd5799e3          	bne	a5,s5,2512 <SocketIPRAWReceive+0x86>
    2544:	4480                	lw	s0,8(s1)
    2546:	b7f1                	j	2512 <SocketIPRAWReceive+0x86>
    2548:	4501                	li	a0,0
    254a:	b771                	j	24d6 <SocketIPRAWReceive+0x4a>

0000254c <SocketUdpReceive>:
SocketUdpReceive():
    254c:	ca71                	beqz	a2,2620 <SocketUdpReceive+0xd4>
    254e:	cbbfd2ef          	jal	t0,208 <__riscv_save_10>
    2552:	00c52b83          	lw	s7,12(a0)
    2556:	4d1c                	lw	a5,24(a0)
    2558:	00865b03          	lhu	s6,8(a2)
    255c:	8aba                	mv	s5,a4
    255e:	40fb87b3          	sub	a5,s7,a5
    2562:	8a36                	mv	s4,a3
    2564:	8932                	mv	s2,a2
    2566:	842a                	mv	s0,a0
    2568:	0167f763          	bgeu	a5,s6,2576 <SocketUdpReceive+0x2a>
    256c:	8532                	mv	a0,a2
    256e:	223020ef          	jal	ra,4f90 <pbuf_free>
    2572:	ccffd06f          	j	240 <__riscv_restore_10>
    2576:	451c                	lw	a5,8(a0)
    2578:	4904                	lw	s1,16(a0)
    257a:	89b2                	mv	s3,a2
    257c:	9bbe                	add	s7,s7,a5
    257e:	00a9d603          	lhu	a2,10(s3)
    2582:	409b8c33          	sub	s8,s7,s1
    2586:	0049ac83          	lw	s9,4(s3)
    258a:	06cc7763          	bgeu	s8,a2,25f8 <SocketUdpReceive+0xac>
    258e:	8662                	mv	a2,s8
    2590:	85e6                	mv	a1,s9
    2592:	8526                	mv	a0,s1
    2594:	0cf060ef          	jal	ra,8e62 <memcpy>
    2598:	00a9d783          	lhu	a5,10(s3)
    259c:	4418                	lw	a4,8(s0)
    259e:	417484b3          	sub	s1,s1,s7
    25a2:	94be                	add	s1,s1,a5
    25a4:	8626                	mv	a2,s1
    25a6:	018c85b3          	add	a1,s9,s8
    25aa:	853a                	mv	a0,a4
    25ac:	0b7060ef          	jal	ra,8e62 <memcpy>
    25b0:	94aa                	add	s1,s1,a0
    25b2:	0009a983          	lw	s3,0(s3)
    25b6:	fc0994e3          	bnez	s3,257e <SocketUdpReceive+0x32>
    25ba:	854a                	mv	a0,s2
    25bc:	1d5020ef          	jal	ra,4f90 <pbuf_free>
    25c0:	03842803          	lw	a6,56(s0)
    25c4:	04080563          	beqz	a6,260e <SocketUdpReceive+0xc2>
    25c8:	001a4583          	lbu	a1,1(s4)
    25cc:	000a4783          	lbu	a5,0(s4)
    25d0:	4814                	lw	a3,16(s0)
    25d2:	05a2                	slli	a1,a1,0x8
    25d4:	8ddd                	or	a1,a1,a5
    25d6:	002a4783          	lbu	a5,2(s4)
    25da:	875a                	mv	a4,s6
    25dc:	8656                	mv	a2,s5
    25de:	07c2                	slli	a5,a5,0x10
    25e0:	8fcd                	or	a5,a5,a1
    25e2:	003a4583          	lbu	a1,3(s4)
    25e6:	8522                	mv	a0,s0
    25e8:	05e2                	slli	a1,a1,0x18
    25ea:	8ddd                	or	a1,a1,a5
    25ec:	9802                	jalr	a6
    25ee:	441c                	lw	a5,8(s0)
    25f0:	00042c23          	sw	zero,24(s0)
    25f4:	c81c                	sw	a5,16(s0)
    25f6:	bfb5                	j	2572 <SocketUdpReceive+0x26>
    25f8:	8526                	mv	a0,s1
    25fa:	85e6                	mv	a1,s9
    25fc:	067060ef          	jal	ra,8e62 <memcpy>
    2600:	00a9d783          	lhu	a5,10(s3)
    2604:	94be                	add	s1,s1,a5
    2606:	fb8796e3          	bne	a5,s8,25b2 <SocketUdpReceive+0x66>
    260a:	4404                	lw	s1,8(s0)
    260c:	b75d                	j	25b2 <SocketUdpReceive+0x66>
    260e:	4c18                	lw	a4,24(s0)
    2610:	401c                	lw	a5,0(s0)
    2612:	c804                	sw	s1,16(s0)
    2614:	975a                	add	a4,a4,s6
    2616:	0047e793          	ori	a5,a5,4
    261a:	cc18                	sw	a4,24(s0)
    261c:	c01c                	sw	a5,0(s0)
    261e:	bf91                	j	2572 <SocketUdpReceive+0x26>
    2620:	8082                	ret

00002622 <WCHSocketTCPReceive>:
WCHSocketTCPReceive():
    2622:	491c                	lw	a5,16(a0)
    2624:	c7f1                	beqz	a5,26f0 <WCHSocketTCPReceive+0xce>
    2626:	be3fd2ef          	jal	t0,208 <__riscv_save_10>
    262a:	8a32                	mv	s4,a2
    262c:	84ae                	mv	s1,a1
    262e:	842a                	mv	s0,a0
    2630:	ca55                	beqz	a2,26e4 <WCHSocketTCPReceive+0xc2>
    2632:	00852a83          	lw	s5,8(a0)
    2636:	4558                	lw	a4,12(a0)
    2638:	00865b83          	lhu	s7,8(a2)
    263c:	8932                	mv	s2,a2
    263e:	9aba                	add	s5,s5,a4
    2640:	0ac2                	slli	s5,s5,0x10
    2642:	010ada93          	srli	s5,s5,0x10
    2646:	01079993          	slli	s3,a5,0x10
    264a:	0109d993          	srli	s3,s3,0x10
    264e:	413a8b33          	sub	s6,s5,s3
    2652:	00a95603          	lhu	a2,10(s2)
    2656:	0b42                	slli	s6,s6,0x10
    2658:	010b5b13          	srli	s6,s6,0x10
    265c:	00492c03          	lw	s8,4(s2)
    2660:	06cb7663          	bgeu	s6,a2,26cc <WCHSocketTCPReceive+0xaa>
    2664:	865a                	mv	a2,s6
    2666:	85e2                	mv	a1,s8
    2668:	853e                	mv	a0,a5
    266a:	7f8060ef          	jal	ra,8e62 <memcpy>
    266e:	00a95703          	lhu	a4,10(s2)
    2672:	441c                	lw	a5,8(s0)
    2674:	016c05b3          	add	a1,s8,s6
    2678:	41570733          	sub	a4,a4,s5
    267c:	99ba                	add	s3,s3,a4
    267e:	09c2                	slli	s3,s3,0x10
    2680:	0109d993          	srli	s3,s3,0x10
    2684:	853e                	mv	a0,a5
    2686:	864e                	mv	a2,s3
    2688:	7da060ef          	jal	ra,8e62 <memcpy>
    268c:	013507b3          	add	a5,a0,s3
    2690:	00092903          	lw	s2,0(s2)
    2694:	fa0919e3          	bnez	s2,2646 <WCHSocketTCPReceive+0x24>
    2698:	4c18                	lw	a4,24(s0)
    269a:	c81c                	sw	a5,16(s0)
    269c:	8552                	mv	a0,s4
    269e:	975e                	add	a4,a4,s7
    26a0:	cc18                	sw	a4,24(s0)
    26a2:	4018                	lw	a4,0(s0)
    26a4:	00476713          	ori	a4,a4,4
    26a8:	c018                	sw	a4,0(s0)
    26aa:	0e7020ef          	jal	ra,4f90 <pbuf_free>
    26ae:	38fe                	lhu	a5,54(s1)
    26b0:	4c18                	lw	a4,24(s0)
    26b2:	8526                	mv	a0,s1
    26b4:	41778bb3          	sub	s7,a5,s7
    26b8:	445c                	lw	a5,12(s0)
    26ba:	03749b23          	sh	s7,54(s1)
    26be:	8f99                	sub	a5,a5,a4
    26c0:	b4de                	sh	a5,44(s1)
    26c2:	677020ef          	jal	ra,5538 <tcp_update_rcv_ann_wnd>
    26c6:	4501                	li	a0,0
    26c8:	b79fd06f          	j	240 <__riscv_restore_10>
    26cc:	853e                	mv	a0,a5
    26ce:	85e2                	mv	a1,s8
    26d0:	792060ef          	jal	ra,8e62 <memcpy>
    26d4:	00a95703          	lhu	a4,10(s2)
    26d8:	00e507b3          	add	a5,a0,a4
    26dc:	fb671ae3          	bne	a4,s6,2690 <WCHSocketTCPReceive+0x6e>
    26e0:	441c                	lw	a5,8(s0)
    26e2:	b77d                	j	2690 <WCHSocketTCPReceive+0x6e>
    26e4:	4501                	li	a0,0
    26e6:	f2ed                	bnez	a3,26c8 <WCHSocketTCPReceive+0xa6>
    26e8:	852e                	mv	a0,a1
    26ea:	2c0030ef          	jal	ra,59aa <tcp_close>
    26ee:	bfe9                	j	26c8 <WCHSocketTCPReceive+0xa6>
    26f0:	557d                	li	a0,-1
    26f2:	8082                	ret

000026f4 <LwipTcpConnectedCallBack>:
LwipTcpConnectedCallBack():
    26f4:	b3dfd2ef          	jal	t0,230 <__riscv_save_0>
    26f8:	842e                	mv	s0,a1
    26fa:	000025b7          	lui	a1,0x2
    26fe:	84aa                	mv	s1,a0
    2700:	62258593          	addi	a1,a1,1570 # 2622 <WCHSocketTCPReceive>
    2704:	8522                	mv	a0,s0
    2706:	72b020ef          	jal	ra,5630 <tcp_recv>
    270a:	000025b7          	lui	a1,0x2
    270e:	8522                	mv	a0,s0
    2710:	44a58593          	addi	a1,a1,1098 # 244a <LwipTCPSendCallBack>
    2714:	723020ef          	jal	ra,5636 <tcp_sent>
    2718:	000025b7          	lui	a1,0x2
    271c:	8522                	mv	a0,s0
    271e:	4605                	li	a2,1
    2720:	48858593          	addi	a1,a1,1160 # 2488 <LwipTCPPollCallBack>
    2724:	71f020ef          	jal	ra,5642 <tcp_poll>
    2728:	209c                	lbu	a5,0(s1)
    272a:	4501                	li	a0,0
    272c:	0087e793          	ori	a5,a5,8
    2730:	c09c                	sw	a5,0(s1)
    2732:	b23fd06f          	j	254 <__riscv_restore_0>

00002736 <ErrorEncode>:
ErrorEncode():
    2736:	c919                	beqz	a0,274c <ErrorEncode+0x16>
    2738:	40a00533          	neg	a0,a0
    273c:	67b1                	lui	a5,0xc
    273e:	bec78793          	addi	a5,a5,-1044 # bbec <ErrTable>
    2742:	0ff57513          	andi	a0,a0,255
    2746:	953e                	add	a0,a0,a5
    2748:	2108                	lbu	a0,0(a0)
    274a:	8082                	ret
    274c:	4501                	li	a0,0
    274e:	8082                	ret

00002750 <WCHSocketInit>:
WCHSocketInit():
    2750:	ae1fd2ef          	jal	t0,230 <__riscv_save_0>
    2754:	03c00793          	li	a5,60
    2758:	02f587b3          	mul	a5,a1,a5
    275c:	20006437          	lui	s0,0x20006
    2760:	14c40713          	addi	a4,s0,332 # 2000614c <SocketInf>
    2764:	892a                	mv	s2,a0
    2766:	84ae                	mv	s1,a1
    2768:	03c00613          	li	a2,60
    276c:	4581                	li	a1,0
    276e:	14c40413          	addi	s0,s0,332
    2772:	97ba                	add	a5,a5,a4
    2774:	853e                	mv	a0,a5
    2776:	aebfd0ef          	jal	ra,260 <memset>
    277a:	00090763          	beqz	s2,2788 <WCHSocketInit+0x38>
    277e:	03c00613          	li	a2,60
    2782:	85ca                	mv	a1,s2
    2784:	6de060ef          	jal	ra,8e62 <memcpy>
    2788:	03c00593          	li	a1,60
    278c:	02b485b3          	mul	a1,s1,a1
    2790:	95a2                	add	a1,a1,s0
    2792:	459c                	lw	a5,8(a1)
    2794:	c99c                	sw	a5,16(a1)
    2796:	c9dc                	sw	a5,20(a1)
    2798:	abdfd06f          	j	254 <__riscv_restore_0>

0000279c <WCHNET_Init>:
WCHNET_Init():
    279c:	a7bfd2ef          	jal	t0,216 <__riscv_save_4>
    27a0:	8a2a                	mv	s4,a0
    27a2:	20006537          	lui	a0,0x20006
    27a6:	1141                	addi	sp,sp,-16
    27a8:	89ae                	mv	s3,a1
    27aa:	84b2                	mv	s1,a2
    27ac:	4581                	li	a1,0
    27ae:	4661                	li	a2,24
    27b0:	19450513          	addi	a0,a0,404 # 20006194 <DHCPCtrl>
    27b4:	c636                	sw	a3,12(sp)
    27b6:	aabfd0ef          	jal	ra,260 <memset>
    27ba:	46b2                	lw	a3,12(sp)
    27bc:	20006437          	lui	s0,0x20006
    27c0:	20c40913          	addi	s2,s0,524 # 2000620c <NetInf>
    27c4:	85b6                	mv	a1,a3
    27c6:	4619                	li	a2,6
    27c8:	00c90513          	addi	a0,s2,12
    27cc:	696060ef          	jal	ra,8e62 <memcpy>
    27d0:	4611                	li	a2,4
    27d2:	85d2                	mv	a1,s4
    27d4:	20c40513          	addi	a0,s0,524
    27d8:	68a060ef          	jal	ra,8e62 <memcpy>
    27dc:	4611                	li	a2,4
    27de:	85ce                	mv	a1,s3
    27e0:	00490513          	addi	a0,s2,4
    27e4:	67e060ef          	jal	ra,8e62 <memcpy>
    27e8:	20c40413          	addi	s0,s0,524
    27ec:	e0a1                	bnez	s1,282c <WCHNET_Init+0x90>
    27ee:	010007b7          	lui	a5,0x1000
    27f2:	17fd                	addi	a5,a5,-1
    27f4:	c41c                	sw	a5,8(s0)
    27f6:	4481                	li	s1,0
    27f8:	8b41c783          	lbu	a5,-1868(gp) # 200000d4 <SockNumber>
    27fc:	02f4cf63          	blt	s1,a5,283a <WCHNET_Init+0x9e>
    2800:	33e010ef          	jal	ra,3b3e <wch_ethernetif_init>
    2804:	4785                	li	a5,1
    2806:	d05c                	sw	a5,36(s0)
    2808:	6715                	lui	a4,0x5
    280a:	200067b7          	lui	a5,0x20006
    280e:	20078793          	addi	a5,a5,512 # 20006200 <KeepLiveCfg>
    2812:	e2070713          	addi	a4,a4,-480 # 4e20 <netif_set_ipaddr+0x4a>
    2816:	c398                	sw	a4,0(a5)
    2818:	6711                	lui	a4,0x4
    281a:	a9870713          	addi	a4,a4,-1384 # 3a98 <low_level_output+0x1c>
    281e:	c3d8                	sw	a4,4(a5)
    2820:	4725                	li	a4,9
    2822:	c798                	sw	a4,8(a5)
    2824:	4501                	li	a0,0
    2826:	0141                	addi	sp,sp,16
    2828:	a23fd06f          	j	24a <__riscv_restore_4>
    282c:	4611                	li	a2,4
    282e:	85a6                	mv	a1,s1
    2830:	00840513          	addi	a0,s0,8
    2834:	62e060ef          	jal	ra,8e62 <memcpy>
    2838:	bf7d                	j	27f6 <WCHNET_Init+0x5a>
    283a:	0ff4f593          	andi	a1,s1,255
    283e:	4501                	li	a0,0
    2840:	f11ff0ef          	jal	ra,2750 <WCHSocketInit>
    2844:	0485                	addi	s1,s1,1
    2846:	bf4d                	j	27f8 <WCHNET_Init+0x5c>

00002848 <WCHNET_ConfigKeepLive>:
WCHNET_ConfigKeepLive():
    2848:	4118                	lw	a4,0(a0)
    284a:	200067b7          	lui	a5,0x20006
    284e:	20078793          	addi	a5,a5,512 # 20006200 <KeepLiveCfg>
    2852:	c398                	sw	a4,0(a5)
    2854:	4158                	lw	a4,4(a0)
    2856:	c3d8                	sw	a4,4(a5)
    2858:	4518                	lw	a4,8(a0)
    285a:	c798                	sw	a4,8(a5)
    285c:	8082                	ret

0000285e <WCHNET_ConfigLIB>:
WCHNET_ConfigLIB():
    285e:	5518                	lw	a4,40(a0)
    2860:	123457b7          	lui	a5,0x12345
    2864:	67878793          	addi	a5,a5,1656 # 12345678 <_data_lma+0x12339a24>
    2868:	10f71863          	bne	a4,a5,2978 <WCHNET_ConfigLIB+0x11a>
    286c:	9abfd2ef          	jal	t0,216 <__riscv_save_4>
    2870:	511c                	lw	a5,32(a0)
    2872:	842a                	mv	s0,a0
    2874:	4525                	li	a0,9
    2876:	0e078963          	beqz	a5,2968 <WCHNET_ConfigLIB+0x10a>
    287a:	20006937          	lui	s2,0x20006
    287e:	04400613          	li	a2,68
    2882:	4581                	li	a1,0
    2884:	20c90513          	addi	a0,s2,524 # 2000620c <NetInf>
    2888:	9d9fd0ef          	jal	ra,260 <memset>
    288c:	200064b7          	lui	s1,0x20006
    2890:	02c00613          	li	a2,44
    2894:	4581                	li	a1,0
    2896:	25048513          	addi	a0,s1,592 # 20006250 <WCHCfg>
    289a:	9c7fd0ef          	jal	ra,260 <memset>
    289e:	02c00613          	li	a2,44
    28a2:	85a2                	mv	a1,s0
    28a4:	25048513          	addi	a0,s1,592
    28a8:	5ba060ef          	jal	ra,8e62 <memcpy>
    28ac:	25048993          	addi	s3,s1,592
    28b0:	0149a703          	lw	a4,20(s3)
    28b4:	864a                	mv	a2,s2
    28b6:	25048793          	addi	a5,s1,592
    28ba:	eb25                	bnez	a4,292a <WCHNET_ConfigLIB+0xcc>
    28bc:	66a5                	lui	a3,0x9
    28be:	0c06d703          	lhu	a4,192(a3) # 90c0 <MemNum>
    28c2:	0c068693          	addi	a3,a3,192
    28c6:	22ae                	lhu	a1,2(a3)
    28c8:	972e                	add	a4,a4,a1
    28ca:	22ce                	lhu	a1,4(a3)
    28cc:	22f6                	lhu	a3,6(a3)
    28ce:	972e                	add	a4,a4,a1
    28d0:	9736                	add	a4,a4,a3
    28d2:	01271693          	slli	a3,a4,0x12
    28d6:	0806db63          	bgez	a3,296c <WCHNET_ConfigLIB+0x10e>
    28da:	cbd8                	sw	a4,20(a5)
    28dc:	4bd8                	lw	a4,20(a5)
    28de:	00e75693          	srli	a3,a4,0xe
    28e2:	8afd                	andi	a3,a3,31
    28e4:	ea89                	bnez	a3,28f6 <WCHNET_ConfigLIB+0x98>
    28e6:	fff846b7          	lui	a3,0xfff84
    28ea:	16fd                	addi	a3,a3,-1
    28ec:	8f75                	and	a4,a4,a3
    28ee:	000506b7          	lui	a3,0x50
    28f2:	8f55                	or	a4,a4,a3
    28f4:	cbd8                	sw	a4,20(a5)
    28f6:	4bd8                	lw	a4,20(a5)
    28f8:	01375693          	srli	a3,a4,0x13
    28fc:	8afd                	andi	a3,a3,31
    28fe:	ea89                	bnez	a3,2910 <WCHNET_ConfigLIB+0xb2>
    2900:	fff846b7          	lui	a3,0xfff84
    2904:	16fd                	addi	a3,a3,-1
    2906:	8f75                	and	a4,a4,a3
    2908:	005006b7          	lui	a3,0x500
    290c:	8f55                	or	a4,a4,a3
    290e:	cbd8                	sw	a4,20(a5)
    2910:	4bd8                	lw	a4,20(a5)
    2912:	00671693          	slli	a3,a4,0x6
    2916:	0006ca63          	bltz	a3,292a <WCHNET_ConfigLIB+0xcc>
    291a:	fe0006b7          	lui	a3,0xfe000
    291e:	16fd                	addi	a3,a3,-1
    2920:	8f75                	and	a4,a4,a3
    2922:	140006b7          	lui	a3,0x14000
    2926:	8f55                	or	a4,a4,a3
    2928:	cbd8                	sw	a4,20(a5)
    292a:	53d8                	lw	a4,36(a5)
    292c:	e711                	bnez	a4,2938 <WCHNET_ConfigLIB+0xda>
    292e:	00002737          	lui	a4,0x2
    2932:	27a70713          	addi	a4,a4,634 # 227a <WCHNET_Rx>
    2936:	d3d8                	sw	a4,36(a5)
    2938:	4bd4                	lw	a3,20(a5)
    293a:	4501                	li	a0,0
    293c:	00e6d713          	srli	a4,a3,0xe
    2940:	8b7d                	andi	a4,a4,31
    2942:	8ad18a23          	sb	a3,-1868(gp) # 200000d4 <SockNumber>
    2946:	20c60793          	addi	a5,a2,524
    294a:	cf98                	sw	a4,24(a5)
    294c:	0136d713          	srli	a4,a3,0x13
    2950:	8b7d                	andi	a4,a4,31
    2952:	03200613          	li	a2,50
    2956:	02c70733          	mul	a4,a4,a2
    295a:	cfd8                	sw	a4,28(a5)
    295c:	00669713          	slli	a4,a3,0x6
    2960:	00075463          	bgez	a4,2968 <WCHNET_ConfigLIB+0x10a>
    2964:	4709                	li	a4,2
    2966:	c3b8                	sw	a4,64(a5)
    2968:	8e3fd06f          	j	24a <__riscv_restore_4>
    296c:	76f9                	lui	a3,0xffffe
    296e:	16fd                	addi	a3,a3,-1
    2970:	8f75                	and	a4,a4,a3
    2972:	6689                	lui	a3,0x2
    2974:	8f55                	or	a4,a4,a3
    2976:	b795                	j	28da <WCHNET_ConfigLIB+0x7c>
    2978:	0ff00513          	li	a0,255
    297c:	8082                	ret

0000297e <WCHNET_GetVer>:
WCHNET_GetVer():
    297e:	455d                	li	a0,23
    2980:	8082                	ret

00002982 <WCHFindCorrectTCBPcb>:
WCHFindCorrectTCBPcb():
    2982:	8b41c603          	lbu	a2,-1868(gp) # 200000d4 <SockNumber>
    2986:	200067b7          	lui	a5,0x20006
    298a:	14c78693          	addi	a3,a5,332 # 2000614c <SocketInf>
    298e:	4701                	li	a4,0
    2990:	14c78793          	addi	a5,a5,332
    2994:	00e61763          	bne	a2,a4,29a2 <WCHFindCorrectTCBPcb+0x20>
    2998:	4781                	li	a5,0
    299a:	02f71363          	bne	a4,a5,29c0 <WCHFindCorrectTCBPcb+0x3e>
    299e:	4501                	li	a0,0
    29a0:	8082                	ret
    29a2:	0307a803          	lw	a6,48(a5)
    29a6:	00a81763          	bne	a6,a0,29b4 <WCHFindCorrectTCBPcb+0x32>
    29aa:	c509                	beqz	a0,29b4 <WCHFindCorrectTCBPcb+0x32>
    29ac:	4505                	li	a0,1
    29ae:	d9ed                	beqz	a1,29a0 <WCHFindCorrectTCBPcb+0x1e>
    29b0:	a198                	sb	a4,0(a1)
    29b2:	8082                	ret
    29b4:	0705                	addi	a4,a4,1
    29b6:	0ff77713          	andi	a4,a4,255
    29ba:	03c78793          	addi	a5,a5,60
    29be:	bfd9                	j	2994 <WCHFindCorrectTCBPcb+0x12>
    29c0:	5ad0                	lw	a2,52(a3)
    29c2:	00a61963          	bne	a2,a0,29d4 <WCHFindCorrectTCBPcb+0x52>
    29c6:	c519                	beqz	a0,29d4 <WCHFindCorrectTCBPcb+0x52>
    29c8:	4505                	li	a0,1
    29ca:	d9f9                	beqz	a1,29a0 <WCHFindCorrectTCBPcb+0x1e>
    29cc:	f807e793          	ori	a5,a5,-128
    29d0:	a19c                	sb	a5,0(a1)
    29d2:	8082                	ret
    29d4:	0785                	addi	a5,a5,1
    29d6:	0ff7f793          	andi	a5,a5,255
    29da:	03c68693          	addi	a3,a3,60 # 203c <_write+0xe>
    29de:	bf75                	j	299a <WCHFindCorrectTCBPcb+0x18>

000029e0 <WCHNET_SocketCreat>:
WCHNET_SocketCreat():
    29e0:	837fd2ef          	jal	t0,216 <__riscv_save_4>
    29e4:	20006937          	lui	s2,0x20006
    29e8:	00050023          	sb	zero,0(a0)
    29ec:	8b41c703          	lbu	a4,-1868(gp) # 200000d4 <SockNumber>
    29f0:	1141                	addi	sp,sp,-16
    29f2:	14c90793          	addi	a5,s2,332 # 2000614c <SocketInf>
    29f6:	4481                	li	s1,0
    29f8:	14c90913          	addi	s2,s2,332
    29fc:	00971763          	bne	a4,s1,2a0a <WCHNET_SocketCreat+0x2a>
    2a00:	02000513          	li	a0,32
    2a04:	0141                	addi	sp,sp,16
    2a06:	845fd06f          	j	24a <__riscv_restore_4>
    2a0a:	03c78793          	addi	a5,a5,60
    2a0e:	fe47a683          	lw	a3,-28(a5)
    2a12:	18068163          	beqz	a3,2b94 <WCHNET_SocketCreat+0x1b4>
    2a16:	0485                	addi	s1,s1,1
    2a18:	0ff4f493          	andi	s1,s1,255
    2a1c:	b7c5                	j	29fc <WCHNET_SocketCreat+0x1c>
    2a1e:	200067b7          	lui	a5,0x20006
    2a22:	20c7a783          	lw	a5,524(a5) # 2000620c <NetInf>
    2a26:	006c                	addi	a1,sp,12
    2a28:	c63e                	sw	a5,12(sp)
    2a2a:	09d020ef          	jal	ra,52c6 <raw_bind>
    2a2e:	4611                	li	a2,4
    2a30:	02c40593          	addi	a1,s0,44
    2a34:	0068                	addi	a0,sp,12
    2a36:	42c060ef          	jal	ra,8e62 <memcpy>
    2a3a:	006c                	addi	a1,sp,12
    2a3c:	854e                	mv	a0,s3
    2a3e:	0a7020ef          	jal	ra,52e4 <raw_connect>
    2a42:	03c00613          	li	a2,60
    2a46:	02c48633          	mul	a2,s1,a2
    2a4a:	000025b7          	lui	a1,0x2
    2a4e:	48c58593          	addi	a1,a1,1164 # 248c <SocketIPRAWReceive>
    2a52:	854e                	mv	a0,s3
    2a54:	964a                	add	a2,a2,s2
    2a56:	0ad020ef          	jal	ra,5302 <raw_recv>
    2a5a:	4795                	li	a5,5
    2a5c:	20006537          	lui	a0,0x20006
    2a60:	006c                	addi	a1,sp,12
    2a62:	03342823          	sw	s3,48(s0)
    2a66:	d01c                	sw	a5,32(s0)
    2a68:	27c50513          	addi	a0,a0,636 # 2000627c <WCHNetIf>
    2a6c:	443000ef          	jal	ra,36ae <etharp_request>
    2a70:	85a6                	mv	a1,s1
    2a72:	8522                	mv	a0,s0
    2a74:	cddff0ef          	jal	ra,2750 <WCHSocketInit>
    2a78:	4501                	li	a0,0
    2a7a:	b769                	j	2a04 <WCHNET_SocketCreat+0x24>
    2a7c:	4709                	li	a4,2
    2a7e:	0ae79063          	bne	a5,a4,2b1e <WCHNET_SocketCreat+0x13e>
    2a82:	0ff050ef          	jal	ra,8380 <udp_new>
    2a86:	89aa                	mv	s3,a0
    2a88:	12050363          	beqz	a0,2bae <WCHNET_SocketCreat+0x1ce>
    2a8c:	02c40a93          	addi	s5,s0,44
    2a90:	4611                	li	a2,4
    2a92:	85d6                	mv	a1,s5
    2a94:	0068                	addi	a0,sp,12
    2a96:	3cc060ef          	jal	ra,8e62 <memcpy>
    2a9a:	4a32                	lw	s4,12(sp)
    2a9c:	f0000537          	lui	a0,0xf0000
    2aa0:	154010ef          	jal	ra,3bf4 <ntohl>
    2aa4:	00aa7a33          	and	s4,s4,a0
    2aa8:	e0000537          	lui	a0,0xe0000
    2aac:	148010ef          	jal	ra,3bf4 <ntohl>
    2ab0:	04aa0063          	beq	s4,a0,2af0 <WCHNET_SocketCreat+0x110>
    2ab4:	200065b7          	lui	a1,0x20006
    2ab8:	27c58593          	addi	a1,a1,636 # 2000627c <WCHNetIf>
    2abc:	0068                	addi	a0,sp,12
    2abe:	5b8010ef          	jal	ra,4076 <ip_addr_isbroadcast>
    2ac2:	e51d                	bnez	a0,2af0 <WCHNET_SocketCreat+0x110>
    2ac4:	200067b7          	lui	a5,0x20006
    2ac8:	20c7a783          	lw	a5,524(a5) # 2000620c <NetInf>
    2acc:	3412                	lhu	a2,40(s0)
    2ace:	006c                	addi	a1,sp,12
    2ad0:	854e                	mv	a0,s3
    2ad2:	c63e                	sw	a5,12(sp)
    2ad4:	678050ef          	jal	ra,814c <udp_bind>
    2ad8:	e11d                	bnez	a0,2afe <WCHNET_SocketCreat+0x11e>
    2ada:	85d6                	mv	a1,s5
    2adc:	4611                	li	a2,4
    2ade:	0068                	addi	a0,sp,12
    2ae0:	382060ef          	jal	ra,8e62 <memcpy>
    2ae4:	3052                	lhu	a2,36(s0)
    2ae6:	006c                	addi	a1,sp,12
    2ae8:	854e                	mv	a0,s3
    2aea:	013050ef          	jal	ra,82fc <udp_connect>
    2aee:	a039                	j	2afc <WCHNET_SocketCreat+0x11c>
    2af0:	3412                	lhu	a2,40(s0)
    2af2:	84818593          	addi	a1,gp,-1976 # 20000068 <ip_addr_any>
    2af6:	854e                	mv	a0,s3
    2af8:	654050ef          	jal	ra,814c <udp_bind>
    2afc:	c501                	beqz	a0,2b04 <WCHNET_SocketCreat+0x124>
    2afe:	c39ff0ef          	jal	ra,2736 <ErrorEncode>
    2b02:	b709                	j	2a04 <WCHNET_SocketCreat+0x24>
    2b04:	03c00613          	li	a2,60
    2b08:	02c48633          	mul	a2,s1,a2
    2b0c:	000025b7          	lui	a1,0x2
    2b10:	54c58593          	addi	a1,a1,1356 # 254c <SocketUdpReceive>
    2b14:	854e                	mv	a0,s3
    2b16:	964a                	add	a2,a2,s2
    2b18:	063050ef          	jal	ra,837a <udp_recv>
    2b1c:	bf3d                	j	2a5a <WCHNET_SocketCreat+0x7a>
    2b1e:	470d                	li	a4,3
    2b20:	02100513          	li	a0,33
    2b24:	eee790e3          	bne	a5,a4,2a04 <WCHNET_SocketCreat+0x24>
    2b28:	1c6030ef          	jal	ra,5cee <tcp_new>
    2b2c:	445c                	lw	a5,12(s0)
    2b2e:	3412                	lhu	a2,40(s0)
    2b30:	006c                	addi	a1,sp,12
    2b32:	b95e                	sh	a5,52(a0)
    2b34:	200067b7          	lui	a5,0x20006
    2b38:	20c7a783          	lw	a5,524(a5) # 2000620c <NetInf>
    2b3c:	89aa                	mv	s3,a0
    2b3e:	c63e                	sw	a5,12(sp)
    2b40:	0e3020ef          	jal	ra,5422 <tcp_bind>
    2b44:	8a2a                	mv	s4,a0
    2b46:	c511                	beqz	a0,2b52 <WCHNET_SocketCreat+0x172>
    2b48:	854e                	mv	a0,s3
    2b4a:	661020ef          	jal	ra,59aa <tcp_close>
    2b4e:	8552                	mv	a0,s4
    2b50:	b77d                	j	2afe <WCHNET_SocketCreat+0x11e>
    2b52:	03c00593          	li	a1,60
    2b56:	02b485b3          	mul	a1,s1,a1
    2b5a:	854e                	mv	a0,s3
    2b5c:	95ca                	add	a1,a1,s2
    2b5e:	2cf020ef          	jal	ra,562c <tcp_arg>
    2b62:	000025b7          	lui	a1,0x2
    2b66:	854e                	mv	a0,s3
    2b68:	44858593          	addi	a1,a1,1096 # 2448 <NET_TCPError>
    2b6c:	2d1020ef          	jal	ra,563c <tcp_err>
    2b70:	4795                	li	a5,5
    2b72:	85a6                	mv	a1,s1
    2b74:	8522                	mv	a0,s0
    2b76:	03342823          	sw	s3,48(s0)
    2b7a:	03342a23          	sw	s3,52(s0)
    2b7e:	d01c                	sw	a5,32(s0)
    2b80:	bd1ff0ef          	jal	ra,2750 <WCHSocketInit>
    2b84:	20006537          	lui	a0,0x20006
    2b88:	006c                	addi	a1,sp,12
    2b8a:	27c50513          	addi	a0,a0,636 # 2000627c <WCHNetIf>
    2b8e:	321000ef          	jal	ra,36ae <etharp_request>
    2b92:	b5dd                	j	2a78 <WCHNET_SocketCreat+0x98>
    2b94:	a104                	sb	s1,0(a0)
    2b96:	4ddc                	lw	a5,28(a1)
    2b98:	c1c4                	sw	s1,4(a1)
    2b9a:	842e                	mv	s0,a1
    2b9c:	ee0790e3          	bnez	a5,2a7c <WCHNET_SocketCreat+0x9c>
    2ba0:	02844503          	lbu	a0,40(s0)
    2ba4:	7f2020ef          	jal	ra,5396 <raw_new>
    2ba8:	89aa                	mv	s3,a0
    2baa:	e6051ae3          	bnez	a0,2a1e <WCHNET_SocketCreat+0x3e>
    2bae:	4545                	li	a0,17
    2bb0:	bd91                	j	2a04 <WCHNET_SocketCreat+0x24>

00002bb2 <tcp_recved_socket>:
tcp_recved_socket():
    2bb2:	e7efd2ef          	jal	t0,230 <__riscv_save_0>
    2bb6:	b54e                	sh	a1,44(a0)
    2bb8:	842a                	mv	s0,a0
    2bba:	17f020ef          	jal	ra,5538 <tcp_update_rcv_ann_wnd>
    2bbe:	e909                	bnez	a0,2bd0 <tcp_recved_socket+0x1e>
    2bc0:	8b81a703          	lw	a4,-1864(gp) # 200000d8 <tcpSendDataTime>
    2bc4:	86c1a783          	lw	a5,-1940(gp) # 2000008c <LocalTime>
    2bc8:	8f99                	sub	a5,a5,a4
    2bca:	4751                	li	a4,20
    2bcc:	00f77b63          	bgeu	a4,a5,2be2 <tcp_recved_socket+0x30>
    2bd0:	02644783          	lbu	a5,38(s0)
    2bd4:	8522                	mv	a0,s0
    2bd6:	0027e793          	ori	a5,a5,2
    2bda:	02f40323          	sb	a5,38(s0)
    2bde:	477040ef          	jal	ra,7854 <tcp_output>
    2be2:	4505                	li	a0,1
    2be4:	e70fd06f          	j	254 <__riscv_restore_0>

00002be8 <WCHNET_ModifyRecvBuf>:
WCHNET_ModifyRecvBuf():
    2be8:	8b41c783          	lbu	a5,-1868(gp) # 200000d4 <SockNumber>
    2bec:	04f57663          	bgeu	a0,a5,2c38 <WCHNET_ModifyRecvBuf+0x50>
    2bf0:	03c00713          	li	a4,60
    2bf4:	02e50533          	mul	a0,a0,a4
    2bf8:	200067b7          	lui	a5,0x20006
    2bfc:	14c78793          	addi	a5,a5,332 # 2000614c <SocketInf>
    2c00:	953e                	add	a0,a0,a5
    2c02:	4d58                	lw	a4,28(a0)
    2c04:	00052c23          	sw	zero,24(a0)
    2c08:	c550                	sw	a2,12(a0)
    2c0a:	c50c                	sw	a1,8(a0)
    2c0c:	c90c                	sw	a1,16(a0)
    2c0e:	c94c                	sw	a1,20(a0)
    2c10:	478d                	li	a5,3
    2c12:	02f71363          	bne	a4,a5,2c38 <WCHNET_ModifyRecvBuf+0x50>
    2c16:	5908                	lw	a0,48(a0)
    2c18:	c105                	beqz	a0,2c38 <WCHNET_ModifyRecvBuf+0x50>
    2c1a:	395a                	lhu	a4,52(a0)
    2c1c:	00163793          	seqz	a5,a2
    2c20:	00f71c63          	bne	a4,a5,2c38 <WCHNET_ModifyRecvBuf+0x50>
    2c24:	e0cfd2ef          	jal	t0,230 <__riscv_save_0>
    2c28:	01061593          	slli	a1,a2,0x10
    2c2c:	81c1                	srli	a1,a1,0x10
    2c2e:	b94e                	sh	a1,52(a0)
    2c30:	f83ff0ef          	jal	ra,2bb2 <tcp_recved_socket>
    2c34:	e20fd06f          	j	254 <__riscv_restore_0>
    2c38:	8082                	ret

00002c3a <WCHNET_SocketRecv>:
WCHNET_SocketRecv():
    2c3a:	ddcfd2ef          	jal	t0,216 <__riscv_save_4>
    2c3e:	03c00793          	li	a5,60
    2c42:	02f507b3          	mul	a5,a0,a5
    2c46:	200064b7          	lui	s1,0x20006
    2c4a:	14c48693          	addi	a3,s1,332 # 2000614c <SocketInf>
    2c4e:	8a32                	mv	s4,a2
    2c50:	445d                	li	s0,23
    2c52:	97b6                	add	a5,a5,a3
    2c54:	5390                	lw	a2,32(a5)
    2c56:	4695                	li	a3,5
    2c58:	0ad61863          	bne	a2,a3,2d08 <WCHNET_SocketRecv+0xce>
    2c5c:	000a2683          	lw	a3,0(s4)
    2c60:	4469                	li	s0,26
    2c62:	c2dd                	beqz	a3,2d08 <WCHNET_SocketRecv+0xce>
    2c64:	000a2023          	sw	zero,0(s4)
    2c68:	0087ab03          	lw	s6,8(a5)
    2c6c:	47d0                	lw	a2,12(a5)
    2c6e:	0187a903          	lw	s2,24(a5)
    2c72:	89aa                	mv	s3,a0
    2c74:	872e                	mv	a4,a1
    2c76:	14c48493          	addi	s1,s1,332
    2c7a:	4bc0                	lw	s0,20(a5)
    2c7c:	9b32                	add	s6,s6,a2
    2c7e:	0126f363          	bgeu	a3,s2,2c84 <WCHNET_SocketRecv+0x4a>
    2c82:	8936                	mv	s2,a3
    2c84:	408b0ab3          	sub	s5,s6,s0
    2c88:	092af363          	bgeu	s5,s2,2d0e <WCHNET_SocketRecv+0xd4>
    2c8c:	cb01                	beqz	a4,2c9c <WCHNET_SocketRecv+0x62>
    2c8e:	853a                	mv	a0,a4
    2c90:	8656                	mv	a2,s5
    2c92:	85a2                	mv	a1,s0
    2c94:	1ce060ef          	jal	ra,8e62 <memcpy>
    2c98:	01550733          	add	a4,a0,s5
    2c9c:	03c00793          	li	a5,60
    2ca0:	02f987b3          	mul	a5,s3,a5
    2ca4:	944a                	add	s0,s0,s2
    2ca6:	41640433          	sub	s0,s0,s6
    2caa:	97a6                	add	a5,a5,s1
    2cac:	0087aa83          	lw	s5,8(a5)
    2cb0:	c711                	beqz	a4,2cbc <WCHNET_SocketRecv+0x82>
    2cb2:	8622                	mv	a2,s0
    2cb4:	85d6                	mv	a1,s5
    2cb6:	853a                	mv	a0,a4
    2cb8:	1aa060ef          	jal	ra,8e62 <memcpy>
    2cbc:	9456                	add	s0,s0,s5
    2cbe:	03c00793          	li	a5,60
    2cc2:	02f987b3          	mul	a5,s3,a5
    2cc6:	012a2023          	sw	s2,0(s4)
    2cca:	97a6                	add	a5,a5,s1
    2ccc:	4f98                	lw	a4,24(a5)
    2cce:	cbc0                	sw	s0,20(a5)
    2cd0:	41270933          	sub	s2,a4,s2
    2cd4:	0127ac23          	sw	s2,24(a5)
    2cd8:	00091863          	bnez	s2,2ce8 <WCHNET_SocketRecv+0xae>
    2cdc:	4798                	lw	a4,8(a5)
    2cde:	cbd8                	sw	a4,20(a5)
    2ce0:	cb98                	sw	a4,16(a5)
    2ce2:	4398                	lw	a4,0(a5)
    2ce4:	9b6d                	andi	a4,a4,-5
    2ce6:	c398                	sw	a4,0(a5)
    2ce8:	03c00793          	li	a5,60
    2cec:	02f989b3          	mul	s3,s3,a5
    2cf0:	478d                	li	a5,3
    2cf2:	4401                	li	s0,0
    2cf4:	94ce                	add	s1,s1,s3
    2cf6:	4cd8                	lw	a4,28(s1)
    2cf8:	00f71863          	bne	a4,a5,2d08 <WCHNET_SocketRecv+0xce>
    2cfc:	00091663          	bnez	s2,2d08 <WCHNET_SocketRecv+0xce>
    2d00:	24ce                	lhu	a1,12(s1)
    2d02:	5888                	lw	a0,48(s1)
    2d04:	eafff0ef          	jal	ra,2bb2 <tcp_recved_socket>
    2d08:	8522                	mv	a0,s0
    2d0a:	d40fd06f          	j	24a <__riscv_restore_4>
    2d0e:	c711                	beqz	a4,2d1a <WCHNET_SocketRecv+0xe0>
    2d10:	864a                	mv	a2,s2
    2d12:	85a2                	mv	a1,s0
    2d14:	853a                	mv	a0,a4
    2d16:	14c060ef          	jal	ra,8e62 <memcpy>
    2d1a:	944a                	add	s0,s0,s2
    2d1c:	fb2a91e3          	bne	s5,s2,2cbe <WCHNET_SocketRecv+0x84>
    2d20:	03c00793          	li	a5,60
    2d24:	02f987b3          	mul	a5,s3,a5
    2d28:	97a6                	add	a5,a5,s1
    2d2a:	4780                	lw	s0,8(a5)
    2d2c:	bf49                	j	2cbe <WCHNET_SocketRecv+0x84>

00002d2e <SocketIPRawSend>:
SocketIPRawSend():
    2d2e:	cdafd2ef          	jal	t0,208 <__riscv_save_10>
    2d32:	4200                	lw	s0,0(a2)
    2d34:	00062023          	sw	zero,0(a2)
    2d38:	c455                	beqz	s0,2de4 <SocketIPRawSend+0xb6>
    2d3a:	87aa                	mv	a5,a0
    2d3c:	4569                	li	a0,26
    2d3e:	c5d9                	beqz	a1,2dcc <SocketIPRawSend+0x9e>
    2d40:	03c00513          	li	a0,60
    2d44:	02a787b3          	mul	a5,a5,a0
    2d48:	20006537          	lui	a0,0x20006
    2d4c:	14c50513          	addi	a0,a0,332 # 2000614c <SocketInf>
    2d50:	20006ab7          	lui	s5,0x20006
    2d54:	4481                	li	s1,0
    2d56:	97aa                	add	a5,a5,a0
    2d58:	0307ab03          	lw	s6,48(a5)
    2d5c:	20ca8793          	addi	a5,s5,524 # 2000620c <NetInf>
    2d60:	43bc                	lw	a5,64(a5)
    2d62:	20ca8a93          	addi	s5,s5,524
    2d66:	8b89                	andi	a5,a5,2
    2d68:	e399                	bnez	a5,2d6e <SocketIPRawSend+0x40>
    2d6a:	0c700493          	li	s1,199
    2d6e:	5c800793          	li	a5,1480
    2d72:	0087f463          	bgeu	a5,s0,2d7a <SocketIPRawSend+0x4c>
    2d76:	5c800413          	li	s0,1480
    2d7a:	01041c93          	slli	s9,s0,0x10
    2d7e:	8a32                	mv	s4,a2
    2d80:	892e                	mv	s2,a1
    2d82:	010cdc93          	srli	s9,s9,0x10
    2d86:	0c800c13          	li	s8,200
    2d8a:	4601                	li	a2,0
    2d8c:	85e6                	mv	a1,s9
    2d8e:	4501                	li	a0,0
    2d90:	24e020ef          	jal	ra,4fde <pbuf_alloc>
    2d94:	89aa                	mv	s3,a0
    2d96:	c929                	beqz	a0,2de8 <SocketIPRawSend+0xba>
    2d98:	4148                	lw	a0,4(a0)
    2d9a:	8622                	mv	a2,s0
    2d9c:	85ca                	mv	a1,s2
    2d9e:	020aae23          	sw	zero,60(s5)
    2da2:	0c0060ef          	jal	ra,8e62 <memcpy>
    2da6:	85ce                	mv	a1,s3
    2da8:	855a                	mv	a0,s6
    2daa:	5dc020ef          	jal	ra,5386 <raw_send>
    2dae:	8baa                	mv	s7,a0
    2db0:	854e                	mv	a0,s3
    2db2:	1de020ef          	jal	ra,4f90 <pbuf_free>
    2db6:	03caa783          	lw	a5,60(s5)
    2dba:	cb99                	beqz	a5,2dd0 <SocketIPRawSend+0xa2>
    2dbc:	0485                	addi	s1,s1,1
    2dbe:	04c2                	slli	s1,s1,0x10
    2dc0:	80c1                	srli	s1,s1,0x10
    2dc2:	c56ff0ef          	jal	ra,2218 <WCHNET_NetInput>
    2dc6:	fd8492e3          	bne	s1,s8,2d8a <SocketIPRawSend+0x5c>
    2dca:	454d                	li	a0,19
    2dcc:	c74fd06f          	j	240 <__riscv_restore_10>
    2dd0:	000bd663          	bgez	s7,2ddc <SocketIPRawSend+0xae>
    2dd4:	855e                	mv	a0,s7
    2dd6:	961ff0ef          	jal	ra,2736 <ErrorEncode>
    2dda:	bfcd                	j	2dcc <SocketIPRawSend+0x9e>
    2ddc:	008a2023          	sw	s0,0(s4)
    2de0:	4501                	li	a0,0
    2de2:	b7ed                	j	2dcc <SocketIPRawSend+0x9e>
    2de4:	4569                	li	a0,26
    2de6:	b7dd                	j	2dcc <SocketIPRawSend+0x9e>
    2de8:	4545                	li	a0,17
    2dea:	b7cd                	j	2dcc <SocketIPRawSend+0x9e>

00002dec <SocketUdpSend>:
SocketUdpSend():
    2dec:	c1cfd2ef          	jal	t0,208 <__riscv_save_10>
    2df0:	4200                	lw	s0,0(a2)
    2df2:	00062023          	sw	zero,0(a2)
    2df6:	c455                	beqz	s0,2ea2 <SocketUdpSend+0xb6>
    2df8:	87aa                	mv	a5,a0
    2dfa:	4569                	li	a0,26
    2dfc:	c5d9                	beqz	a1,2e8a <SocketUdpSend+0x9e>
    2dfe:	03c00513          	li	a0,60
    2e02:	02a787b3          	mul	a5,a5,a0
    2e06:	20006537          	lui	a0,0x20006
    2e0a:	14c50513          	addi	a0,a0,332 # 2000614c <SocketInf>
    2e0e:	20006ab7          	lui	s5,0x20006
    2e12:	4481                	li	s1,0
    2e14:	97aa                	add	a5,a5,a0
    2e16:	0307ab03          	lw	s6,48(a5)
    2e1a:	20ca8793          	addi	a5,s5,524 # 2000620c <NetInf>
    2e1e:	43bc                	lw	a5,64(a5)
    2e20:	20ca8a93          	addi	s5,s5,524
    2e24:	8b89                	andi	a5,a5,2
    2e26:	e399                	bnez	a5,2e2c <SocketUdpSend+0x40>
    2e28:	0c700493          	li	s1,199
    2e2c:	5c000793          	li	a5,1472
    2e30:	0087f463          	bgeu	a5,s0,2e38 <SocketUdpSend+0x4c>
    2e34:	5c000413          	li	s0,1472
    2e38:	01041c93          	slli	s9,s0,0x10
    2e3c:	8a32                	mv	s4,a2
    2e3e:	892e                	mv	s2,a1
    2e40:	010cdc93          	srli	s9,s9,0x10
    2e44:	0c800c13          	li	s8,200
    2e48:	4601                	li	a2,0
    2e4a:	85e6                	mv	a1,s9
    2e4c:	4501                	li	a0,0
    2e4e:	190020ef          	jal	ra,4fde <pbuf_alloc>
    2e52:	89aa                	mv	s3,a0
    2e54:	c929                	beqz	a0,2ea6 <SocketUdpSend+0xba>
    2e56:	4148                	lw	a0,4(a0)
    2e58:	8622                	mv	a2,s0
    2e5a:	85ca                	mv	a1,s2
    2e5c:	020aae23          	sw	zero,60(s5)
    2e60:	002060ef          	jal	ra,8e62 <memcpy>
    2e64:	85ce                	mv	a1,s3
    2e66:	855a                	mv	a0,s6
    2e68:	482050ef          	jal	ra,82ea <udp_send>
    2e6c:	8baa                	mv	s7,a0
    2e6e:	854e                	mv	a0,s3
    2e70:	120020ef          	jal	ra,4f90 <pbuf_free>
    2e74:	03caa783          	lw	a5,60(s5)
    2e78:	cb99                	beqz	a5,2e8e <SocketUdpSend+0xa2>
    2e7a:	0485                	addi	s1,s1,1
    2e7c:	04c2                	slli	s1,s1,0x10
    2e7e:	80c1                	srli	s1,s1,0x10
    2e80:	b98ff0ef          	jal	ra,2218 <WCHNET_NetInput>
    2e84:	fd8492e3          	bne	s1,s8,2e48 <SocketUdpSend+0x5c>
    2e88:	454d                	li	a0,19
    2e8a:	bb6fd06f          	j	240 <__riscv_restore_10>
    2e8e:	000bd663          	bgez	s7,2e9a <SocketUdpSend+0xae>
    2e92:	855e                	mv	a0,s7
    2e94:	8a3ff0ef          	jal	ra,2736 <ErrorEncode>
    2e98:	bfcd                	j	2e8a <SocketUdpSend+0x9e>
    2e9a:	008a2023          	sw	s0,0(s4)
    2e9e:	4501                	li	a0,0
    2ea0:	b7ed                	j	2e8a <SocketUdpSend+0x9e>
    2ea2:	4569                	li	a0,26
    2ea4:	b7dd                	j	2e8a <SocketUdpSend+0x9e>
    2ea6:	4545                	li	a0,17
    2ea8:	b7cd                	j	2e8a <SocketUdpSend+0x9e>

00002eaa <SocketTcpSend>:
SocketTcpSend():
    2eaa:	b5efd2ef          	jal	t0,208 <__riscv_save_10>
    2eae:	00062903          	lw	s2,0(a2)
    2eb2:	00062023          	sw	zero,0(a2)
    2eb6:	0e090663          	beqz	s2,2fa2 <SocketTcpSend+0xf8>
    2eba:	87aa                	mv	a5,a0
    2ebc:	8aae                	mv	s5,a1
    2ebe:	4569                	li	a0,26
    2ec0:	c9a1                	beqz	a1,2f10 <SocketTcpSend+0x66>
    2ec2:	03c00513          	li	a0,60
    2ec6:	02a787b3          	mul	a5,a5,a0
    2eca:	20006537          	lui	a0,0x20006
    2ece:	14c50513          	addi	a0,a0,332 # 2000614c <SocketInf>
    2ed2:	8b32                	mv	s6,a2
    2ed4:	4a01                	li	s4,0
    2ed6:	97aa                	add	a5,a5,a0
    2ed8:	5b84                	lw	s1,48(a5)
    2eda:	200067b7          	lui	a5,0x20006
    2ede:	24c7a783          	lw	a5,588(a5) # 2000624c <NetInf+0x40>
    2ee2:	8b89                	andi	a5,a5,2
    2ee4:	e399                	bnez	a5,2eea <SocketTcpSend+0x40>
    2ee6:	0c700a13          	li	s4,199
    2eea:	200069b7          	lui	s3,0x20006
    2eee:	4401                	li	s0,0
    2ef0:	0c900c13          	li	s8,201
    2ef4:	4c91                	li	s9,4
    2ef6:	25098993          	addi	s3,s3,592 # 20006250 <WCHCfg>
    2efa:	5d7d                	li	s10,-1
    2efc:	0a05                	addi	s4,s4,1
    2efe:	0a42                	slli	s4,s4,0x10
    2f00:	010a5a13          	srli	s4,s4,0x10
    2f04:	018a1863          	bne	s4,s8,2f14 <SocketTcpSend+0x6a>
    2f08:	000b2783          	lw	a5,0(s6)
    2f0c:	cbc9                	beqz	a5,2f9e <SocketTcpSend+0xf4>
    2f0e:	4501                	li	a0,0
    2f10:	b30fd06f          	j	240 <__riscv_restore_10>
    2f14:	489c                	lw	a5,16(s1)
    2f16:	09979863          	bne	a5,s9,2fa6 <SocketTcpSend+0xfc>
    2f1a:	afeff0ef          	jal	ra,2218 <WCHNET_NetInput>
    2f1e:	0764d683          	lhu	a3,118(s1)
    2f22:	e299                	bnez	a3,2f28 <SocketTcpSend+0x7e>
    2f24:	4545                	li	a0,17
    2f26:	b7ed                	j	2f10 <SocketTcpSend+0x66>
    2f28:	0109a783          	lw	a5,16(s3)
    2f2c:	8b85                	andi	a5,a5,1
    2f2e:	e399                	bnez	a5,2f34 <SocketTcpSend+0x8a>
    2f30:	ff26eae3          	bltu	a3,s2,2f24 <SocketTcpSend+0x7a>
    2f34:	0049a703          	lw	a4,4(s3)
    2f38:	00e6f363          	bgeu	a3,a4,2f3e <SocketTcpSend+0x94>
    2f3c:	8736                	mv	a4,a3
    2f3e:	8bca                	mv	s7,s2
    2f40:	01277363          	bgeu	a4,s2,2f46 <SocketTcpSend+0x9c>
    2f44:	8bba                	mv	s7,a4
    2f46:	010b9613          	slli	a2,s7,0x10
    2f4a:	8241                	srli	a2,a2,0x10
    2f4c:	4685                	li	a3,1
    2f4e:	e391                	bnez	a5,2f52 <SocketTcpSend+0xa8>
    2f50:	4681                	li	a3,0
    2f52:	85d6                	mv	a1,s5
    2f54:	8526                	mv	a0,s1
    2f56:	05b040ef          	jal	ra,77b0 <tcp_write>
    2f5a:	842a                	mv	s0,a0
    2f5c:	8526                	mv	a0,s1
    2f5e:	e40d                	bnez	s0,2f88 <SocketTcpSend+0xde>
    2f60:	0f5040ef          	jal	ra,7854 <tcp_output>
    2f64:	000b2783          	lw	a5,0(s6)
    2f68:	41790933          	sub	s2,s2,s7
    2f6c:	842a                	mv	s0,a0
    2f6e:	97de                	add	a5,a5,s7
    2f70:	00fb2023          	sw	a5,0(s6)
    2f74:	9ade                	add	s5,s5,s7
    2f76:	f8090ce3          	beqz	s2,2f0e <SocketTcpSend+0x64>
    2f7a:	0109a783          	lw	a5,16(s3)
    2f7e:	8b85                	andi	a5,a5,1
    2f80:	ffb5                	bnez	a5,2efc <SocketTcpSend+0x52>
    2f82:	fb4ff0ef          	jal	ra,2736 <ErrorEncode>
    2f86:	b769                	j	2f10 <SocketTcpSend+0x66>
    2f88:	01a41963          	bne	s0,s10,2f9a <SocketTcpSend+0xf0>
    2f8c:	0c9040ef          	jal	ra,7854 <tcp_output>
    2f90:	0109a783          	lw	a5,16(s3)
    2f94:	8b85                	andi	a5,a5,1
    2f96:	f3bd                	bnez	a5,2efc <SocketTcpSend+0x52>
    2f98:	b771                	j	2f24 <SocketTcpSend+0x7a>
    2f9a:	0bb040ef          	jal	ra,7854 <tcp_output>
    2f9e:	8522                	mv	a0,s0
    2fa0:	b7cd                	j	2f82 <SocketTcpSend+0xd8>
    2fa2:	4569                	li	a0,26
    2fa4:	b7b5                	j	2f10 <SocketTcpSend+0x66>
    2fa6:	455d                	li	a0,23
    2fa8:	b7a5                	j	2f10 <SocketTcpSend+0x66>

00002faa <WCHNET_SocketSend>:
WCHNET_SocketSend():
    2faa:	03c00793          	li	a5,60
    2fae:	02f507b3          	mul	a5,a0,a5
    2fb2:	20006737          	lui	a4,0x20006
    2fb6:	14c70713          	addi	a4,a4,332 # 2000614c <SocketInf>
    2fba:	97ba                	add	a5,a5,a4
    2fbc:	0207a803          	lw	a6,32(a5)
    2fc0:	4715                	li	a4,5
    2fc2:	00e80763          	beq	a6,a4,2fd0 <WCHNET_SocketSend+0x26>
    2fc6:	47dd                	li	a5,23
    2fc8:	00062023          	sw	zero,0(a2)
    2fcc:	853e                	mv	a0,a5
    2fce:	8082                	ret
    2fd0:	a60fd2ef          	jal	t0,230 <__riscv_save_0>
    2fd4:	4fd8                	lw	a4,28(a5)
    2fd6:	478d                	li	a5,3
    2fd8:	00f71863          	bne	a4,a5,2fe8 <WCHNET_SocketSend+0x3e>
    2fdc:	ecfff0ef          	jal	ra,2eaa <SocketTcpSend>
    2fe0:	87aa                	mv	a5,a0
    2fe2:	853e                	mv	a0,a5
    2fe4:	a70fd06f          	j	254 <__riscv_restore_0>
    2fe8:	e701                	bnez	a4,2ff0 <WCHNET_SocketSend+0x46>
    2fea:	d45ff0ef          	jal	ra,2d2e <SocketIPRawSend>
    2fee:	bfcd                	j	2fe0 <WCHNET_SocketSend+0x36>
    2ff0:	4689                	li	a3,2
    2ff2:	0fa00793          	li	a5,250
    2ff6:	fed716e3          	bne	a4,a3,2fe2 <WCHNET_SocketSend+0x38>
    2ffa:	df3ff0ef          	jal	ra,2dec <SocketUdpSend>
    2ffe:	b7cd                	j	2fe0 <WCHNET_SocketSend+0x36>

00003000 <WCHScokedIntHandle>:
WCHScokedIntHandle():
    3000:	a30fd2ef          	jal	t0,230 <__riscv_save_0>
    3004:	47a1                	li	a5,8
    3006:	84aa                	mv	s1,a0
    3008:	2100                	lbu	s0,0(a0)
    300a:	02f58a63          	beq	a1,a5,303e <WCHScokedIntHandle+0x3e>
    300e:	00b7ec63          	bltu	a5,a1,3026 <WCHScokedIntHandle+0x26>
    3012:	4785                	li	a5,1
    3014:	02f58163          	beq	a1,a5,3036 <WCHScokedIntHandle+0x36>
    3018:	4789                	li	a5,2
    301a:	00246413          	ori	s0,s0,2
    301e:	00f58e63          	beq	a1,a5,303a <WCHScokedIntHandle+0x3a>
    3022:	a32fd06f          	j	254 <__riscv_restore_0>
    3026:	47c1                	li	a5,16
    3028:	00f58e63          	beq	a1,a5,3044 <WCHScokedIntHandle+0x44>
    302c:	04000793          	li	a5,64
    3030:	04046413          	ori	s0,s0,64
    3034:	b7ed                	j	301e <WCHScokedIntHandle+0x1e>
    3036:	00146413          	ori	s0,s0,1
    303a:	c080                	sw	s0,0(s1)
    303c:	b7dd                	j	3022 <WCHScokedIntHandle+0x22>
    303e:	00846413          	ori	s0,s0,8
    3042:	bfe5                	j	303a <WCHScokedIntHandle+0x3a>
    3044:	5948                	lw	a0,52(a0)
    3046:	01046413          	ori	s0,s0,16
    304a:	d965                	beqz	a0,303a <WCHScokedIntHandle+0x3a>
    304c:	15f020ef          	jal	ra,59aa <tcp_close>
    3050:	b7ed                	j	303a <WCHScokedIntHandle+0x3a>

00003052 <LwipRemoveTcpPcb>:
LwipRemoveTcpPcb():
    3052:	9defd2ef          	jal	t0,230 <__riscv_save_0>
    3056:	1141                	addi	sp,sp,-16
    3058:	00f10593          	addi	a1,sp,15
    305c:	84aa                	mv	s1,a0
    305e:	000107a3          	sb	zero,15(sp)
    3062:	921ff0ef          	jal	ra,2982 <WCHFindCorrectTCBPcb>
    3066:	c515                	beqz	a0,3092 <LwipRemoveTcpPcb+0x40>
    3068:	8780                	lbu	s0,15(sp)
    306a:	01841793          	slli	a5,s0,0x18
    306e:	87e1                	srai	a5,a5,0x18
    3070:	0207d463          	bgez	a5,3098 <LwipRemoveTcpPcb+0x46>
    3074:	07f47413          	andi	s0,s0,127
    3078:	03c00713          	li	a4,60
    307c:	02e40433          	mul	s0,s0,a4
    3080:	200067b7          	lui	a5,0x20006
    3084:	14c78793          	addi	a5,a5,332 # 2000614c <SocketInf>
    3088:	943e                	add	s0,s0,a5
    308a:	02042a23          	sw	zero,52(s0)
    308e:	02042023          	sw	zero,32(s0)
    3092:	0141                	addi	sp,sp,16
    3094:	9c0fd06f          	j	254 <__riscv_restore_0>
    3098:	8b41c783          	lbu	a5,-1868(gp) # 200000d4 <SockNumber>
    309c:	fef47be3          	bgeu	s0,a5,3092 <LwipRemoveTcpPcb+0x40>
    30a0:	03c00713          	li	a4,60
    30a4:	02e40733          	mul	a4,s0,a4
    30a8:	200066b7          	lui	a3,0x20006
    30ac:	14c68793          	addi	a5,a3,332 # 2000614c <SocketInf>
    30b0:	14c68913          	addi	s2,a3,332
    30b4:	97ba                	add	a5,a5,a4
    30b6:	4fd0                	lw	a2,28(a5)
    30b8:	470d                	li	a4,3
    30ba:	fce61ce3          	bne	a2,a4,3092 <LwipRemoveTcpPcb+0x40>
    30be:	2884                	lbu	s1,16(s1)
    30c0:	03c00613          	li	a2,60
    30c4:	4581                	li	a1,0
    30c6:	853e                	mv	a0,a5
    30c8:	998fd0ef          	jal	ra,260 <memset>
    30cc:	14dd                	addi	s1,s1,-9
    30ce:	0ff4f493          	andi	s1,s1,255
    30d2:	4705                	li	a4,1
    30d4:	00976d63          	bltu	a4,s1,30ee <LwipRemoveTcpPcb+0x9c>
    30d8:	45c1                	li	a1,16
    30da:	f27ff0ef          	jal	ra,3000 <WCHScokedIntHandle>
    30de:	03c00793          	li	a5,60
    30e2:	02f40433          	mul	s0,s0,a5
    30e6:	944a                	add	s0,s0,s2
    30e8:	02042823          	sw	zero,48(s0)
    30ec:	b74d                	j	308e <LwipRemoveTcpPcb+0x3c>
    30ee:	2118                	lbu	a4,0(a0)
    30f0:	04076713          	ori	a4,a4,64
    30f4:	c118                	sw	a4,0(a0)
    30f6:	b7e5                	j	30de <LwipRemoveTcpPcb+0x8c>

000030f8 <WCHNET_QueryGlobalInt>:
WCHNET_QueryGlobalInt():
    30f8:	20006737          	lui	a4,0x20006
    30fc:	8b41c683          	lbu	a3,-1868(gp) # 200000d4 <SockNumber>
    3100:	14c70713          	addi	a4,a4,332 # 2000614c <SocketInf>
    3104:	4781                	li	a5,0
    3106:	00f68f63          	beq	a3,a5,3124 <WCHNET_QueryGlobalInt+0x2c>
    310a:	03c70713          	addi	a4,a4,60
    310e:	fc472603          	lw	a2,-60(a4)
    3112:	ce11                	beqz	a2,312e <WCHNET_QueryGlobalInt+0x36>
    3114:	200067b7          	lui	a5,0x20006
    3118:	20c78793          	addi	a5,a5,524 # 2000620c <NetInf>
    311c:	57d8                	lw	a4,44(a5)
    311e:	01076713          	ori	a4,a4,16
    3122:	d7d8                	sw	a4,44(a5)
    3124:	200067b7          	lui	a5,0x20006
    3128:	2387c503          	lbu	a0,568(a5) # 20006238 <NetInf+0x2c>
    312c:	8082                	ret
    312e:	0785                	addi	a5,a5,1
    3130:	0ff7f793          	andi	a5,a5,255
    3134:	bfc9                	j	3106 <WCHNET_QueryGlobalInt+0xe>

00003136 <WCHNET_GetGlobalInt>:
WCHNET_GetGlobalInt():
    3136:	8fafd2ef          	jal	t0,230 <__riscv_save_0>
    313a:	fbfff0ef          	jal	ra,30f8 <WCHNET_QueryGlobalInt>
    313e:	200067b7          	lui	a5,0x20006
    3142:	2207ac23          	sw	zero,568(a5) # 20006238 <NetInf+0x2c>
    3146:	90efd06f          	j	254 <__riscv_restore_0>

0000314a <WCHNET_GetSocketInt>:
WCHNET_GetSocketInt():
    314a:	8b41c783          	lbu	a5,-1868(gp) # 200000d4 <SockNumber>
    314e:	02f57163          	bgeu	a0,a5,3170 <WCHNET_GetSocketInt+0x26>
    3152:	03c00793          	li	a5,60
    3156:	02f50533          	mul	a0,a0,a5
    315a:	200067b7          	lui	a5,0x20006
    315e:	14c78793          	addi	a5,a5,332 # 2000614c <SocketInf>
    3162:	97aa                	add	a5,a5,a0
    3164:	4398                	lw	a4,0(a5)
    3166:	0ff77513          	andi	a0,a4,255
    316a:	8b11                	andi	a4,a4,4
    316c:	c398                	sw	a4,0(a5)
    316e:	8082                	ret
    3170:	4501                	li	a0,0
    3172:	8082                	ret

00003174 <WCHNET_GetPHYStatus>:
WCHNET_GetPHYStatus():
    3174:	200067b7          	lui	a5,0x20006
    3178:	22c7c503          	lbu	a0,556(a5) # 2000622c <NetInf+0x20>
    317c:	8082                	ret

0000317e <WCHNET_SocketSetKeepLive>:
WCHNET_SocketSetKeepLive():
    317e:	03c00793          	li	a5,60
    3182:	02f50533          	mul	a0,a0,a5
    3186:	200067b7          	lui	a5,0x20006
    318a:	14c78793          	addi	a5,a5,332 # 2000614c <SocketInf>
    318e:	953e                	add	a0,a0,a5
    3190:	591c                	lw	a5,48(a0)
    3192:	cf95                	beqz	a5,31ce <WCHNET_SocketSetKeepLive+0x50>
    3194:	5114                	lw	a3,32(a0)
    3196:	4715                	li	a4,5
    3198:	455d                	li	a0,23
    319a:	02e69b63          	bne	a3,a4,31d0 <WCHNET_SocketSetKeepLive+0x52>
    319e:	8985                	andi	a1,a1,1
    31a0:	279a                	lhu	a4,8(a5)
    31a2:	c19d                	beqz	a1,31c8 <WCHNET_SocketSetKeepLive+0x4a>
    31a4:	00876713          	ori	a4,a4,8
    31a8:	a79a                	sh	a4,8(a5)
    31aa:	20006737          	lui	a4,0x20006
    31ae:	20070713          	addi	a4,a4,512 # 20006200 <KeepLiveCfg>
    31b2:	4314                	lw	a3,0(a4)
    31b4:	0ad7a023          	sw	a3,160(a5)
    31b8:	4354                	lw	a3,4(a4)
    31ba:	4718                	lw	a4,8(a4)
    31bc:	0ad7a223          	sw	a3,164(a5)
    31c0:	0ae7a423          	sw	a4,168(a5)
    31c4:	4501                	li	a0,0
    31c6:	8082                	ret
    31c8:	9b5d                	andi	a4,a4,-9
    31ca:	a79a                	sh	a4,8(a5)
    31cc:	bfe5                	j	31c4 <WCHNET_SocketSetKeepLive+0x46>
    31ce:	455d                	li	a0,23
    31d0:	8082                	ret

000031d2 <WCHNET_SocketConnect>:
WCHNET_SocketConnect():
    31d2:	85efd2ef          	jal	t0,230 <__riscv_save_0>
    31d6:	03c00413          	li	s0,60
    31da:	02850433          	mul	s0,a0,s0
    31de:	20006537          	lui	a0,0x20006
    31e2:	14c50513          	addi	a0,a0,332 # 2000614c <SocketInf>
    31e6:	1141                	addi	sp,sp,-16
    31e8:	942a                	add	s0,s0,a0
    31ea:	5804                	lw	s1,48(s0)
    31ec:	455d                	li	a0,23
    31ee:	cc8d                	beqz	s1,3228 <WCHNET_SocketConnect+0x56>
    31f0:	5018                	lw	a4,32(s0)
    31f2:	4795                	li	a5,5
    31f4:	455d                	li	a0,23
    31f6:	02f71963          	bne	a4,a5,3228 <WCHNET_SocketConnect+0x56>
    31fa:	545c                	lw	a5,44(s0)
    31fc:	02042a23          	sw	zero,52(s0)
    3200:	000026b7          	lui	a3,0x2
    3204:	c63e                	sw	a5,12(sp)
    3206:	3052                	lhu	a2,36(s0)
    3208:	6f468693          	addi	a3,a3,1780 # 26f4 <LwipTcpConnectedCallBack>
    320c:	006c                	addi	a1,sp,12
    320e:	8526                	mv	a0,s1
    3210:	31d020ef          	jal	ra,5d2c <tcp_connect>
    3214:	892a                	mv	s2,a0
    3216:	cd01                	beqz	a0,322e <WCHNET_SocketConnect+0x5c>
    3218:	8526                	mv	a0,s1
    321a:	790020ef          	jal	ra,59aa <tcp_close>
    321e:	854a                	mv	a0,s2
    3220:	02042023          	sw	zero,32(s0)
    3224:	d12ff0ef          	jal	ra,2736 <ErrorEncode>
    3228:	0141                	addi	sp,sp,16
    322a:	82afd06f          	j	254 <__riscv_restore_0>
    322e:	0264c783          	lbu	a5,38(s1)
    3232:	4501                	li	a0,0
    3234:	fbf7f793          	andi	a5,a5,-65
    3238:	02f48323          	sb	a5,38(s1)
    323c:	b7f5                	j	3228 <WCHNET_SocketConnect+0x56>

0000323e <QueryPingEnable>:
QueryPingEnable():
    323e:	200067b7          	lui	a5,0x20006
    3242:	2647a503          	lw	a0,612(a5) # 20006264 <WCHCfg+0x14>
    3246:	8135                	srli	a0,a0,0xd
    3248:	8905                	andi	a0,a0,1
    324a:	8082                	ret

0000324c <LwipUnreachPort>:
LwipUnreachPort():
    324c:	200067b7          	lui	a5,0x20006
    3250:	20c78793          	addi	a5,a5,524 # 2000620c <NetInf>
    3254:	4705                	li	a4,1
    3256:	1141                	addi	sp,sp,-16
    3258:	cbc8                	sw	a0,20(a5)
    325a:	db94                	sw	a3,48(a5)
    325c:	dbd0                	sw	a2,52(a5)
    325e:	df8c                	sw	a1,56(a5)
    3260:	d7d8                	sw	a4,44(a5)
    3262:	0141                	addi	sp,sp,16
    3264:	8082                	ret

00003266 <LwipArpCheck>:
LwipArpCheck():
    3266:	200067b7          	lui	a5,0x20006
    326a:	4705                	li	a4,1
    326c:	24e7a423          	sw	a4,584(a5) # 20006248 <NetInf+0x3c>
    3270:	8082                	ret

00003272 <find_entry>:
find_entry():
    3272:	fbffc2ef          	jal	t0,230 <__riscv_save_0>
    3276:	200067b7          	lui	a5,0x20006
    327a:	25c7a603          	lw	a2,604(a5) # 2000625c <WCHCfg+0xc>
    327e:	8201a683          	lw	a3,-2016(gp) # 20000040 <arp_table>
    3282:	01861713          	slli	a4,a2,0x18
    3286:	8761                	srai	a4,a4,0x18
    3288:	14050b63          	beqz	a0,33de <find_entry+0x16c>
    328c:	8bc1c783          	lbu	a5,-1860(gp) # 200000dc <etharp_cached_entry>
    3290:	4861                	li	a6,24
    3292:	4889                	li	a7,2
    3294:	03078833          	mul	a6,a5,a6
    3298:	9836                	add	a6,a6,a3
    329a:	00c82303          	lw	t1,12(a6)
    329e:	15131063          	bne	t1,a7,33de <find_entry+0x16c>
    32a2:	00154303          	lbu	t1,1(a0)
    32a6:	00054883          	lbu	a7,0(a0)
    32aa:	00082803          	lw	a6,0(a6)
    32ae:	0322                	slli	t1,t1,0x8
    32b0:	01136333          	or	t1,t1,a7
    32b4:	00254883          	lbu	a7,2(a0)
    32b8:	08c2                	slli	a7,a7,0x10
    32ba:	0068e333          	or	t1,a7,t1
    32be:	00354883          	lbu	a7,3(a0)
    32c2:	08e2                	slli	a7,a7,0x18
    32c4:	0068e8b3          	or	a7,a7,t1
    32c8:	11089b63          	bne	a7,a6,33de <find_entry+0x16c>
    32cc:	07e2                	slli	a5,a5,0x18
    32ce:	87e1                	srai	a5,a5,0x18
    32d0:	853e                	mv	a0,a5
    32d2:	f83fc06f          	j	254 <__riscv_restore_0>
    32d6:	025788b3          	mul	a7,a5,t0
    32da:	98b6                	add	a7,a7,a3
    32dc:	00c8ae03          	lw	t3,12(a7) # 8000000c <_eusrstack+0x5fff000c>
    32e0:	07061963          	bne	a2,a6,3352 <find_entry+0xe0>
    32e4:	060e1763          	bnez	t3,3352 <find_entry+0xe0>
    32e8:	01879813          	slli	a6,a5,0x18
    32ec:	41885813          	srai	a6,a6,0x18
    32f0:	0785                	addi	a5,a5,1
    32f2:	0ff7f793          	andi	a5,a5,255
    32f6:	fec7e0e3          	bltu	a5,a2,32d6 <find_entry+0x64>
    32fa:	01061763          	bne	a2,a6,3308 <find_entry+0x96>
    32fe:	0015f893          	andi	a7,a1,1
    3302:	57fd                	li	a5,-1
    3304:	fc0886e3          	beqz	a7,32d0 <find_entry+0x5e>
    3308:	8989                	andi	a1,a1,2
    330a:	57fd                	li	a5,-1
    330c:	f1f1                	bnez	a1,32d0 <find_entry+0x5e>
    330e:	0ff87793          	andi	a5,a6,255
    3312:	00c86b63          	bltu	a6,a2,3328 <find_entry+0xb6>
    3316:	0ff37793          	andi	a5,t1,255
    331a:	00c36763          	bltu	t1,a2,3328 <find_entry+0xb6>
    331e:	57fd                	li	a5,-1
    3320:	fac778e3          	bgeu	a4,a2,32d0 <find_entry+0x5e>
    3324:	0ff77793          	andi	a5,a4,255
    3328:	4761                	li	a4,24
    332a:	02e78733          	mul	a4,a5,a4
    332e:	96ba                	add	a3,a3,a4
    3330:	0006a623          	sw	zero,12(a3)
    3334:	cd01                	beqz	a0,334c <find_entry+0xda>
    3336:	3110                	lbu	a2,1(a0)
    3338:	2118                	lbu	a4,0(a0)
    333a:	0622                	slli	a2,a2,0x8
    333c:	8e59                	or	a2,a2,a4
    333e:	2138                	lbu	a4,2(a0)
    3340:	0742                	slli	a4,a4,0x10
    3342:	8e59                	or	a2,a2,a4
    3344:	3138                	lbu	a4,3(a0)
    3346:	0762                	slli	a4,a4,0x18
    3348:	8f51                	or	a4,a4,a2
    334a:	c298                	sw	a4,0(a3)
    334c:	00068823          	sb	zero,16(a3)
    3350:	a80d                	j	3382 <find_entry+0x110>
    3352:	047e1463          	bne	t3,t2,339a <find_entry+0x128>
    3356:	c90d                	beqz	a0,3388 <find_entry+0x116>
    3358:	00154e83          	lbu	t4,1(a0)
    335c:	00054e03          	lbu	t3,0(a0)
    3360:	0ea2                	slli	t4,t4,0x8
    3362:	01ceeeb3          	or	t4,t4,t3
    3366:	00254e03          	lbu	t3,2(a0)
    336a:	0e42                	slli	t3,t3,0x10
    336c:	01de6eb3          	or	t4,t3,t4
    3370:	00354e03          	lbu	t3,3(a0)
    3374:	0e62                	slli	t3,t3,0x18
    3376:	01de6e33          	or	t3,t3,t4
    337a:	0008ae83          	lw	t4,0(a7)
    337e:	01de1563          	bne	t3,t4,3388 <find_entry+0x116>
    3382:	8af18e23          	sb	a5,-1860(gp) # 200000dc <etharp_cached_entry>
    3386:	b799                	j	32cc <find_entry+0x5a>
    3388:	0108c883          	lbu	a7,16(a7)
    338c:	f7e8e2e3          	bltu	a7,t5,32f0 <find_entry+0x7e>
    3390:	01879713          	slli	a4,a5,0x18
    3394:	8761                	srai	a4,a4,0x18
    3396:	8f46                	mv	t5,a7
    3398:	bfa1                	j	32f0 <find_entry+0x7e>
    339a:	f48e1be3          	bne	t3,s0,32f0 <find_entry+0x7e>
    339e:	c515                	beqz	a0,33ca <find_entry+0x158>
    33a0:	00154e83          	lbu	t4,1(a0)
    33a4:	00054e03          	lbu	t3,0(a0)
    33a8:	0ea2                	slli	t4,t4,0x8
    33aa:	01ceeeb3          	or	t4,t4,t3
    33ae:	00254e03          	lbu	t3,2(a0)
    33b2:	0e42                	slli	t3,t3,0x10
    33b4:	01de6eb3          	or	t4,t3,t4
    33b8:	00354e03          	lbu	t3,3(a0)
    33bc:	0e62                	slli	t3,t3,0x18
    33be:	01de6e33          	or	t3,t3,t4
    33c2:	0008ae83          	lw	t4,0(a7)
    33c6:	fbde0ee3          	beq	t3,t4,3382 <find_entry+0x110>
    33ca:	0108c883          	lbu	a7,16(a7)
    33ce:	f3f8e1e3          	bltu	a7,t6,32f0 <find_entry+0x7e>
    33d2:	01879313          	slli	t1,a5,0x18
    33d6:	41835313          	srai	t1,t1,0x18
    33da:	8fc6                	mv	t6,a7
    33dc:	bf11                	j	32f0 <find_entry+0x7e>
    33de:	883a                	mv	a6,a4
    33e0:	833a                	mv	t1,a4
    33e2:	4f81                	li	t6,0
    33e4:	4f01                	li	t5,0
    33e6:	4781                	li	a5,0
    33e8:	42e1                	li	t0,24
    33ea:	4385                	li	t2,1
    33ec:	4409                	li	s0,2
    33ee:	b721                	j	32f6 <find_entry+0x84>

000033f0 <update_arp_entry>:
update_arp_entry():
    33f0:	e27fc2ef          	jal	t0,216 <__riscv_save_4>
    33f4:	3198                	lbu	a4,1(a1)
    33f6:	219c                	lbu	a5,0(a1)
    33f8:	0722                	slli	a4,a4,0x8
    33fa:	8f5d                	or	a4,a4,a5
    33fc:	21bc                	lbu	a5,2(a1)
    33fe:	07c2                	slli	a5,a5,0x10
    3400:	8f5d                	or	a4,a4,a5
    3402:	31bc                	lbu	a5,3(a1)
    3404:	07e2                	slli	a5,a5,0x18
    3406:	8fd9                	or	a5,a5,a4
    3408:	4158                	lw	a4,4(a0)
    340a:	00f71963          	bne	a4,a5,341c <update_arp_entry+0x2c>
    340e:	4505                	li	a0,1
    3410:	80aff0ef          	jal	ra,241a <IPConflictHandle>
    3414:	57d9                	li	a5,-10
    3416:	853e                	mv	a0,a5
    3418:	e33fc06f          	j	24a <__riscv_restore_4>
    341c:	dfe5                	beqz	a5,3414 <update_arp_entry+0x24>
    341e:	842e                	mv	s0,a1
    3420:	892a                	mv	s2,a0
    3422:	85aa                	mv	a1,a0
    3424:	8522                	mv	a0,s0
    3426:	89b2                	mv	s3,a2
    3428:	8a36                	mv	s4,a3
    342a:	44d000ef          	jal	ra,4076 <ip_addr_isbroadcast>
    342e:	f17d                	bnez	a0,3414 <update_arp_entry+0x24>
    3430:	301c                	lbu	a5,1(s0)
    3432:	2004                	lbu	s1,0(s0)
    3434:	f0000537          	lui	a0,0xf0000
    3438:	07a2                	slli	a5,a5,0x8
    343a:	8fc5                	or	a5,a5,s1
    343c:	2024                	lbu	s1,2(s0)
    343e:	04c2                	slli	s1,s1,0x10
    3440:	8fc5                	or	a5,a5,s1
    3442:	3024                	lbu	s1,3(s0)
    3444:	04e2                	slli	s1,s1,0x18
    3446:	8cdd                	or	s1,s1,a5
    3448:	7ac000ef          	jal	ra,3bf4 <ntohl>
    344c:	8ce9                	and	s1,s1,a0
    344e:	e0000537          	lui	a0,0xe0000
    3452:	7a2000ef          	jal	ra,3bf4 <ntohl>
    3456:	faa48fe3          	beq	s1,a0,3414 <update_arp_entry+0x24>
    345a:	85d2                	mv	a1,s4
    345c:	8522                	mv	a0,s0
    345e:	e15ff0ef          	jal	ra,3272 <find_entry>
    3462:	87aa                	mv	a5,a0
    3464:	fa0549e3          	bltz	a0,3416 <update_arp_entry+0x26>
    3468:	47e1                	li	a5,24
    346a:	02f507b3          	mul	a5,a0,a5
    346e:	8201a503          	lw	a0,-2016(gp) # 20000040 <arp_table>
    3472:	953e                	add	a0,a0,a5
    3474:	4789                	li	a5,2
    3476:	c55c                	sw	a5,12(a0)
    3478:	01252a23          	sw	s2,20(a0) # e0000014 <_eusrstack+0xbfff0014>
    347c:	00598793          	addi	a5,s3,5
    3480:	00950713          	addi	a4,a0,9
    3484:	2394                	lbu	a3,0(a5)
    3486:	177d                	addi	a4,a4,-1
    3488:	b314                	sb	a3,1(a4)
    348a:	fff78693          	addi	a3,a5,-1
    348e:	00f99663          	bne	s3,a5,349a <update_arp_entry+0xaa>
    3492:	00050823          	sb	zero,16(a0)
    3496:	4781                	li	a5,0
    3498:	bfbd                	j	3416 <update_arp_entry+0x26>
    349a:	87b6                	mv	a5,a3
    349c:	b7e5                	j	3484 <update_arp_entry+0x94>

0000349e <etharp_tmr>:
etharp_tmr():
    349e:	200067b7          	lui	a5,0x20006
    34a2:	25c7a503          	lw	a0,604(a5) # 2000625c <WCHCfg+0xc>
    34a6:	8201a803          	lw	a6,-2016(gp) # 20000040 <arp_table>
    34aa:	4701                	li	a4,0
    34ac:	48e1                	li	a7,24
    34ae:	4309                	li	t1,2
    34b0:	4605                	li	a2,1
    34b2:	0ef00e13          	li	t3,239
    34b6:	00a76363          	bltu	a4,a0,34bc <etharp_tmr+0x1e>
    34ba:	8082                	ret
    34bc:	031706b3          	mul	a3,a4,a7
    34c0:	96c2                	add	a3,a3,a6
    34c2:	2a9c                	lbu	a5,16(a3)
    34c4:	46cc                	lw	a1,12(a3)
    34c6:	0785                	addi	a5,a5,1
    34c8:	0ff7f793          	andi	a5,a5,255
    34cc:	aa9c                	sb	a5,16(a3)
    34ce:	00659863          	bne	a1,t1,34de <etharp_tmr+0x40>
    34d2:	00fe6a63          	bltu	t3,a5,34e6 <etharp_tmr+0x48>
    34d6:	0705                	addi	a4,a4,1
    34d8:	0ff77713          	andi	a4,a4,255
    34dc:	bfe9                	j	34b6 <etharp_tmr+0x18>
    34de:	fec59ce3          	bne	a1,a2,34d6 <etharp_tmr+0x38>
    34e2:	fef67ae3          	bgeu	a2,a5,34d6 <etharp_tmr+0x38>
    34e6:	0006a623          	sw	zero,12(a3)
    34ea:	b7f5                	j	34d6 <etharp_tmr+0x38>

000034ec <etharp_ip_input>:
etharp_ip_input():
    34ec:	cd21                	beqz	a0,3544 <etharp_ip_input+0x58>
    34ee:	d43fc2ef          	jal	t0,230 <__riscv_save_0>
    34f2:	41c4                	lw	s1,4(a1)
    34f4:	842a                	mv	s0,a0
    34f6:	34dc                	lbu	a5,13(s1)
    34f8:	24c8                	lbu	a0,12(s1)
    34fa:	07a2                	slli	a5,a5,0x8
    34fc:	8d5d                	or	a0,a0,a5
    34fe:	6b6000ef          	jal	ra,3bb4 <htons>
    3502:	67a1                	lui	a5,0x8
    3504:	10078793          	addi	a5,a5,256 # 8100 <udp_input+0x1ec>
    3508:	01248593          	addi	a1,s1,18
    350c:	00f50463          	beq	a0,a5,3514 <etharp_ip_input+0x28>
    3510:	00e48593          	addi	a1,s1,14
    3514:	35d8                	lbu	a4,13(a1)
    3516:	25dc                	lbu	a5,12(a1)
    3518:	0722                	slli	a4,a4,0x8
    351a:	8f5d                	or	a4,a4,a5
    351c:	25fc                	lbu	a5,14(a1)
    351e:	07c2                	slli	a5,a5,0x10
    3520:	8f5d                	or	a4,a4,a5
    3522:	35fc                	lbu	a5,15(a1)
    3524:	07e2                	slli	a5,a5,0x18
    3526:	8fd9                	or	a5,a5,a4
    3528:	4058                	lw	a4,4(s0)
    352a:	8fb9                	xor	a5,a5,a4
    352c:	4418                	lw	a4,8(s0)
    352e:	8ff9                	and	a5,a5,a4
    3530:	eb81                	bnez	a5,3540 <etharp_ip_input+0x54>
    3532:	4681                	li	a3,0
    3534:	00648613          	addi	a2,s1,6
    3538:	05b1                	addi	a1,a1,12
    353a:	8522                	mv	a0,s0
    353c:	eb5ff0ef          	jal	ra,33f0 <update_arp_entry>
    3540:	d15fc06f          	j	254 <__riscv_restore_0>
    3544:	8082                	ret

00003546 <etharp_arp_input>:
etharp_arp_input():
    3546:	16050363          	beqz	a0,36ac <etharp_arp_input+0x166>
    354a:	ccdfc2ef          	jal	t0,216 <__riscv_save_4>
    354e:	263a                	lhu	a4,10(a2)
    3550:	02900793          	li	a5,41
    3554:	1141                	addi	sp,sp,-16
    3556:	89b2                	mv	s3,a2
    3558:	8a2e                	mv	s4,a1
    355a:	84aa                	mv	s1,a0
    355c:	00e7e863          	bltu	a5,a4,356c <etharp_arp_input+0x26>
    3560:	854e                	mv	a0,s3
    3562:	22f010ef          	jal	ra,4f90 <pbuf_free>
    3566:	0141                	addi	sp,sp,16
    3568:	ce3fc06f          	j	24a <__riscv_restore_4>
    356c:	00462903          	lw	s2,4(a2)
    3570:	00d94783          	lbu	a5,13(s2)
    3574:	00c94503          	lbu	a0,12(s2)
    3578:	01290413          	addi	s0,s2,18
    357c:	07a2                	slli	a5,a5,0x8
    357e:	8d5d                	or	a0,a0,a5
    3580:	2d15                	jal	3bb4 <htons>
    3582:	67a1                	lui	a5,0x8
    3584:	10078793          	addi	a5,a5,256 # 8100 <udp_input+0x1ec>
    3588:	00f50463          	beq	a0,a5,3590 <etharp_arp_input+0x4a>
    358c:	00e90413          	addi	s0,s2,14
    3590:	00144a83          	lbu	s5,1(s0)
    3594:	201c                	lbu	a5,0(s0)
    3596:	4505                	li	a0,1
    3598:	0aa2                	slli	s5,s5,0x8
    359a:	00faeab3          	or	s5,s5,a5
    359e:	2d19                	jal	3bb4 <htons>
    35a0:	fcaa90e3          	bne	s5,a0,3560 <etharp_arp_input+0x1a>
    35a4:	00544a83          	lbu	s5,5(s0)
    35a8:	205c                	lbu	a5,4(s0)
    35aa:	60400513          	li	a0,1540
    35ae:	0aa2                	slli	s5,s5,0x8
    35b0:	00faeab3          	or	s5,s5,a5
    35b4:	2501                	jal	3bb4 <htons>
    35b6:	faaa95e3          	bne	s5,a0,3560 <etharp_arp_input+0x1a>
    35ba:	00344a83          	lbu	s5,3(s0)
    35be:	203c                	lbu	a5,2(s0)
    35c0:	6505                	lui	a0,0x1
    35c2:	0aa2                	slli	s5,s5,0x8
    35c4:	80050513          	addi	a0,a0,-2048 # 800 <__stack_size>
    35c8:	00faeab3          	or	s5,s5,a5
    35cc:	23e5                	jal	3bb4 <htons>
    35ce:	f8aa99e3          	bne	s5,a0,3560 <etharp_arp_input+0x1a>
    35d2:	00e40a93          	addi	s5,s0,14
    35d6:	4611                	li	a2,4
    35d8:	85d6                	mv	a1,s5
    35da:	0068                	addi	a0,sp,12
    35dc:	087050ef          	jal	ra,8e62 <memcpy>
    35e0:	40d4                	lw	a3,4(s1)
    35e2:	00840613          	addi	a2,s0,8
    35e6:	c2ad                	beqz	a3,3648 <etharp_arp_input+0x102>
    35e8:	3c18                	lbu	a4,25(s0)
    35ea:	2c1c                	lbu	a5,24(s0)
    35ec:	0722                	slli	a4,a4,0x8
    35ee:	8f5d                	or	a4,a4,a5
    35f0:	2c3c                	lbu	a5,26(s0)
    35f2:	07c2                	slli	a5,a5,0x10
    35f4:	8f5d                	or	a4,a4,a5
    35f6:	3c3c                	lbu	a5,27(s0)
    35f8:	07e2                	slli	a5,a5,0x18
    35fa:	8fd9                	or	a5,a5,a4
    35fc:	04f69663          	bne	a3,a5,3648 <etharp_arp_input+0x102>
    3600:	4685                	li	a3,1
    3602:	006c                	addi	a1,sp,12
    3604:	8526                	mv	a0,s1
    3606:	debff0ef          	jal	ra,33f0 <update_arp_entry>
    360a:	4b05                	li	s6,1
    360c:	307c                	lbu	a5,7(s0)
    360e:	2068                	lbu	a0,6(s0)
    3610:	07a2                	slli	a5,a5,0x8
    3612:	8d5d                	or	a0,a0,a5
    3614:	2345                	jal	3bb4 <htons>
    3616:	4785                	li	a5,1
    3618:	02f50f63          	beq	a0,a5,3656 <etharp_arp_input+0x110>
    361c:	4789                	li	a5,2
    361e:	f4f511e3          	bne	a0,a5,3560 <etharp_arp_input+0x1a>
    3622:	006c                	addi	a1,sp,12
    3624:	8526                	mv	a0,s1
    3626:	332010ef          	jal	ra,4958 <dhcp_arp_reply>
    362a:	200067b7          	lui	a5,0x20006
    362e:	1947a703          	lw	a4,404(a5) # 20006194 <DHCPCtrl>
    3632:	f20707e3          	beqz	a4,3560 <etharp_arp_input+0x1a>
    3636:	19478793          	addi	a5,a5,404
    363a:	47dc                	lw	a5,12(a5)
    363c:	f20782e3          	beqz	a5,3560 <etharp_arp_input+0x1a>
    3640:	006c                	addi	a1,sp,12
    3642:	8526                	mv	a0,s1
    3644:	9782                	jalr	a5
    3646:	bf29                	j	3560 <etharp_arp_input+0x1a>
    3648:	4681                	li	a3,0
    364a:	006c                	addi	a1,sp,12
    364c:	8526                	mv	a0,s1
    364e:	da3ff0ef          	jal	ra,33f0 <update_arp_entry>
    3652:	4b01                	li	s6,0
    3654:	bf65                	j	360c <etharp_arp_input+0xc6>
    3656:	f00b05e3          	beqz	s6,3560 <etharp_arp_input+0x1a>
    365a:	4509                	li	a0,2
    365c:	2ba1                	jal	3bb4 <htons>
    365e:	a068                	sb	a0,6(s0)
    3660:	8121                	srli	a0,a0,0x8
    3662:	b068                	sb	a0,7(s0)
    3664:	4611                	li	a2,4
    3666:	85d6                	mv	a1,s5
    3668:	01840513          	addi	a0,s0,24
    366c:	7f6050ef          	jal	ra,8e62 <memcpy>
    3670:	4611                	li	a2,4
    3672:	00448593          	addi	a1,s1,4
    3676:	8556                	mv	a0,s5
    3678:	7ea050ef          	jal	ra,8e62 <memcpy>
    367c:	0435                	addi	s0,s0,13
    367e:	0915                	addi	s2,s2,5
    3680:	4795                	li	a5,5
    3682:	56fd                	li	a3,-1
    3684:	2018                	lbu	a4,0(s0)
    3686:	197d                	addi	s2,s2,-1
    3688:	147d                	addi	s0,s0,-1
    368a:	b438                	sb	a4,11(s0)
    368c:	00e900a3          	sb	a4,1(s2)
    3690:	00fa0733          	add	a4,s4,a5
    3694:	2318                	lbu	a4,0(a4)
    3696:	17fd                	addi	a5,a5,-1
    3698:	b018                	sb	a4,1(s0)
    369a:	00e903a3          	sb	a4,7(s2)
    369e:	fed793e3          	bne	a5,a3,3684 <etharp_arp_input+0x13e>
    36a2:	4c9c                	lw	a5,24(s1)
    36a4:	85ce                	mv	a1,s3
    36a6:	8526                	mv	a0,s1
    36a8:	9782                	jalr	a5
    36aa:	bd5d                	j	3560 <etharp_arp_input+0x1a>
    36ac:	8082                	ret

000036ae <etharp_request>:
etharp_request():
    36ae:	b69fc2ef          	jal	t0,216 <__riscv_save_4>
    36b2:	892a                	mv	s2,a0
    36b4:	89ae                	mv	s3,a1
    36b6:	4601                	li	a2,0
    36b8:	02a00593          	li	a1,42
    36bc:	450d                	li	a0,3
    36be:	121010ef          	jal	ra,4fde <pbuf_alloc>
    36c2:	547d                	li	s0,-1
    36c4:	c94d                	beqz	a0,3776 <etharp_request+0xc8>
    36c6:	4140                	lw	s0,4(a0)
    36c8:	84aa                	mv	s1,a0
    36ca:	4505                	li	a0,1
    36cc:	21e5                	jal	3bb4 <htons>
    36ce:	a848                	sb	a0,20(s0)
    36d0:	8121                	srli	a0,a0,0x8
    36d2:	b848                	sb	a0,21(s0)
    36d4:	02e90693          	addi	a3,s2,46
    36d8:	00540793          	addi	a5,s0,5
    36dc:	4715                	li	a4,5
    36de:	84018593          	addi	a1,gp,-1984 # 20000060 <ethzero>
    36e2:	83818613          	addi	a2,gp,-1992 # 20000058 <ethbroadcast>
    36e6:	557d                	li	a0,-1
    36e8:	0006c803          	lbu	a6,0(a3)
    36ec:	17fd                	addi	a5,a5,-1
    36ee:	16fd                	addi	a3,a3,-1
    36f0:	01078ba3          	sb	a6,23(a5)
    36f4:	00e58833          	add	a6,a1,a4
    36f8:	00084803          	lbu	a6,0(a6)
    36fc:	030780a3          	sb	a6,33(a5)
    3700:	00e60833          	add	a6,a2,a4
    3704:	00084803          	lbu	a6,0(a6)
    3708:	177d                	addi	a4,a4,-1
    370a:	010780a3          	sb	a6,1(a5)
    370e:	0016c803          	lbu	a6,1(a3)
    3712:	010783a3          	sb	a6,7(a5)
    3716:	fca719e3          	bne	a4,a0,36e8 <etharp_request+0x3a>
    371a:	4611                	li	a2,4
    371c:	00490593          	addi	a1,s2,4
    3720:	01c40513          	addi	a0,s0,28
    3724:	73e050ef          	jal	ra,8e62 <memcpy>
    3728:	85ce                	mv	a1,s3
    372a:	4611                	li	a2,4
    372c:	02640513          	addi	a0,s0,38
    3730:	732050ef          	jal	ra,8e62 <memcpy>
    3734:	4505                	li	a0,1
    3736:	29bd                	jal	3bb4 <htons>
    3738:	a468                	sb	a0,14(s0)
    373a:	6985                	lui	s3,0x1
    373c:	8121                	srli	a0,a0,0x8
    373e:	b468                	sb	a0,15(s0)
    3740:	80098513          	addi	a0,s3,-2048 # 800 <__stack_size>
    3744:	2985                	jal	3bb4 <htons>
    3746:	a808                	sb	a0,16(s0)
    3748:	8121                	srli	a0,a0,0x8
    374a:	b808                	sb	a0,17(s0)
    374c:	60400513          	li	a0,1540
    3750:	2195                	jal	3bb4 <htons>
    3752:	a828                	sb	a0,18(s0)
    3754:	8121                	srli	a0,a0,0x8
    3756:	b828                	sb	a0,19(s0)
    3758:	80698513          	addi	a0,s3,-2042
    375c:	29a1                	jal	3bb4 <htons>
    375e:	01892783          	lw	a5,24(s2)
    3762:	a448                	sb	a0,12(s0)
    3764:	8121                	srli	a0,a0,0x8
    3766:	b448                	sb	a0,13(s0)
    3768:	85a6                	mv	a1,s1
    376a:	854a                	mv	a0,s2
    376c:	9782                	jalr	a5
    376e:	842a                	mv	s0,a0
    3770:	8526                	mv	a0,s1
    3772:	01f010ef          	jal	ra,4f90 <pbuf_free>
    3776:	8522                	mv	a0,s0
    3778:	ad3fc06f          	j	24a <__riscv_restore_4>

0000377c <etharp_query>:
etharp_query():
    377c:	a9bfc2ef          	jal	t0,216 <__riscv_save_4>
    3780:	842e                	mv	s0,a1
    3782:	892a                	mv	s2,a0
    3784:	85aa                	mv	a1,a0
    3786:	8522                	mv	a0,s0
    3788:	89b2                	mv	s3,a2
    378a:	0ed000ef          	jal	ra,4076 <ip_addr_isbroadcast>
    378e:	c501                	beqz	a0,3796 <etharp_query+0x1a>
    3790:	5559                	li	a0,-10
    3792:	ab9fc06f          	j	24a <__riscv_restore_4>
    3796:	301c                	lbu	a5,1(s0)
    3798:	2004                	lbu	s1,0(s0)
    379a:	f0000537          	lui	a0,0xf0000
    379e:	07a2                	slli	a5,a5,0x8
    37a0:	8fc5                	or	a5,a5,s1
    37a2:	2024                	lbu	s1,2(s0)
    37a4:	04c2                	slli	s1,s1,0x10
    37a6:	8fc5                	or	a5,a5,s1
    37a8:	3024                	lbu	s1,3(s0)
    37aa:	04e2                	slli	s1,s1,0x18
    37ac:	8cdd                	or	s1,s1,a5
    37ae:	2199                	jal	3bf4 <ntohl>
    37b0:	8ce9                	and	s1,s1,a0
    37b2:	e0000537          	lui	a0,0xe0000
    37b6:	293d                	jal	3bf4 <ntohl>
    37b8:	fca48ce3          	beq	s1,a0,3790 <etharp_query+0x14>
    37bc:	3018                	lbu	a4,1(s0)
    37be:	201c                	lbu	a5,0(s0)
    37c0:	0722                	slli	a4,a4,0x8
    37c2:	8f5d                	or	a4,a4,a5
    37c4:	203c                	lbu	a5,2(s0)
    37c6:	07c2                	slli	a5,a5,0x10
    37c8:	8f5d                	or	a4,a4,a5
    37ca:	303c                	lbu	a5,3(s0)
    37cc:	07e2                	slli	a5,a5,0x18
    37ce:	8fd9                	or	a5,a5,a4
    37d0:	d3e1                	beqz	a5,3790 <etharp_query+0x14>
    37d2:	4585                	li	a1,1
    37d4:	8522                	mv	a0,s0
    37d6:	a9dff0ef          	jal	ra,3272 <find_entry>
    37da:	fa054ce3          	bltz	a0,3792 <etharp_query+0x16>
    37de:	47e1                	li	a5,24
    37e0:	02f504b3          	mul	s1,a0,a5
    37e4:	8201a703          	lw	a4,-2016(gp) # 20000040 <arp_table>
    37e8:	82018a13          	addi	s4,gp,-2016 # 20000040 <arp_table>
    37ec:	4785                	li	a5,1
    37ee:	9726                	add	a4,a4,s1
    37f0:	4754                	lw	a3,12(a4)
    37f2:	ea99                	bnez	a3,3808 <etharp_query+0x8c>
    37f4:	c75c                	sw	a5,12(a4)
    37f6:	a71ff0ef          	jal	ra,3266 <LwipArpCheck>
    37fa:	85a2                	mv	a1,s0
    37fc:	854a                	mv	a0,s2
    37fe:	eb1ff0ef          	jal	ra,36ae <etharp_request>
    3802:	f80988e3          	beqz	s3,3792 <etharp_query+0x16>
    3806:	a031                	j	3812 <etharp_query+0x96>
    3808:	fef687e3          	beq	a3,a5,37f6 <etharp_query+0x7a>
    380c:	557d                	li	a0,-1
    380e:	fe0984e3          	beqz	s3,37f6 <etharp_query+0x7a>
    3812:	000a2783          	lw	a5,0(s4)
    3816:	4709                	li	a4,2
    3818:	97a6                	add	a5,a5,s1
    381a:	47d4                	lw	a3,12(a5)
    381c:	f6e69be3          	bne	a3,a4,3792 <etharp_query+0x16>
    3820:	0049a403          	lw	s0,4(s3)
    3824:	00978713          	addi	a4,a5,9
    3828:	02e90613          	addi	a2,s2,46
    382c:	00540693          	addi	a3,s0,5
    3830:	078d                	addi	a5,a5,3
    3832:	230c                	lbu	a1,0(a4)
    3834:	177d                	addi	a4,a4,-1
    3836:	16fd                	addi	a3,a3,-1
    3838:	b28c                	sb	a1,1(a3)
    383a:	220c                	lbu	a1,0(a2)
    383c:	167d                	addi	a2,a2,-1
    383e:	b2ec                	sb	a1,7(a3)
    3840:	fef719e3          	bne	a4,a5,3832 <etharp_query+0xb6>
    3844:	6505                	lui	a0,0x1
    3846:	80050513          	addi	a0,a0,-2048 # 800 <__stack_size>
    384a:	26ad                	jal	3bb4 <htons>
    384c:	01892783          	lw	a5,24(s2)
    3850:	a448                	sb	a0,12(s0)
    3852:	8121                	srli	a0,a0,0x8
    3854:	b448                	sb	a0,13(s0)
    3856:	85ce                	mv	a1,s3
    3858:	854a                	mv	a0,s2
    385a:	9782                	jalr	a5
    385c:	bf1d                	j	3792 <etharp_query+0x16>

0000385e <etharp_output>:
etharp_output():
    385e:	9b9fc2ef          	jal	t0,216 <__riscv_save_4>
    3862:	84ae                	mv	s1,a1
    3864:	1141                	addi	sp,sp,-16
    3866:	892a                	mv	s2,a0
    3868:	45b9                	li	a1,14
    386a:	8526                	mv	a0,s1
    386c:	8432                	mv	s0,a2
    386e:	6b4010ef          	jal	ra,4f22 <pbuf_header>
    3872:	10051e63          	bnez	a0,398e <etharp_output+0x130>
    3876:	85ca                	mv	a1,s2
    3878:	8522                	mv	a0,s0
    387a:	7fc000ef          	jal	ra,4076 <ip_addr_isbroadcast>
    387e:	10051563          	bnez	a0,3988 <etharp_output+0x12a>
    3882:	301c                	lbu	a5,1(s0)
    3884:	00044983          	lbu	s3,0(s0)
    3888:	f0000537          	lui	a0,0xf0000
    388c:	07a2                	slli	a5,a5,0x8
    388e:	0137e7b3          	or	a5,a5,s3
    3892:	00244983          	lbu	s3,2(s0)
    3896:	09c2                	slli	s3,s3,0x10
    3898:	00f9e7b3          	or	a5,s3,a5
    389c:	00344983          	lbu	s3,3(s0)
    38a0:	09e2                	slli	s3,s3,0x18
    38a2:	00f9e9b3          	or	s3,s3,a5
    38a6:	26b9                	jal	3bf4 <ntohl>
    38a8:	00a9f9b3          	and	s3,s3,a0
    38ac:	e0000537          	lui	a0,0xe0000
    38b0:	2691                	jal	3bf4 <ntohl>
    38b2:	2010                	lbu	a2,0(s0)
    38b4:	3014                	lbu	a3,1(s0)
    38b6:	2038                	lbu	a4,2(s0)
    38b8:	303c                	lbu	a5,3(s0)
    38ba:	08a99c63          	bne	s3,a0,3952 <etharp_output+0xf4>
    38be:	00869513          	slli	a0,a3,0x8
    38c2:	8d51                	or	a0,a0,a2
    38c4:	0742                	slli	a4,a4,0x10
    38c6:	8d59                	or	a0,a0,a4
    38c8:	07e2                	slli	a5,a5,0x18
    38ca:	4585                	li	a1,1
    38cc:	846c                	sh	a1,8(sp)
    38ce:	8d5d                	or	a0,a0,a5
    38d0:	05e00593          	li	a1,94
    38d4:	854c                	sb	a1,10(sp)
    38d6:	2e39                	jal	3bf4 <ntohl>
    38d8:	8141                	srli	a0,a0,0x10
    38da:	07f57513          	andi	a0,a0,127
    38de:	85c8                	sb	a0,11(sp)
    38e0:	3008                	lbu	a0,1(s0)
    38e2:	201c                	lbu	a5,0(s0)
    38e4:	0522                	slli	a0,a0,0x8
    38e6:	8d5d                	or	a0,a0,a5
    38e8:	203c                	lbu	a5,2(s0)
    38ea:	07c2                	slli	a5,a5,0x10
    38ec:	8fc9                	or	a5,a5,a0
    38ee:	3028                	lbu	a0,3(s0)
    38f0:	0562                	slli	a0,a0,0x18
    38f2:	8d5d                	or	a0,a0,a5
    38f4:	2601                	jal	3bf4 <ntohl>
    38f6:	8121                	srli	a0,a0,0x8
    38f8:	8648                	sb	a0,12(sp)
    38fa:	3008                	lbu	a0,1(s0)
    38fc:	201c                	lbu	a5,0(s0)
    38fe:	0522                	slli	a0,a0,0x8
    3900:	8d5d                	or	a0,a0,a5
    3902:	203c                	lbu	a5,2(s0)
    3904:	07c2                	slli	a5,a5,0x10
    3906:	8fc9                	or	a5,a5,a0
    3908:	3028                	lbu	a0,3(s0)
    390a:	0562                	slli	a0,a0,0x18
    390c:	8d5d                	or	a0,a0,a5
    390e:	24dd                	jal	3bf4 <ntohl>
    3910:	86c8                	sb	a0,13(sp)
    3912:	0034                	addi	a3,sp,8
    3914:	40c0                	lw	s0,4(s1)
    3916:	4795                	li	a5,5
    3918:	567d                	li	a2,-1
    391a:	00540713          	addi	a4,s0,5
    391e:	00f685b3          	add	a1,a3,a5
    3922:	218c                	lbu	a1,0(a1)
    3924:	177d                	addi	a4,a4,-1
    3926:	b30c                	sb	a1,1(a4)
    3928:	00f905b3          	add	a1,s2,a5
    392c:	0295c583          	lbu	a1,41(a1)
    3930:	17fd                	addi	a5,a5,-1
    3932:	b36c                	sb	a1,7(a4)
    3934:	fec795e3          	bne	a5,a2,391e <etharp_output+0xc0>
    3938:	6505                	lui	a0,0x1
    393a:	80050513          	addi	a0,a0,-2048 # 800 <__stack_size>
    393e:	2c9d                	jal	3bb4 <htons>
    3940:	01892783          	lw	a5,24(s2)
    3944:	a448                	sb	a0,12(s0)
    3946:	8121                	srli	a0,a0,0x8
    3948:	b448                	sb	a0,13(s0)
    394a:	85a6                	mv	a1,s1
    394c:	854a                	mv	a0,s2
    394e:	9782                	jalr	a5
    3950:	a80d                	j	3982 <etharp_output+0x124>
    3952:	06a2                	slli	a3,a3,0x8
    3954:	8ed1                	or	a3,a3,a2
    3956:	0742                	slli	a4,a4,0x10
    3958:	8f55                	or	a4,a4,a3
    395a:	07e2                	slli	a5,a5,0x18
    395c:	8fd9                	or	a5,a5,a4
    395e:	00492703          	lw	a4,4(s2)
    3962:	8fb9                	xor	a5,a5,a4
    3964:	00892703          	lw	a4,8(s2)
    3968:	8ff9                	and	a5,a5,a4
    396a:	c799                	beqz	a5,3978 <etharp_output+0x11a>
    396c:	00c92783          	lw	a5,12(s2)
    3970:	5571                	li	a0,-4
    3972:	cb81                	beqz	a5,3982 <etharp_output+0x124>
    3974:	00c90413          	addi	s0,s2,12
    3978:	8626                	mv	a2,s1
    397a:	85a2                	mv	a1,s0
    397c:	854a                	mv	a0,s2
    397e:	dffff0ef          	jal	ra,377c <etharp_query>
    3982:	0141                	addi	sp,sp,16
    3984:	8c7fc06f          	j	24a <__riscv_restore_4>
    3988:	83818693          	addi	a3,gp,-1992 # 20000058 <ethbroadcast>
    398c:	b761                	j	3914 <etharp_output+0xb6>
    398e:	5579                	li	a0,-2
    3990:	bfcd                	j	3982 <etharp_output+0x124>

00003992 <ethernet_input>:
ethernet_input():
    3992:	89ffc2ef          	jal	t0,230 <__riscv_save_0>
    3996:	4144                	lw	s1,4(a0)
    3998:	842a                	mv	s0,a0
    399a:	892e                	mv	s2,a1
    399c:	34dc                	lbu	a5,13(s1)
    399e:	24c8                	lbu	a0,12(s1)
    39a0:	07a2                	slli	a5,a5,0x8
    39a2:	8d5d                	or	a0,a0,a5
    39a4:	2c01                	jal	3bb4 <htons>
    39a6:	67a1                	lui	a5,0x8
    39a8:	10078793          	addi	a5,a5,256 # 8100 <udp_input+0x1ec>
    39ac:	00f51763          	bne	a0,a5,39ba <ethernet_input+0x28>
    39b0:	389c                	lbu	a5,17(s1)
    39b2:	2888                	lbu	a0,16(s1)
    39b4:	07a2                	slli	a5,a5,0x8
    39b6:	8d5d                	or	a0,a0,a5
    39b8:	2af5                	jal	3bb4 <htons>
    39ba:	80050793          	addi	a5,a0,-2048
    39be:	cb91                	beqz	a5,39d2 <ethernet_input+0x40>
    39c0:	6785                	lui	a5,0x1
    39c2:	80678793          	addi	a5,a5,-2042 # 806 <__stack_size+0x6>
    39c6:	04f50263          	beq	a0,a5,3a0a <ethernet_input+0x78>
    39ca:	8522                	mv	a0,s0
    39cc:	5c4010ef          	jal	ra,4f90 <pbuf_free>
    39d0:	a815                	j	3a04 <ethernet_input+0x72>
    39d2:	85a2                	mv	a1,s0
    39d4:	854a                	mv	a0,s2
    39d6:	b17ff0ef          	jal	ra,34ec <etharp_ip_input>
    39da:	34dc                	lbu	a5,13(s1)
    39dc:	24c8                	lbu	a0,12(s1)
    39de:	07a2                	slli	a5,a5,0x8
    39e0:	8d5d                	or	a0,a0,a5
    39e2:	2ac9                	jal	3bb4 <htons>
    39e4:	67a1                	lui	a5,0x8
    39e6:	10078793          	addi	a5,a5,256 # 8100 <udp_input+0x1ec>
    39ea:	45b9                	li	a1,14
    39ec:	00f51363          	bne	a0,a5,39f2 <ethernet_input+0x60>
    39f0:	45c9                	li	a1,18
    39f2:	40b005b3          	neg	a1,a1
    39f6:	8522                	mv	a0,s0
    39f8:	52a010ef          	jal	ra,4f22 <pbuf_header>
    39fc:	f579                	bnez	a0,39ca <ethernet_input+0x38>
    39fe:	85ca                	mv	a1,s2
    3a00:	8522                	mv	a0,s0
    3a02:	24a9                	jal	3c4c <ip_input>
    3a04:	4501                	li	a0,0
    3a06:	84ffc06f          	j	254 <__riscv_restore_0>
    3a0a:	8622                	mv	a2,s0
    3a0c:	02990593          	addi	a1,s2,41
    3a10:	854a                	mv	a0,s2
    3a12:	b35ff0ef          	jal	ra,3546 <etharp_arp_input>
    3a16:	b7fd                	j	3a04 <ethernet_input+0x72>

00003a18 <ethernetif_init>:
ethernetif_init():
    3a18:	819fc2ef          	jal	t0,230 <__riscv_save_0>
    3a1c:	200067b7          	lui	a5,0x20006
    3a20:	1ac78793          	addi	a5,a5,428 # 200061ac <dhcp_host_name>
    3a24:	d15c                	sw	a5,36(a0)
    3a26:	06500793          	li	a5,101
    3a2a:	02f509a3          	sb	a5,51(a0)
    3a2e:	06e00793          	li	a5,110
    3a32:	02f50a23          	sb	a5,52(a0)
    3a36:	000047b7          	lui	a5,0x4
    3a3a:	85e78793          	addi	a5,a5,-1954 # 385e <etharp_output>
    3a3e:	c95c                	sw	a5,20(a0)
    3a40:	000047b7          	lui	a5,0x4
    3a44:	a7c78793          	addi	a5,a5,-1412 # 3a7c <low_level_output>
    3a48:	cd1c                	sw	a5,24(a0)
    3a4a:	200065b7          	lui	a1,0x20006
    3a4e:	4799                	li	a5,6
    3a50:	842a                	mv	s0,a0
    3a52:	02f50423          	sb	a5,40(a0)
    3a56:	00052e23          	sw	zero,28(a0)
    3a5a:	4619                	li	a2,6
    3a5c:	2a558593          	addi	a1,a1,677 # 200062a5 <WCHNetIf+0x29>
    3a60:	02950513          	addi	a0,a0,41
    3a64:	3fe050ef          	jal	ra,8e62 <memcpy>
    3a68:	5dc00793          	li	a5,1500
    3a6c:	b81e                	sh	a5,48(s0)
    3a6e:	03300793          	li	a5,51
    3a72:	02f40923          	sb	a5,50(s0)
    3a76:	4501                	li	a0,0
    3a78:	fdcfc06f          	j	254 <__riscv_restore_0>

00003a7c <low_level_output>:
low_level_output():
    3a7c:	fb4fc2ef          	jal	t0,230 <__riscv_save_0>
    3a80:	64b1                	lui	s1,0xc
    3a82:	842e                	mv	s0,a1
    3a84:	35148493          	addi	s1,s1,849 # c351 <_data_lma+0x6fd>
    3a88:	eecff0ef          	jal	ra,3174 <WCHNET_GetPHYStatus>
    3a8c:	8911                	andi	a0,a0,4
    3a8e:	cd15                	beqz	a0,3aca <low_level_output+0x4e>
    3a90:	14fd                	addi	s1,s1,-1
    3a92:	cc85                	beqz	s1,3aca <low_level_output+0x4e>
    3a94:	8a7fe0ef          	jal	ra,233a <getTxBuffAddr>
    3a98:	892a                	mv	s2,a0
    3a9a:	d57d                	beqz	a0,3a88 <low_level_output+0xc>
    3a9c:	87aa                	mv	a5,a0
    3a9e:	4481                	li	s1,0
    3aa0:	e801                	bnez	s0,3ab0 <low_level_output+0x34>
    3aa2:	85ca                	mv	a1,s2
    3aa4:	8526                	mv	a0,s1
    3aa6:	863fe0ef          	jal	ra,2308 <WCHNET_Tx>
    3aaa:	4501                	li	a0,0
    3aac:	fa8fc06f          	j	254 <__riscv_restore_0>
    3ab0:	2432                	lhu	a2,10(s0)
    3ab2:	404c                	lw	a1,4(s0)
    3ab4:	853e                	mv	a0,a5
    3ab6:	3ac050ef          	jal	ra,8e62 <memcpy>
    3aba:	243a                	lhu	a4,10(s0)
    3abc:	4000                	lw	s0,0(s0)
    3abe:	94ba                	add	s1,s1,a4
    3ac0:	04c2                	slli	s1,s1,0x10
    3ac2:	00e507b3          	add	a5,a0,a4
    3ac6:	80c1                	srli	s1,s1,0x10
    3ac8:	bfe1                	j	3aa0 <low_level_output+0x24>
    3aca:	5551                	li	a0,-12
    3acc:	b7c5                	j	3aac <low_level_output+0x30>

00003ace <ethernetif_input>:
ethernetif_input():
    3ace:	f48fc2ef          	jal	t0,216 <__riscv_save_4>
    3ad2:	200067b7          	lui	a5,0x20006
    3ad6:	2747a783          	lw	a5,628(a5) # 20006274 <WCHCfg+0x24>
    3ada:	89aa                	mv	s3,a0
    3adc:	8c018513          	addi	a0,gp,-1856 # 200000e0 <frame>
    3ae0:	8c018493          	addi	s1,gp,-1856 # 200000e0 <frame>
    3ae4:	9782                	jalr	a5
    3ae6:	408c                	lw	a1,0(s1)
    3ae8:	c9a9                	beqz	a1,3b3a <ethernetif_input+0x6c>
    3aea:	8b51c783          	lbu	a5,-1867(gp) # 200000d5 <phydata>
    3aee:	8c018413          	addi	s0,gp,-1856 # 200000e0 <frame>
    3af2:	0ff7f793          	andi	a5,a5,255
    3af6:	e781                	bnez	a5,3afe <ethernetif_input+0x30>
    3af8:	4785                	li	a5,1
    3afa:	8af18aa3          	sb	a5,-1867(gp) # 200000d5 <phydata>
    3afe:	05c2                	slli	a1,a1,0x10
    3b00:	460d                	li	a2,3
    3b02:	81c1                	srli	a1,a1,0x10
    3b04:	450d                	li	a0,3
    3b06:	4044                	lw	s1,4(s0)
    3b08:	4d6010ef          	jal	ra,4fde <pbuf_alloc>
    3b0c:	892a                	mv	s2,a0
    3b0e:	c515                	beqz	a0,3b3a <ethernetif_input+0x6c>
    3b10:	842a                	mv	s0,a0
    3b12:	2432                	lhu	a2,10(s0)
    3b14:	4048                	lw	a0,4(s0)
    3b16:	85a6                	mv	a1,s1
    3b18:	34a050ef          	jal	ra,8e62 <memcpy>
    3b1c:	243e                	lhu	a5,10(s0)
    3b1e:	4000                	lw	s0,0(s0)
    3b20:	94be                	add	s1,s1,a5
    3b22:	f865                	bnez	s0,3b12 <ethernetif_input+0x44>
    3b24:	fd2fe0ef          	jal	ra,22f6 <setRxBuffAddr>
    3b28:	0109a783          	lw	a5,16(s3)
    3b2c:	85ce                	mv	a1,s3
    3b2e:	854a                	mv	a0,s2
    3b30:	9782                	jalr	a5
    3b32:	c501                	beqz	a0,3b3a <ethernetif_input+0x6c>
    3b34:	854a                	mv	a0,s2
    3b36:	45a010ef          	jal	ra,4f90 <pbuf_free>
    3b3a:	f10fc06f          	j	24a <__riscv_restore_4>

00003b3e <wch_ethernetif_init>:
wch_ethernetif_init():
    3b3e:	ef2fc2ef          	jal	t0,230 <__riscv_save_0>
    3b42:	1141                	addi	sp,sp,-16
    3b44:	20006437          	lui	s0,0x20006
    3b48:	c202                	sw	zero,4(sp)
    3b4a:	c402                	sw	zero,8(sp)
    3b4c:	c602                	sw	zero,12(sp)
    3b4e:	78d000ef          	jal	ra,4ada <lwip_init>
    3b52:	27c40513          	addi	a0,s0,636 # 2000627c <WCHNetIf>
    3b56:	200065b7          	lui	a1,0x20006
    3b5a:	4619                	li	a2,6
    3b5c:	21858593          	addi	a1,a1,536 # 20006218 <NetInf+0xc>
    3b60:	02950513          	addi	a0,a0,41
    3b64:	2fe050ef          	jal	ra,8e62 <memcpy>
    3b68:	200067b7          	lui	a5,0x20006
    3b6c:	20c7a703          	lw	a4,524(a5) # 2000620c <NetInf>
    3b70:	20c78793          	addi	a5,a5,524
    3b74:	27c40513          	addi	a0,s0,636
    3b78:	c23a                	sw	a4,4(sp)
    3b7a:	4798                	lw	a4,8(a5)
    3b7c:	43dc                	lw	a5,4(a5)
    3b7e:	c43a                	sw	a4,8(sp)
    3b80:	c63e                	sw	a5,12(sp)
    3b82:	8e01a023          	sw	zero,-1824(gp) # 20000100 <netif_list>
    3b86:	8c01ae23          	sw	zero,-1828(gp) # 200000fc <netif_default>
    3b8a:	38a010ef          	jal	ra,4f14 <netif_set_default>
    3b8e:	00004837          	lui	a6,0x4
    3b92:	000047b7          	lui	a5,0x4
    3b96:	0074                	addi	a3,sp,12
    3b98:	0030                	addi	a2,sp,8
    3b9a:	004c                	addi	a1,sp,4
    3b9c:	99280813          	addi	a6,a6,-1646 # 3992 <ethernet_input>
    3ba0:	a1878793          	addi	a5,a5,-1512 # 3a18 <ethernetif_init>
    3ba4:	4701                	li	a4,0
    3ba6:	27c40513          	addi	a0,s0,636
    3baa:	310010ef          	jal	ra,4eba <netif_add>
    3bae:	0141                	addi	sp,sp,16
    3bb0:	ea4fc06f          	j	254 <__riscv_restore_0>

00003bb4 <htons>:
htons():
    3bb4:	00851793          	slli	a5,a0,0x8
    3bb8:	8121                	srli	a0,a0,0x8
    3bba:	8d5d                	or	a0,a0,a5
    3bbc:	0542                	slli	a0,a0,0x10
    3bbe:	8141                	srli	a0,a0,0x10
    3bc0:	8082                	ret

00003bc2 <ntohs>:
ntohs():
    3bc2:	00851793          	slli	a5,a0,0x8
    3bc6:	8121                	srli	a0,a0,0x8
    3bc8:	8d5d                	or	a0,a0,a5
    3bca:	0542                	slli	a0,a0,0x10
    3bcc:	8141                	srli	a0,a0,0x10
    3bce:	8082                	ret

00003bd0 <htonl>:
htonl():
    3bd0:	01855713          	srli	a4,a0,0x18
    3bd4:	01851793          	slli	a5,a0,0x18
    3bd8:	8fd9                	or	a5,a5,a4
    3bda:	00ff06b7          	lui	a3,0xff0
    3bde:	00851713          	slli	a4,a0,0x8
    3be2:	8f75                	and	a4,a4,a3
    3be4:	8fd9                	or	a5,a5,a4
    3be6:	6741                	lui	a4,0x10
    3be8:	f0070713          	addi	a4,a4,-256 # ff00 <_data_lma+0x42ac>
    3bec:	8121                	srli	a0,a0,0x8
    3bee:	8d79                	and	a0,a0,a4
    3bf0:	8d5d                	or	a0,a0,a5
    3bf2:	8082                	ret

00003bf4 <ntohl>:
ntohl():
    3bf4:	e3cfc2ef          	jal	t0,230 <__riscv_save_0>
    3bf8:	fd9ff0ef          	jal	ra,3bd0 <htonl>
    3bfc:	e58fc06f          	j	254 <__riscv_restore_0>

00003c00 <ip_route>:
ip_route():
    3c00:	e30fc2ef          	jal	t0,230 <__riscv_save_0>
    3c04:	8e01a403          	lw	s0,-1824(gp) # 20000100 <netif_list>
    3c08:	84aa                	mv	s1,a0
    3c0a:	ec01                	bnez	s0,3c22 <ip_route+0x22>
    3c0c:	8dc1a503          	lw	a0,-1828(gp) # 200000fc <netif_default>
    3c10:	c511                	beqz	a0,3c1c <ip_route+0x1c>
    3c12:	308010ef          	jal	ra,4f1a <netif_is_up>
    3c16:	c119                	beqz	a0,3c1c <ip_route+0x1c>
    3c18:	8dc1a403          	lw	s0,-1828(gp) # 200000fc <netif_default>
    3c1c:	8522                	mv	a0,s0
    3c1e:	e36fc06f          	j	254 <__riscv_restore_0>
    3c22:	8522                	mv	a0,s0
    3c24:	2f6010ef          	jal	ra,4f1a <netif_is_up>
    3c28:	c105                	beqz	a0,3c48 <ip_route+0x48>
    3c2a:	3098                	lbu	a4,1(s1)
    3c2c:	209c                	lbu	a5,0(s1)
    3c2e:	0722                	slli	a4,a4,0x8
    3c30:	8f5d                	or	a4,a4,a5
    3c32:	20bc                	lbu	a5,2(s1)
    3c34:	07c2                	slli	a5,a5,0x10
    3c36:	8f5d                	or	a4,a4,a5
    3c38:	30bc                	lbu	a5,3(s1)
    3c3a:	07e2                	slli	a5,a5,0x18
    3c3c:	8fd9                	or	a5,a5,a4
    3c3e:	4058                	lw	a4,4(s0)
    3c40:	8fb9                	xor	a5,a5,a4
    3c42:	4418                	lw	a4,8(s0)
    3c44:	8ff9                	and	a5,a5,a4
    3c46:	dbf9                	beqz	a5,3c1c <ip_route+0x1c>
    3c48:	4000                	lw	s0,0(s0)
    3c4a:	b7c1                	j	3c0a <ip_route+0xa>

00003c4c <ip_input>:
ip_input():
    3c4c:	dbcfc2ef          	jal	t0,208 <__riscv_save_10>
    3c50:	4140                	lw	s0,4(a0)
    3c52:	84aa                	mv	s1,a0
    3c54:	89ae                	mv	s3,a1
    3c56:	301c                	lbu	a5,1(s0)
    3c58:	2008                	lbu	a0,0(s0)
    3c5a:	07a2                	slli	a5,a5,0x8
    3c5c:	8d5d                	or	a0,a0,a5
    3c5e:	f65ff0ef          	jal	ra,3bc2 <ntohs>
    3c62:	8131                	srli	a0,a0,0xc
    3c64:	0542                	slli	a0,a0,0x10
    3c66:	8141                	srli	a0,a0,0x10
    3c68:	4791                	li	a5,4
    3c6a:	00f50663          	beq	a0,a5,3c76 <ip_input+0x2a>
    3c6e:	8526                	mv	a0,s1
    3c70:	320010ef          	jal	ra,4f90 <pbuf_free>
    3c74:	a431                	j	3e80 <ip_input+0x234>
    3c76:	301c                	lbu	a5,1(s0)
    3c78:	2008                	lbu	a0,0(s0)
    3c7a:	07a2                	slli	a5,a5,0x8
    3c7c:	8d5d                	or	a0,a0,a5
    3c7e:	f45ff0ef          	jal	ra,3bc2 <ntohs>
    3c82:	8119                	srli	a0,a0,0x6
    3c84:	303c                	lbu	a5,3(s0)
    3c86:	03c57a13          	andi	s4,a0,60
    3c8a:	2028                	lbu	a0,2(s0)
    3c8c:	07a2                	slli	a5,a5,0x8
    3c8e:	8d5d                	or	a0,a0,a5
    3c90:	f33ff0ef          	jal	ra,3bc2 <ntohs>
    3c94:	24be                	lhu	a5,10(s1)
    3c96:	892a                	mv	s2,a0
    3c98:	fd47ebe3          	bltu	a5,s4,3c6e <ip_input+0x22>
    3c9c:	249e                	lhu	a5,8(s1)
    3c9e:	fca7e8e3          	bltu	a5,a0,3c6e <ip_input+0x22>
    3ca2:	85d2                	mv	a1,s4
    3ca4:	8522                	mv	a0,s0
    3ca6:	375040ef          	jal	ra,881a <inet_chksum>
    3caa:	f171                	bnez	a0,3c6e <ip_input+0x22>
    3cac:	85ca                	mv	a1,s2
    3cae:	8526                	mv	a0,s1
    3cb0:	46e010ef          	jal	ra,511e <pbuf_realloc>
    3cb4:	f0000537          	lui	a0,0xf0000
    3cb8:	f3dff0ef          	jal	ra,3bf4 <ntohl>
    3cbc:	e0000537          	lui	a0,0xe0000
    3cc0:	f35ff0ef          	jal	ra,3bf4 <ntohl>
    3cc4:	894e                	mv	s2,s3
    3cc6:	4b05                	li	s6,1
    3cc8:	01040b93          	addi	s7,s0,16
    3ccc:	854a                	mv	a0,s2
    3cce:	24c010ef          	jal	ra,4f1a <netif_is_up>
    3cd2:	e511                	bnez	a0,3cde <ip_input+0x92>
    3cd4:	120b1363          	bnez	s6,3dfa <ip_input+0x1ae>
    3cd8:	00092903          	lw	s2,0(s2)
    3cdc:	a20d                	j	3dfe <ip_input+0x1b2>
    3cde:	00490793          	addi	a5,s2,4
    3ce2:	dbed                	beqz	a5,3cd4 <ip_input+0x88>
    3ce4:	00492683          	lw	a3,4(s2)
    3ce8:	d6f5                	beqz	a3,3cd4 <ip_input+0x88>
    3cea:	3818                	lbu	a4,17(s0)
    3cec:	281c                	lbu	a5,16(s0)
    3cee:	0722                	slli	a4,a4,0x8
    3cf0:	8f5d                	or	a4,a4,a5
    3cf2:	283c                	lbu	a5,18(s0)
    3cf4:	07c2                	slli	a5,a5,0x10
    3cf6:	8f5d                	or	a4,a4,a5
    3cf8:	383c                	lbu	a5,19(s0)
    3cfa:	07e2                	slli	a5,a5,0x18
    3cfc:	8fd9                	or	a5,a5,a4
    3cfe:	04f68263          	beq	a3,a5,3d42 <ip_input+0xf6>
    3d02:	85ca                	mv	a1,s2
    3d04:	855e                	mv	a0,s7
    3d06:	2e85                	jal	4076 <ip_addr_isbroadcast>
    3d08:	ed0d                	bnez	a0,3d42 <ip_input+0xf6>
    3d0a:	381c                	lbu	a5,17(s0)
    3d0c:	01044a83          	lbu	s5,16(s0)
    3d10:	f0000537          	lui	a0,0xf0000
    3d14:	07a2                	slli	a5,a5,0x8
    3d16:	0157e7b3          	or	a5,a5,s5
    3d1a:	01244a83          	lbu	s5,18(s0)
    3d1e:	0ac2                	slli	s5,s5,0x10
    3d20:	00fae7b3          	or	a5,s5,a5
    3d24:	01344a83          	lbu	s5,19(s0)
    3d28:	0ae2                	slli	s5,s5,0x18
    3d2a:	00faeab3          	or	s5,s5,a5
    3d2e:	ec7ff0ef          	jal	ra,3bf4 <ntohl>
    3d32:	00aafab3          	and	s5,s5,a0
    3d36:	e0000537          	lui	a0,0xe0000
    3d3a:	ebbff0ef          	jal	ra,3bf4 <ntohl>
    3d3e:	f8aa9be3          	bne	s5,a0,3cd4 <ip_input+0x88>
    3d42:	3458                	lbu	a4,13(s0)
    3d44:	245c                	lbu	a5,12(s0)
    3d46:	0722                	slli	a4,a4,0x8
    3d48:	8f5d                	or	a4,a4,a5
    3d4a:	247c                	lbu	a5,14(s0)
    3d4c:	07c2                	slli	a5,a5,0x10
    3d4e:	8f5d                	or	a4,a4,a5
    3d50:	347c                	lbu	a5,15(s0)
    3d52:	07e2                	slli	a5,a5,0x18
    3d54:	8fd9                	or	a5,a5,a4
    3d56:	c3b9                	beqz	a5,3d9c <ip_input+0x150>
    3d58:	85ce                	mv	a1,s3
    3d5a:	00c40513          	addi	a0,s0,12
    3d5e:	2e21                	jal	4076 <ip_addr_isbroadcast>
    3d60:	f00517e3          	bnez	a0,3c6e <ip_input+0x22>
    3d64:	345c                	lbu	a5,13(s0)
    3d66:	00c44a03          	lbu	s4,12(s0)
    3d6a:	f0000537          	lui	a0,0xf0000
    3d6e:	07a2                	slli	a5,a5,0x8
    3d70:	0147e7b3          	or	a5,a5,s4
    3d74:	00e44a03          	lbu	s4,14(s0)
    3d78:	0a42                	slli	s4,s4,0x10
    3d7a:	00fa67b3          	or	a5,s4,a5
    3d7e:	00f44a03          	lbu	s4,15(s0)
    3d82:	0a62                	slli	s4,s4,0x18
    3d84:	00fa6a33          	or	s4,s4,a5
    3d88:	e6dff0ef          	jal	ra,3bf4 <ntohl>
    3d8c:	00aa7a33          	and	s4,s4,a0
    3d90:	e0000537          	lui	a0,0xe0000
    3d94:	e61ff0ef          	jal	ra,3bf4 <ntohl>
    3d98:	ecaa0be3          	beq	s4,a0,3c6e <ip_input+0x22>
    3d9c:	ec0909e3          	beqz	s2,3c6e <ip_input+0x22>
    3da0:	00744903          	lbu	s2,7(s0)
    3da4:	2068                	lbu	a0,6(s0)
    3da6:	0922                	slli	s2,s2,0x8
    3da8:	00a96933          	or	s2,s2,a0
    3dac:	6511                	lui	a0,0x4
    3dae:	157d                	addi	a0,a0,-1
    3db0:	e05ff0ef          	jal	ra,3bb4 <htons>
    3db4:	00a97533          	and	a0,s2,a0
    3db8:	c511                	beqz	a0,3dc4 <ip_input+0x178>
    3dba:	8526                	mv	a0,s1
    3dbc:	26ed                	jal	41a6 <ip_reass>
    3dbe:	84aa                	mv	s1,a0
    3dc0:	c161                	beqz	a0,3e80 <ip_input+0x234>
    3dc2:	4140                	lw	s0,4(a0)
    3dc4:	85ce                	mv	a1,s3
    3dc6:	8526                	mv	a0,s1
    3dc8:	496010ef          	jal	ra,525e <raw_input>
    3dcc:	e955                	bnez	a0,3e80 <ip_input+0x234>
    3dce:	341c                	lbu	a5,9(s0)
    3dd0:	2408                	lbu	a0,8(s0)
    3dd2:	07a2                	slli	a5,a5,0x8
    3dd4:	8d5d                	or	a0,a0,a5
    3dd6:	dedff0ef          	jal	ra,3bc2 <ntohs>
    3dda:	0ff57513          	andi	a0,a0,255
    3dde:	4799                	li	a5,6
    3de0:	0af50363          	beq	a0,a5,3e86 <ip_input+0x23a>
    3de4:	47c5                	li	a5,17
    3de6:	08f50963          	beq	a0,a5,3e78 <ip_input+0x22c>
    3dea:	4785                	li	a5,1
    3dec:	0af51263          	bne	a0,a5,3e90 <ip_input+0x244>
    3df0:	85ce                	mv	a1,s3
    3df2:	8526                	mv	a0,s1
    3df4:	626040ef          	jal	ra,841a <icmp_input>
    3df8:	a061                	j	3e80 <ip_input+0x234>
    3dfa:	8e01a903          	lw	s2,-1824(gp) # 20000100 <netif_list>
    3dfe:	01391463          	bne	s2,s3,3e06 <ip_input+0x1ba>
    3e02:	00092903          	lw	s2,0(s2)
    3e06:	4b01                	li	s6,0
    3e08:	ec0912e3          	bnez	s2,3ccc <ip_input+0x80>
    3e0c:	341c                	lbu	a5,9(s0)
    3e0e:	2408                	lbu	a0,8(s0)
    3e10:	07a2                	slli	a5,a5,0x8
    3e12:	8d5d                	or	a0,a0,a5
    3e14:	dafff0ef          	jal	ra,3bc2 <ntohs>
    3e18:	0ff57513          	andi	a0,a0,255
    3e1c:	47c5                	li	a5,17
    3e1e:	00f51e63          	bne	a0,a5,3e3a <ip_input+0x1ee>
    3e22:	014407b3          	add	a5,s0,s4
    3e26:	23a8                	lbu	a0,2(a5)
    3e28:	33bc                	lbu	a5,3(a5)
    3e2a:	07a2                	slli	a5,a5,0x8
    3e2c:	8d5d                	or	a0,a0,a5
    3e2e:	d95ff0ef          	jal	ra,3bc2 <ntohs>
    3e32:	04400793          	li	a5,68
    3e36:	02f50d63          	beq	a0,a5,3e70 <ip_input+0x224>
    3e3a:	4a85                	li	s5,1
    3e3c:	341c                	lbu	a5,9(s0)
    3e3e:	2408                	lbu	a0,8(s0)
    3e40:	07a2                	slli	a5,a5,0x8
    3e42:	8d5d                	or	a0,a0,a5
    3e44:	d7fff0ef          	jal	ra,3bc2 <ntohs>
    3e48:	0ff57513          	andi	a0,a0,255
    3e4c:	47c5                	li	a5,17
    3e4e:	08f51963          	bne	a0,a5,3ee0 <ip_input+0x294>
    3e52:	9a22                	add	s4,s4,s0
    3e54:	003a4783          	lbu	a5,3(s4)
    3e58:	002a4503          	lbu	a0,2(s4)
    3e5c:	07a2                	slli	a5,a5,0x8
    3e5e:	8d5d                	or	a0,a0,a5
    3e60:	d63ff0ef          	jal	ra,3bc2 <ntohs>
    3e64:	76c00793          	li	a5,1900
    3e68:	06f51c63          	bne	a0,a5,3ee0 <ip_input+0x294>
    3e6c:	894e                	mv	s2,s3
    3e6e:	b73d                	j	3d9c <ip_input+0x150>
    3e70:	f20998e3          	bnez	s3,3da0 <ip_input+0x154>
    3e74:	4a81                	li	s5,0
    3e76:	b7d9                	j	3e3c <ip_input+0x1f0>
    3e78:	85ce                	mv	a1,s3
    3e7a:	8526                	mv	a0,s1
    3e7c:	098040ef          	jal	ra,7f14 <udp_input>
    3e80:	4501                	li	a0,0
    3e82:	bbefc06f          	j	240 <__riscv_restore_10>
    3e86:	85ce                	mv	a1,s3
    3e88:	8526                	mv	a0,s1
    3e8a:	221020ef          	jal	ra,68aa <tcp_input>
    3e8e:	bfcd                	j	3e80 <ip_input+0x234>
    3e90:	85ce                	mv	a1,s3
    3e92:	01040513          	addi	a0,s0,16
    3e96:	22c5                	jal	4076 <ip_addr_isbroadcast>
    3e98:	dc051be3          	bnez	a0,3c6e <ip_input+0x22>
    3e9c:	381c                	lbu	a5,17(s0)
    3e9e:	01044903          	lbu	s2,16(s0)
    3ea2:	f0000537          	lui	a0,0xf0000
    3ea6:	07a2                	slli	a5,a5,0x8
    3ea8:	0127e7b3          	or	a5,a5,s2
    3eac:	01244903          	lbu	s2,18(s0)
    3eb0:	0942                	slli	s2,s2,0x10
    3eb2:	00f967b3          	or	a5,s2,a5
    3eb6:	01344903          	lbu	s2,19(s0)
    3eba:	0962                	slli	s2,s2,0x18
    3ebc:	00f96933          	or	s2,s2,a5
    3ec0:	d35ff0ef          	jal	ra,3bf4 <ntohl>
    3ec4:	00a97933          	and	s2,s2,a0
    3ec8:	e0000537          	lui	a0,0xe0000
    3ecc:	d29ff0ef          	jal	ra,3bf4 <ntohl>
    3ed0:	d8a90fe3          	beq	s2,a0,3c6e <ip_input+0x22>
    3ed4:	c0c0                	sw	s0,4(s1)
    3ed6:	4589                	li	a1,2
    3ed8:	8526                	mv	a0,s1
    3eda:	790040ef          	jal	ra,866a <icmp_dest_unreach>
    3ede:	bb41                	j	3c6e <ip_input+0x22>
    3ee0:	e60a91e3          	bnez	s5,3d42 <ip_input+0xf6>
    3ee4:	b369                	j	3c6e <ip_input+0x22>

00003ee6 <ip_output_if>:
ip_output_if():
    3ee6:	b22fc2ef          	jal	t0,208 <__riscv_save_10>
    3eea:	89aa                	mv	s3,a0
    3eec:	8942                	mv	s2,a6
    3eee:	12060f63          	beqz	a2,402c <ip_output_if+0x146>
    3ef2:	8aae                	mv	s5,a1
    3ef4:	45d1                	li	a1,20
    3ef6:	8a3a                	mv	s4,a4
    3ef8:	84b2                	mv	s1,a2
    3efa:	8bb6                	mv	s7,a3
    3efc:	8b3e                	mv	s6,a5
    3efe:	024010ef          	jal	ra,4f22 <pbuf_header>
    3f02:	5779                	li	a4,-2
    3f04:	12051163          	bnez	a0,4026 <ip_output_if+0x140>
    3f08:	0049a403          	lw	s0,4(s3)
    3f0c:	0ba2                	slli	s7,s7,0x8
    3f0e:	341c                	lbu	a5,9(s0)
    3f10:	2408                	lbu	a0,8(s0)
    3f12:	07a2                	slli	a5,a5,0x8
    3f14:	8d5d                	or	a0,a0,a5
    3f16:	cadff0ef          	jal	ra,3bc2 <ntohs>
    3f1a:	0ff57513          	andi	a0,a0,255
    3f1e:	01756533          	or	a0,a0,s7
    3f22:	c93ff0ef          	jal	ra,3bb4 <htons>
    3f26:	00855713          	srli	a4,a0,0x8
    3f2a:	b418                	sb	a4,9(s0)
    3f2c:	a408                	sb	a0,8(s0)
    3f2e:	c95ff0ef          	jal	ra,3bc2 <ntohs>
    3f32:	8121                	srli	a0,a0,0x8
    3f34:	0542                	slli	a0,a0,0x10
    3f36:	8141                	srli	a0,a0,0x10
    3f38:	0522                	slli	a0,a0,0x8
    3f3a:	01656533          	or	a0,a0,s6
    3f3e:	0542                	slli	a0,a0,0x10
    3f40:	8141                	srli	a0,a0,0x10
    3f42:	c73ff0ef          	jal	ra,3bb4 <htons>
    3f46:	3098                	lbu	a4,1(s1)
    3f48:	209c                	lbu	a5,0(s1)
    3f4a:	a408                	sb	a0,8(s0)
    3f4c:	0722                	slli	a4,a4,0x8
    3f4e:	8f5d                	or	a4,a4,a5
    3f50:	20bc                	lbu	a5,2(s1)
    3f52:	8121                	srli	a0,a0,0x8
    3f54:	b408                	sb	a0,9(s0)
    3f56:	07c2                	slli	a5,a5,0x10
    3f58:	8f5d                	or	a4,a4,a5
    3f5a:	30bc                	lbu	a5,3(s1)
    3f5c:	6511                	lui	a0,0x4
    3f5e:	50050513          	addi	a0,a0,1280 # 4500 <ip_reass+0x35a>
    3f62:	07e2                	slli	a5,a5,0x18
    3f64:	8fd9                	or	a5,a5,a4
    3f66:	0087d713          	srli	a4,a5,0x8
    3f6a:	a81c                	sb	a5,16(s0)
    3f6c:	b818                	sb	a4,17(s0)
    3f6e:	0107d713          	srli	a4,a5,0x10
    3f72:	83e1                	srli	a5,a5,0x18
    3f74:	b83c                	sb	a5,19(s0)
    3f76:	a838                	sb	a4,18(s0)
    3f78:	00aa6533          	or	a0,s4,a0
    3f7c:	c39ff0ef          	jal	ra,3bb4 <htons>
    3f80:	a008                	sb	a0,0(s0)
    3f82:	8121                	srli	a0,a0,0x8
    3f84:	b008                	sb	a0,1(s0)
    3f86:	0089d503          	lhu	a0,8(s3)
    3f8a:	8c818a13          	addi	s4,gp,-1848 # 200000e8 <ip_id.2933>
    3f8e:	c27ff0ef          	jal	ra,3bb4 <htons>
    3f92:	a028                	sb	a0,2(s0)
    3f94:	8121                	srli	a0,a0,0x8
    3f96:	b028                	sb	a0,3(s0)
    3f98:	000a5503          	lhu	a0,0(s4)
    3f9c:	00040323          	sb	zero,6(s0)
    3fa0:	000403a3          	sb	zero,7(s0)
    3fa4:	c11ff0ef          	jal	ra,3bb4 <htons>
    3fa8:	000a5783          	lhu	a5,0(s4)
    3fac:	a048                	sb	a0,4(s0)
    3fae:	8121                	srli	a0,a0,0x8
    3fb0:	0785                	addi	a5,a5,1
    3fb2:	b048                	sb	a0,5(s0)
    3fb4:	00fa1023          	sh	a5,0(s4)
    3fb8:	020a8163          	beqz	s5,3fda <ip_output_if+0xf4>
    3fbc:	001ac703          	lbu	a4,1(s5)
    3fc0:	000ac783          	lbu	a5,0(s5)
    3fc4:	0722                	slli	a4,a4,0x8
    3fc6:	8f5d                	or	a4,a4,a5
    3fc8:	002ac783          	lbu	a5,2(s5)
    3fcc:	07c2                	slli	a5,a5,0x10
    3fce:	8f5d                	or	a4,a4,a5
    3fd0:	003ac783          	lbu	a5,3(s5)
    3fd4:	07e2                	slli	a5,a5,0x18
    3fd6:	8fd9                	or	a5,a5,a4
    3fd8:	e799                	bnez	a5,3fe6 <ip_output_if+0x100>
    3fda:	00490713          	addi	a4,s2,4
    3fde:	4781                	li	a5,0
    3fe0:	c319                	beqz	a4,3fe6 <ip_output_if+0x100>
    3fe2:	00492783          	lw	a5,4(s2)
    3fe6:	0087d713          	srli	a4,a5,0x8
    3fea:	a45c                	sb	a5,12(s0)
    3fec:	b458                	sb	a4,13(s0)
    3fee:	0107d713          	srli	a4,a5,0x10
    3ff2:	83e1                	srli	a5,a5,0x18
    3ff4:	a478                	sb	a4,14(s0)
    3ff6:	b47c                	sb	a5,15(s0)
    3ff8:	00040523          	sb	zero,10(s0)
    3ffc:	000405a3          	sb	zero,11(s0)
    4000:	45d1                	li	a1,20
    4002:	8522                	mv	a0,s0
    4004:	017040ef          	jal	ra,881a <inet_chksum>
    4008:	a428                	sb	a0,10(s0)
    400a:	8121                	srli	a0,a0,0x8
    400c:	b428                	sb	a0,11(s0)
    400e:	03095783          	lhu	a5,48(s2)
    4012:	c385                	beqz	a5,4032 <ip_output_if+0x14c>
    4014:	0089d703          	lhu	a4,8(s3)
    4018:	00e7fd63          	bgeu	a5,a4,4032 <ip_output_if+0x14c>
    401c:	8626                	mv	a2,s1
    401e:	85ca                	mv	a1,s2
    4020:	854e                	mv	a0,s3
    4022:	2385                	jal	4582 <ip_frag>
    4024:	872a                	mv	a4,a0
    4026:	853a                	mv	a0,a4
    4028:	a18fc06f          	j	240 <__riscv_restore_10>
    402c:	4144                	lw	s1,4(a0)
    402e:	04c1                	addi	s1,s1,16
    4030:	bff9                	j	400e <ip_output_if+0x128>
    4032:	01492783          	lw	a5,20(s2)
    4036:	8626                	mv	a2,s1
    4038:	85ce                	mv	a1,s3
    403a:	854a                	mv	a0,s2
    403c:	9782                	jalr	a5
    403e:	b7dd                	j	4024 <ip_output_if+0x13e>

00004040 <ip_output>:
ip_output():
    4040:	9f0fc2ef          	jal	t0,230 <__riscv_save_0>
    4044:	1101                	addi	sp,sp,-32
    4046:	842a                	mv	s0,a0
    4048:	8532                	mv	a0,a2
    404a:	ce2e                	sw	a1,28(sp)
    404c:	cc36                	sw	a3,24(sp)
    404e:	ca3a                	sw	a4,20(sp)
    4050:	c83e                	sw	a5,16(sp)
    4052:	c632                	sw	a2,12(sp)
    4054:	badff0ef          	jal	ra,3c00 <ip_route>
    4058:	cd09                	beqz	a0,4072 <ip_output+0x32>
    405a:	47c2                	lw	a5,16(sp)
    405c:	4752                	lw	a4,20(sp)
    405e:	46e2                	lw	a3,24(sp)
    4060:	4632                	lw	a2,12(sp)
    4062:	45f2                	lw	a1,28(sp)
    4064:	882a                	mv	a6,a0
    4066:	8522                	mv	a0,s0
    4068:	e7fff0ef          	jal	ra,3ee6 <ip_output_if>
    406c:	6105                	addi	sp,sp,32
    406e:	9e6fc06f          	j	254 <__riscv_restore_0>
    4072:	5571                	li	a0,-4
    4074:	bfe5                	j	406c <ip_output+0x2c>

00004076 <ip_addr_isbroadcast>:
ip_addr_isbroadcast():
    4076:	3118                	lbu	a4,1(a0)
    4078:	211c                	lbu	a5,0(a0)
    407a:	0722                	slli	a4,a4,0x8
    407c:	8f5d                	or	a4,a4,a5
    407e:	213c                	lbu	a5,2(a0)
    4080:	07c2                	slli	a5,a5,0x10
    4082:	8f5d                	or	a4,a4,a5
    4084:	313c                	lbu	a5,3(a0)
    4086:	07e2                	slli	a5,a5,0x18
    4088:	8fd9                	or	a5,a5,a4
    408a:	fff78693          	addi	a3,a5,-1
    408e:	5775                	li	a4,-3
    4090:	02d76663          	bltu	a4,a3,40bc <ip_addr_isbroadcast+0x46>
    4094:	0325c703          	lbu	a4,50(a1)
    4098:	4501                	li	a0,0
    409a:	8b09                	andi	a4,a4,2
    409c:	c30d                	beqz	a4,40be <ip_addr_isbroadcast+0x48>
    409e:	41d8                	lw	a4,4(a1)
    40a0:	00f70f63          	beq	a4,a5,40be <ip_addr_isbroadcast+0x48>
    40a4:	4594                	lw	a3,8(a1)
    40a6:	8f3d                	xor	a4,a4,a5
    40a8:	8f75                	and	a4,a4,a3
    40aa:	eb11                	bnez	a4,40be <ip_addr_isbroadcast+0x48>
    40ac:	fff6c513          	not	a0,a3
    40b0:	8fe9                	and	a5,a5,a0
    40b2:	40a78533          	sub	a0,a5,a0
    40b6:	00153513          	seqz	a0,a0
    40ba:	8082                	ret
    40bc:	4505                	li	a0,1
    40be:	8082                	ret

000040c0 <ip_reass_tmr>:
ip_reass_tmr():
    40c0:	948fc2ef          	jal	t0,208 <__riscv_save_10>
    40c4:	8cc1a403          	lw	s0,-1844(gp) # 200000ec <reassdatagrams>
    40c8:	44c5                	li	s1,17
    40ca:	4b01                	li	s6,0
    40cc:	8cc18913          	addi	s2,gp,-1844 # 200000ec <reassdatagrams>
    40d0:	e019                	bnez	s0,40d6 <ip_reass_tmr+0x16>
    40d2:	96efc06f          	j	240 <__riscv_restore_10>
    40d6:	14fd                	addi	s1,s1,-1
    40d8:	0ff4f493          	andi	s1,s1,255
    40dc:	d8fd                	beqz	s1,40d2 <ip_reass_tmr+0x12>
    40de:	3c7c                	lbu	a5,31(s0)
    40e0:	00042c03          	lw	s8,0(s0)
    40e4:	c791                	beqz	a5,40f0 <ip_reass_tmr+0x30>
    40e6:	17fd                	addi	a5,a5,-1
    40e8:	bc7c                	sb	a5,31(s0)
    40ea:	8b22                	mv	s6,s0
    40ec:	8462                	mv	s0,s8
    40ee:	b7cd                	j	40d0 <ip_reass_tmr+0x10>
    40f0:	00442983          	lw	s3,4(s0)
    40f4:	4a81                	li	s5,0
    40f6:	0049a503          	lw	a0,4(s3)
    40fa:	315c                	lbu	a5,5(a0)
    40fc:	2158                	lbu	a4,4(a0)
    40fe:	07a2                	slli	a5,a5,0x8
    4100:	8fd9                	or	a5,a5,a4
    4102:	ef85                	bnez	a5,413a <ip_reass_tmr+0x7a>
    4104:	3118                	lbu	a4,1(a0)
    4106:	211c                	lbu	a5,0(a0)
    4108:	4651                	li	a2,20
    410a:	0722                	slli	a4,a4,0x8
    410c:	8f5d                	or	a4,a4,a5
    410e:	213c                	lbu	a5,2(a0)
    4110:	00840593          	addi	a1,s0,8
    4114:	07c2                	slli	a5,a5,0x10
    4116:	8f5d                	or	a4,a4,a5
    4118:	313c                	lbu	a5,3(a0)
    411a:	07e2                	slli	a5,a5,0x18
    411c:	8fd9                	or	a5,a5,a4
    411e:	c05c                	sw	a5,4(s0)
    4120:	543040ef          	jal	ra,8e62 <memcpy>
    4124:	4585                	li	a1,1
    4126:	854e                	mv	a0,s3
    4128:	556040ef          	jal	ra,867e <icmp_time_exceeded>
    412c:	854e                	mv	a0,s3
    412e:	048010ef          	jal	ra,5176 <pbuf_clen>
    4132:	8aaa                	mv	s5,a0
    4134:	854e                	mv	a0,s3
    4136:	65b000ef          	jal	ra,4f90 <pbuf_free>
    413a:	00442983          	lw	s3,4(s0)
    413e:	02099663          	bnez	s3,416a <ip_reass_tmr+0xaa>
    4142:	00092703          	lw	a4,0(s2)
    4146:	401c                	lw	a5,0(s0)
    4148:	04e41c63          	bne	s0,a4,41a0 <ip_reass_tmr+0xe0>
    414c:	00f92023          	sw	a5,0(s2)
    4150:	85a2                	mv	a1,s0
    4152:	4515                	li	a0,5
    4154:	46b000ef          	jal	ra,4dbe <memp_free>
    4158:	8ca18713          	addi	a4,gp,-1846 # 200000ea <ip_reass_pbufcount>
    415c:	231e                	lhu	a5,0(a4)
    415e:	845a                	mv	s0,s6
    4160:	41578ab3          	sub	s5,a5,s5
    4164:	01571023          	sh	s5,0(a4)
    4168:	b749                	j	40ea <ip_reass_tmr+0x2a>
    416a:	0049a703          	lw	a4,4(s3)
    416e:	854e                	mv	a0,s3
    4170:	331c                	lbu	a5,1(a4)
    4172:	00074a03          	lbu	s4,0(a4)
    4176:	07a2                	slli	a5,a5,0x8
    4178:	0147e7b3          	or	a5,a5,s4
    417c:	00274a03          	lbu	s4,2(a4)
    4180:	0a42                	slli	s4,s4,0x10
    4182:	00fa67b3          	or	a5,s4,a5
    4186:	00374a03          	lbu	s4,3(a4)
    418a:	0a62                	slli	s4,s4,0x18
    418c:	00fa6a33          	or	s4,s4,a5
    4190:	7e7000ef          	jal	ra,5176 <pbuf_clen>
    4194:	9aaa                	add	s5,s5,a0
    4196:	854e                	mv	a0,s3
    4198:	5f9000ef          	jal	ra,4f90 <pbuf_free>
    419c:	89d2                	mv	s3,s4
    419e:	b745                	j	413e <ip_reass_tmr+0x7e>
    41a0:	00fb2023          	sw	a5,0(s6)
    41a4:	b775                	j	4150 <ip_reass_tmr+0x90>

000041a6 <ip_reass>:
ip_reass():
    41a6:	862fc2ef          	jal	t0,208 <__riscv_save_10>
    41aa:	4144                	lw	s1,4(a0)
    41ac:	892a                	mv	s2,a0
    41ae:	309c                	lbu	a5,1(s1)
    41b0:	2088                	lbu	a0,0(s1)
    41b2:	07a2                	slli	a5,a5,0x8
    41b4:	8d5d                	or	a0,a0,a5
    41b6:	a0dff0ef          	jal	ra,3bc2 <ntohs>
    41ba:	8119                	srli	a0,a0,0x6
    41bc:	03c57513          	andi	a0,a0,60
    41c0:	47d1                	li	a5,20
    41c2:	26f51263          	bne	a0,a5,4426 <ip_reass+0x280>
    41c6:	30fc                	lbu	a5,7(s1)
    41c8:	20e8                	lbu	a0,6(s1)
    41ca:	07a2                	slli	a5,a5,0x8
    41cc:	8d5d                	or	a0,a0,a5
    41ce:	9f5ff0ef          	jal	ra,3bc2 <ntohs>
    41d2:	30bc                	lbu	a5,3(s1)
    41d4:	8b2a                	mv	s6,a0
    41d6:	20a8                	lbu	a0,2(s1)
    41d8:	07a2                	slli	a5,a5,0x8
    41da:	8d5d                	or	a0,a0,a5
    41dc:	9e7ff0ef          	jal	ra,3bc2 <ntohs>
    41e0:	309c                	lbu	a5,1(s1)
    41e2:	8caa                	mv	s9,a0
    41e4:	2088                	lbu	a0,0(s1)
    41e6:	07a2                	slli	a5,a5,0x8
    41e8:	8d5d                	or	a0,a0,a5
    41ea:	9d9ff0ef          	jal	ra,3bc2 <ntohs>
    41ee:	8c2a                	mv	s8,a0
    41f0:	854a                	mv	a0,s2
    41f2:	785000ef          	jal	ra,5176 <pbuf_clen>
    41f6:	200067b7          	lui	a5,0x20006
    41fa:	2607a783          	lw	a5,608(a5) # 20006260 <WCHCfg+0x10>
    41fe:	8ca1d703          	lhu	a4,-1846(gp) # 200000ea <ip_reass_pbufcount>
    4202:	8d2a                	mv	s10,a0
    4204:	838d                	srli	a5,a5,0x3
    4206:	972a                	add	a4,a4,a0
    4208:	8bfd                	andi	a5,a5,31
    420a:	8ca18993          	addi	s3,gp,-1846 # 200000ea <ip_reass_pbufcount>
    420e:	20e7ec63          	bltu	a5,a4,4426 <ip_reass+0x280>
    4212:	8cc1a403          	lw	s0,-1844(gp) # 200000ec <reassdatagrams>
    4216:	4a81                	li	s5,0
    4218:	8cc18a13          	addi	s4,gp,-1844 # 200000ec <reassdatagrams>
    421c:	e81d                	bnez	s0,4252 <ip_reass+0xac>
    421e:	4515                	li	a0,5
    4220:	37f000ef          	jal	ra,4d9e <memp_malloc>
    4224:	842a                	mv	s0,a0
    4226:	20050063          	beqz	a0,4426 <ip_reass+0x280>
    422a:	4671                	li	a2,28
    422c:	4581                	li	a1,0
    422e:	00440513          	addi	a0,s0,4
    4232:	82efc0ef          	jal	ra,260 <memset>
    4236:	478d                	li	a5,3
    4238:	bc7c                	sb	a5,31(s0)
    423a:	000a2783          	lw	a5,0(s4)
    423e:	008a2023          	sw	s0,0(s4)
    4242:	c01c                	sw	a5,0(s0)
    4244:	4651                	li	a2,20
    4246:	85a6                	mv	a1,s1
    4248:	00840513          	addi	a0,s0,8
    424c:	417040ef          	jal	ra,8e62 <memcpy>
    4250:	ac95                	j	44c4 <ip_reass+0x31e>
    4252:	34d8                	lbu	a4,13(s1)
    4254:	24dc                	lbu	a5,12(s1)
    4256:	0722                	slli	a4,a4,0x8
    4258:	8f5d                	or	a4,a4,a5
    425a:	24fc                	lbu	a5,14(s1)
    425c:	07c2                	slli	a5,a5,0x10
    425e:	8f5d                	or	a4,a4,a5
    4260:	34fc                	lbu	a5,15(s1)
    4262:	07e2                	slli	a5,a5,0x18
    4264:	8fd9                	or	a5,a5,a4
    4266:	4858                	lw	a4,20(s0)
    4268:	02f71663          	bne	a4,a5,4294 <ip_reass+0xee>
    426c:	3898                	lbu	a4,17(s1)
    426e:	289c                	lbu	a5,16(s1)
    4270:	0722                	slli	a4,a4,0x8
    4272:	8f5d                	or	a4,a4,a5
    4274:	28bc                	lbu	a5,18(s1)
    4276:	07c2                	slli	a5,a5,0x10
    4278:	8f5d                	or	a4,a4,a5
    427a:	38bc                	lbu	a5,19(s1)
    427c:	07e2                	slli	a5,a5,0x18
    427e:	8fd9                	or	a5,a5,a4
    4280:	4c18                	lw	a4,24(s0)
    4282:	00f71963          	bne	a4,a5,4294 <ip_reass+0xee>
    4286:	30dc                	lbu	a5,5(s1)
    4288:	20d4                	lbu	a3,4(s1)
    428a:	245a                	lhu	a4,12(s0)
    428c:	07a2                	slli	a5,a5,0x8
    428e:	8fd5                	or	a5,a5,a3
    4290:	20f70663          	beq	a4,a5,449c <ip_reass+0x2f6>
    4294:	8aa2                	mv	s5,s0
    4296:	4000                	lw	s0,0(s0)
    4298:	b751                	j	421c <ip_reass+0x76>
    429a:	42cc                	lw	a1,4(a3)
    429c:	0055c803          	lbu	a6,5(a1)
    42a0:	0045c303          	lbu	t1,4(a1)
    42a4:	0822                	slli	a6,a6,0x8
    42a6:	00686833          	or	a6,a6,t1
    42aa:	0d067c63          	bgeu	a2,a6,4382 <ip_reass+0x1dc>
    42ae:	0086d593          	srli	a1,a3,0x8
    42b2:	a394                	sb	a3,0(a5)
    42b4:	b38c                	sb	a1,1(a5)
    42b6:	0106d593          	srli	a1,a3,0x10
    42ba:	82e1                	srli	a3,a3,0x18
    42bc:	a3ac                	sb	a1,2(a5)
    42be:	b3b4                	sb	a3,3(a5)
    42c0:	2a070e63          	beqz	a4,457c <ip_reass+0x3d6>
    42c4:	3374                	lbu	a3,7(a4)
    42c6:	236c                	lbu	a1,6(a4)
    42c8:	06a2                	slli	a3,a3,0x8
    42ca:	8ecd                	or	a3,a3,a1
    42cc:	14d66463          	bltu	a2,a3,4414 <ip_reass+0x26e>
    42d0:	14a86263          	bltu	a6,a0,4414 <ip_reass+0x26e>
    42d4:	00895693          	srli	a3,s2,0x8
    42d8:	01270023          	sb	s2,0(a4)
    42dc:	b314                	sb	a3,1(a4)
    42de:	01095693          	srli	a3,s2,0x10
    42e2:	01895913          	srli	s2,s2,0x18
    42e6:	a334                	sb	a3,2(a4)
    42e8:	012701a3          	sb	s2,3(a4)
    42ec:	2c78                	lbu	a4,30(s0)
    42ee:	4b01                	li	s6,0
    42f0:	8b05                	andi	a4,a4,1
    42f2:	18070f63          	beqz	a4,4490 <ip_reass+0x2ea>
    42f6:	18088d63          	beqz	a7,4490 <ip_reass+0x2ea>
    42fa:	4058                	lw	a4,4(s0)
    42fc:	4344                	lw	s1,4(a4)
    42fe:	30d8                	lbu	a4,5(s1)
    4300:	20d4                	lbu	a3,4(s1)
    4302:	0722                	slli	a4,a4,0x8
    4304:	8f55                	or	a4,a4,a3
    4306:	18071563          	bnez	a4,4490 <ip_reass+0x2ea>
    430a:	3394                	lbu	a3,1(a5)
    430c:	2398                	lbu	a4,0(a5)
    430e:	06a2                	slli	a3,a3,0x8
    4310:	8ed9                	or	a3,a3,a4
    4312:	23b8                	lbu	a4,2(a5)
    4314:	0742                	slli	a4,a4,0x10
    4316:	8ed9                	or	a3,a3,a4
    4318:	33b8                	lbu	a4,3(a5)
    431a:	0762                	slli	a4,a4,0x18
    431c:	8f55                	or	a4,a4,a3
    431e:	e761                	bnez	a4,43e6 <ip_reass+0x240>
    4320:	2c5e                	lhu	a5,28(s0)
    4322:	0004c903          	lbu	s2,0(s1)
    4326:	4651                	li	a2,20
    4328:	07d1                	addi	a5,a5,20
    432a:	ac5e                	sh	a5,28(s0)
    432c:	309c                	lbu	a5,1(s1)
    432e:	00840593          	addi	a1,s0,8
    4332:	8526                	mv	a0,s1
    4334:	07a2                	slli	a5,a5,0x8
    4336:	0127e7b3          	or	a5,a5,s2
    433a:	0024c903          	lbu	s2,2(s1)
    433e:	0942                	slli	s2,s2,0x10
    4340:	00f967b3          	or	a5,s2,a5
    4344:	0034c903          	lbu	s2,3(s1)
    4348:	0962                	slli	s2,s2,0x18
    434a:	00f96933          	or	s2,s2,a5
    434e:	315040ef          	jal	ra,8e62 <memcpy>
    4352:	2c4a                	lhu	a0,28(s0)
    4354:	861ff0ef          	jal	ra,3bb4 <htons>
    4358:	a0a8                	sb	a0,2(s1)
    435a:	8121                	srli	a0,a0,0x8
    435c:	b0a8                	sb	a0,3(s1)
    435e:	00048323          	sb	zero,6(s1)
    4362:	000483a3          	sb	zero,7(s1)
    4366:	00048523          	sb	zero,10(s1)
    436a:	000485a3          	sb	zero,11(s1)
    436e:	45d1                	li	a1,20
    4370:	8526                	mv	a0,s1
    4372:	4a8040ef          	jal	ra,881a <inet_chksum>
    4376:	a4a8                	sb	a0,10(s1)
    4378:	8121                	srli	a0,a0,0x8
    437a:	b4a8                	sb	a0,11(s1)
    437c:	00442b03          	lw	s6,4(s0)
    4380:	a0d5                	j	4464 <ip_reass+0x2be>
    4382:	09060963          	beq	a2,a6,4414 <ip_reass+0x26e>
    4386:	31f4                	lbu	a3,7(a1)
    4388:	0065c303          	lbu	t1,6(a1)
    438c:	06a2                	slli	a3,a3,0x8
    438e:	0066e6b3          	or	a3,a3,t1
    4392:	08d66163          	bltu	a2,a3,4414 <ip_reass+0x26e>
    4396:	cb01                	beqz	a4,43a6 <ip_reass+0x200>
    4398:	2374                	lbu	a3,6(a4)
    439a:	3378                	lbu	a4,7(a4)
    439c:	0722                	slli	a4,a4,0x8
    439e:	8f55                	or	a4,a4,a3
    43a0:	00e80363          	beq	a6,a4,43a6 <ip_reass+0x200>
    43a4:	4881                	li	a7,0
    43a6:	3198                	lbu	a4,1(a1)
    43a8:	2194                	lbu	a3,0(a1)
    43aa:	0722                	slli	a4,a4,0x8
    43ac:	8f55                	or	a4,a4,a3
    43ae:	21b4                	lbu	a3,2(a1)
    43b0:	06c2                	slli	a3,a3,0x10
    43b2:	8f55                	or	a4,a4,a3
    43b4:	31b4                	lbu	a3,3(a1)
    43b6:	06e2                	slli	a3,a3,0x18
    43b8:	8ed9                	or	a3,a3,a4
    43ba:	872e                	mv	a4,a1
    43bc:	aa65                	j	4574 <ip_reass+0x3ce>
    43be:	00895693          	srli	a3,s2,0x8
    43c2:	01270023          	sb	s2,0(a4)
    43c6:	b314                	sb	a3,1(a4)
    43c8:	01095693          	srli	a3,s2,0x10
    43cc:	01895913          	srli	s2,s2,0x18
    43d0:	a334                	sb	a3,2(a4)
    43d2:	012701a3          	sb	s2,3(a4)
    43d6:	2374                	lbu	a3,6(a4)
    43d8:	3378                	lbu	a4,7(a4)
    43da:	0722                	slli	a4,a4,0x8
    43dc:	8f55                	or	a4,a4,a3
    43de:	f0e607e3          	beq	a2,a4,42ec <ip_reass+0x146>
    43e2:	4881                	li	a7,0
    43e4:	b721                	j	42ec <ip_reass+0x146>
    43e6:	4354                	lw	a3,4(a4)
    43e8:	23ec                	lbu	a1,6(a5)
    43ea:	33f8                	lbu	a4,7(a5)
    43ec:	32dc                	lbu	a5,5(a3)
    43ee:	22d0                	lbu	a2,4(a3)
    43f0:	0722                	slli	a4,a4,0x8
    43f2:	07a2                	slli	a5,a5,0x8
    43f4:	8f4d                	or	a4,a4,a1
    43f6:	8fd1                	or	a5,a5,a2
    43f8:	02f71a63          	bne	a4,a5,442c <ip_reass+0x286>
    43fc:	329c                	lbu	a5,1(a3)
    43fe:	2298                	lbu	a4,0(a3)
    4400:	07a2                	slli	a5,a5,0x8
    4402:	8fd9                	or	a5,a5,a4
    4404:	22b8                	lbu	a4,2(a3)
    4406:	0742                	slli	a4,a4,0x10
    4408:	8fd9                	or	a5,a5,a4
    440a:	32b8                	lbu	a4,3(a3)
    440c:	0762                	slli	a4,a4,0x18
    440e:	8f5d                	or	a4,a4,a5
    4410:	87b6                	mv	a5,a3
    4412:	b731                	j	431e <ip_reass+0x178>
    4414:	854a                	mv	a0,s2
    4416:	561000ef          	jal	ra,5176 <pbuf_clen>
    441a:	0009d783          	lhu	a5,0(s3)
    441e:	40a78533          	sub	a0,a5,a0
    4422:	00a99023          	sh	a0,0(s3)
    4426:	854a                	mv	a0,s2
    4428:	369000ef          	jal	ra,4f90 <pbuf_free>
    442c:	4b01                	li	s6,0
    442e:	a08d                	j	4490 <ip_reass+0x2ea>
    4430:	55b1                	li	a1,-20
    4432:	854a                	mv	a0,s2
    4434:	00492483          	lw	s1,4(s2)
    4438:	2eb000ef          	jal	ra,4f22 <pbuf_header>
    443c:	85ca                	mv	a1,s2
    443e:	855a                	mv	a0,s6
    4440:	553000ef          	jal	ra,5192 <pbuf_cat>
    4444:	309c                	lbu	a5,1(s1)
    4446:	0004c903          	lbu	s2,0(s1)
    444a:	07a2                	slli	a5,a5,0x8
    444c:	0127e7b3          	or	a5,a5,s2
    4450:	0024c903          	lbu	s2,2(s1)
    4454:	0942                	slli	s2,s2,0x10
    4456:	00f967b3          	or	a5,s2,a5
    445a:	0034c903          	lbu	s2,3(s1)
    445e:	0962                	slli	s2,s2,0x18
    4460:	00f96933          	or	s2,s2,a5
    4464:	fc0916e3          	bnez	s2,4430 <ip_reass+0x28a>
    4468:	000a2703          	lw	a4,0(s4)
    446c:	401c                	lw	a5,0(s0)
    446e:	02e41463          	bne	s0,a4,4496 <ip_reass+0x2f0>
    4472:	00fa2023          	sw	a5,0(s4)
    4476:	85a2                	mv	a1,s0
    4478:	4515                	li	a0,5
    447a:	145000ef          	jal	ra,4dbe <memp_free>
    447e:	855a                	mv	a0,s6
    4480:	4f7000ef          	jal	ra,5176 <pbuf_clen>
    4484:	0009d783          	lhu	a5,0(s3)
    4488:	40a78533          	sub	a0,a5,a0
    448c:	00a99023          	sh	a0,0(s3)
    4490:	855a                	mv	a0,s6
    4492:	daffb06f          	j	240 <__riscv_restore_10>
    4496:	00faa023          	sw	a5,0(s5)
    449a:	bff1                	j	4476 <ip_reass+0x2d0>
    449c:	30fc                	lbu	a5,7(s1)
    449e:	20e8                	lbu	a0,6(s1)
    44a0:	6b89                	lui	s7,0x2
    44a2:	07a2                	slli	a5,a5,0x8
    44a4:	8d5d                	or	a0,a0,a5
    44a6:	f1cff0ef          	jal	ra,3bc2 <ntohs>
    44aa:	1bfd                	addi	s7,s7,-1
    44ac:	01757533          	and	a0,a0,s7
    44b0:	0542                	slli	a0,a0,0x10
    44b2:	8141                	srli	a0,a0,0x10
    44b4:	e901                	bnez	a0,44c4 <ip_reass+0x31e>
    44b6:	246a                	lhu	a0,14(s0)
    44b8:	f0aff0ef          	jal	ra,3bc2 <ntohs>
    44bc:	01757533          	and	a0,a0,s7
    44c0:	d80512e3          	bnez	a0,4244 <ip_reass+0x9e>
    44c4:	0009d783          	lhu	a5,0(s3)
    44c8:	9d3e                	add	s10,s10,a5
    44ca:	01a99023          	sh	s10,0(s3)
    44ce:	30fc                	lbu	a5,7(s1)
    44d0:	20e8                	lbu	a0,6(s1)
    44d2:	07a2                	slli	a5,a5,0x8
    44d4:	8d5d                	or	a0,a0,a5
    44d6:	eecff0ef          	jal	ra,3bc2 <ntohs>
    44da:	01251793          	slli	a5,a0,0x12
    44de:	0207c263          	bltz	a5,4502 <ip_reass+0x35c>
    44e2:	013b1513          	slli	a0,s6,0x13
    44e6:	2c7c                	lbu	a5,30(s0)
    44e8:	814d                	srli	a0,a0,0x13
    44ea:	050e                	slli	a0,a0,0x3
    44ec:	006c5c13          	srli	s8,s8,0x6
    44f0:	9566                	add	a0,a0,s9
    44f2:	03cc7c13          	andi	s8,s8,60
    44f6:	0017e793          	ori	a5,a5,1
    44fa:	41850533          	sub	a0,a0,s8
    44fe:	ac7c                	sb	a5,30(s0)
    4500:	ac4a                	sh	a0,28(s0)
    4502:	00492483          	lw	s1,4(s2)
    4506:	30bc                	lbu	a5,3(s1)
    4508:	20a8                	lbu	a0,2(s1)
    450a:	07a2                	slli	a5,a5,0x8
    450c:	8d5d                	or	a0,a0,a5
    450e:	eb4ff0ef          	jal	ra,3bc2 <ntohs>
    4512:	309c                	lbu	a5,1(s1)
    4514:	8b2a                	mv	s6,a0
    4516:	2088                	lbu	a0,0(s1)
    4518:	07a2                	slli	a5,a5,0x8
    451a:	8d5d                	or	a0,a0,a5
    451c:	ea6ff0ef          	jal	ra,3bc2 <ntohs>
    4520:	30fc                	lbu	a5,7(s1)
    4522:	8baa                	mv	s7,a0
    4524:	20e8                	lbu	a0,6(s1)
    4526:	07a2                	slli	a5,a5,0x8
    4528:	006bdb93          	srli	s7,s7,0x6
    452c:	8d5d                	or	a0,a0,a5
    452e:	e94ff0ef          	jal	ra,3bc2 <ntohs>
    4532:	054e                	slli	a0,a0,0x13
    4534:	814d                	srli	a0,a0,0x13
    4536:	00351613          	slli	a2,a0,0x3
    453a:	00cb0533          	add	a0,s6,a2
    453e:	03cbfb13          	andi	s6,s7,60
    4542:	00492783          	lw	a5,4(s2)
    4546:	41650533          	sub	a0,a0,s6
    454a:	0542                	slli	a0,a0,0x10
    454c:	00865713          	srli	a4,a2,0x8
    4550:	8141                	srli	a0,a0,0x10
    4552:	4054                	lw	a3,4(s0)
    4554:	b3d8                	sb	a4,5(a5)
    4556:	00855713          	srli	a4,a0,0x8
    455a:	b3f8                	sb	a4,7(a5)
    455c:	00078023          	sb	zero,0(a5)
    4560:	000780a3          	sb	zero,1(a5)
    4564:	00078123          	sb	zero,2(a5)
    4568:	000781a3          	sb	zero,3(a5)
    456c:	a3d0                	sb	a2,4(a5)
    456e:	a3e8                	sb	a0,6(a5)
    4570:	4885                	li	a7,1
    4572:	4701                	li	a4,0
    4574:	d20693e3          	bnez	a3,429a <ip_reass+0xf4>
    4578:	e40713e3          	bnez	a4,43be <ip_reass+0x218>
    457c:	01242223          	sw	s2,4(s0)
    4580:	b3b5                	j	42ec <ip_reass+0x146>

00004582 <ip_frag>:
ip_frag():
    4582:	c7ffb2ef          	jal	t0,200 <__riscv_save_12>
    4586:	00452c03          	lw	s8,4(a0)
    458a:	1101                	addi	sp,sp,-32
    458c:	ca32                	sw	a2,20(sp)
    458e:	007c4703          	lbu	a4,7(s8)
    4592:	8daa                	mv	s11,a0
    4594:	006c4503          	lbu	a0,6(s8)
    4598:	0722                	slli	a4,a4,0x8
    459a:	0305db83          	lhu	s7,48(a1)
    459e:	8d59                	or	a0,a0,a4
    45a0:	8cae                	mv	s9,a1
    45a2:	e20ff0ef          	jal	ra,3bc2 <ntohs>
    45a6:	6689                	lui	a3,0x2
    45a8:	00d577b3          	and	a5,a0,a3
    45ac:	fecb8a13          	addi	s4,s7,-20 # 1fec <USART_Printf_Init+0x18>
    45b0:	46a1                	li	a3,8
    45b2:	02da4a33          	div	s4,s4,a3
    45b6:	008dd483          	lhu	s1,8(s11)
    45ba:	6709                	lui	a4,0x2
    45bc:	177d                	addi	a4,a4,-1
    45be:	c63e                	sw	a5,12(sp)
    45c0:	00e57933          	and	s2,a0,a4
    45c4:	14b1                	addi	s1,s1,-20
    45c6:	0942                	slli	s2,s2,0x10
    45c8:	04c2                	slli	s1,s1,0x10
    45ca:	01095913          	srli	s2,s2,0x10
    45ce:	80c1                	srli	s1,s1,0x10
    45d0:	4401                	li	s0,0
    45d2:	4d51                	li	s10,20
    45d4:	cc3a                	sw	a4,24(sp)
    45d6:	0a42                	slli	s4,s4,0x10
    45d8:	010a5a13          	srli	s4,s4,0x10
    45dc:	003a1693          	slli	a3,s4,0x3
    45e0:	01069793          	slli	a5,a3,0x10
    45e4:	83c1                	srli	a5,a5,0x10
    45e6:	c83e                	sw	a5,16(sp)
    45e8:	fedb8793          	addi	a5,s7,-19
    45ec:	ce3e                	sw	a5,28(sp)
    45ee:	e489                	bnez	s1,45f8 <ip_frag+0x76>
    45f0:	4501                	li	a0,0
    45f2:	6105                	addi	sp,sp,32
    45f4:	c49fb06f          	j	23c <__riscv_restore_12>
    45f8:	47e2                	lw	a5,24(sp)
    45fa:	8aa6                	mv	s5,s1
    45fc:	00f97b33          	and	s6,s2,a5
    4600:	47b2                	lw	a5,12(sp)
    4602:	0167eb33          	or	s6,a5,s6
    4606:	47f2                	lw	a5,28(sp)
    4608:	00f4c663          	blt	s1,a5,4614 <ip_frag+0x92>
    460c:	4ac2                	lw	s5,16(sp)
    460e:	6789                	lui	a5,0x2
    4610:	00fb6b33          	or	s6,s6,a5
    4614:	4601                	li	a2,0
    4616:	45d1                	li	a1,20
    4618:	4509                	li	a0,2
    461a:	1c5000ef          	jal	ra,4fde <pbuf_alloc>
    461e:	89aa                	mv	s3,a0
    4620:	c939                	beqz	a0,4676 <ip_frag+0xf4>
    4622:	4148                	lw	a0,4(a0)
    4624:	4651                	li	a2,20
    4626:	85e2                	mv	a1,s8
    4628:	03b040ef          	jal	ra,8e62 <memcpy>
    462c:	004da603          	lw	a2,4(s11)
    4630:	0049ab83          	lw	s7,4(s3)
    4634:	966a                	add	a2,a2,s10
    4636:	00cda223          	sw	a2,4(s11)
    463a:	00add603          	lhu	a2,10(s11)
    463e:	41a606b3          	sub	a3,a2,s10
    4642:	00dd9523          	sh	a3,10(s11)
    4646:	8d56                	mv	s10,s5
    4648:	040d0963          	beqz	s10,469a <ip_frag+0x118>
    464c:	00add403          	lhu	s0,10(s11)
    4650:	008d7363          	bgeu	s10,s0,4656 <ip_frag+0xd4>
    4654:	846a                	mv	s0,s10
    4656:	0442                	slli	s0,s0,0x10
    4658:	8041                	srli	s0,s0,0x10
    465a:	e401                	bnez	s0,4662 <ip_frag+0xe0>
    465c:	000dad83          	lw	s11,0(s11)
    4660:	b7e5                	j	4648 <ip_frag+0xc6>
    4662:	4581                	li	a1,0
    4664:	4609                	li	a2,2
    4666:	450d                	li	a0,3
    4668:	177000ef          	jal	ra,4fde <pbuf_alloc>
    466c:	85aa                	mv	a1,a0
    466e:	e511                	bnez	a0,467a <ip_frag+0xf8>
    4670:	854e                	mv	a0,s3
    4672:	11f000ef          	jal	ra,4f90 <pbuf_free>
    4676:	557d                	li	a0,-1
    4678:	bfad                	j	45f2 <ip_frag+0x70>
    467a:	004da603          	lw	a2,4(s11)
    467e:	a502                	sh	s0,8(a0)
    4680:	a522                	sh	s0,10(a0)
    4682:	c150                	sw	a2,4(a0)
    4684:	854e                	mv	a0,s3
    4686:	30d000ef          	jal	ra,5192 <pbuf_cat>
    468a:	408d06b3          	sub	a3,s10,s0
    468e:	01069d13          	slli	s10,a3,0x10
    4692:	010d5d13          	srli	s10,s10,0x10
    4696:	fc0d13e3          	bnez	s10,465c <ip_frag+0xda>
    469a:	855a                	mv	a0,s6
    469c:	d18ff0ef          	jal	ra,3bb4 <htons>
    46a0:	00ab8323          	sb	a0,6(s7)
    46a4:	8121                	srli	a0,a0,0x8
    46a6:	00ab83a3          	sb	a0,7(s7)
    46aa:	014a8513          	addi	a0,s5,20
    46ae:	0542                	slli	a0,a0,0x10
    46b0:	8141                	srli	a0,a0,0x10
    46b2:	d02ff0ef          	jal	ra,3bb4 <htons>
    46b6:	00ab8123          	sb	a0,2(s7)
    46ba:	8121                	srli	a0,a0,0x8
    46bc:	00ab81a3          	sb	a0,3(s7)
    46c0:	45d1                	li	a1,20
    46c2:	000b8523          	sb	zero,10(s7)
    46c6:	000b85a3          	sb	zero,11(s7)
    46ca:	855e                	mv	a0,s7
    46cc:	14e040ef          	jal	ra,881a <inet_chksum>
    46d0:	014ca703          	lw	a4,20(s9)
    46d4:	4652                	lw	a2,20(sp)
    46d6:	00ab8523          	sb	a0,10(s7)
    46da:	8121                	srli	a0,a0,0x8
    46dc:	00ab85a3          	sb	a0,11(s7)
    46e0:	85ce                	mv	a1,s3
    46e2:	8566                	mv	a0,s9
    46e4:	9702                	jalr	a4
    46e6:	415484b3          	sub	s1,s1,s5
    46ea:	9952                	add	s2,s2,s4
    46ec:	854e                	mv	a0,s3
    46ee:	04c2                	slli	s1,s1,0x10
    46f0:	0942                	slli	s2,s2,0x10
    46f2:	09f000ef          	jal	ra,4f90 <pbuf_free>
    46f6:	80c1                	srli	s1,s1,0x10
    46f8:	01095913          	srli	s2,s2,0x10
    46fc:	8d22                	mv	s10,s0
    46fe:	bdc5                	j	45ee <ip_frag+0x6c>

00004700 <dhcp_set_state>:
dhcp_set_state():
    4700:	293c                	lbu	a5,18(a0)
    4702:	00b78563          	beq	a5,a1,470c <dhcp_set_state+0xc>
    4706:	a92c                	sb	a1,18(a0)
    4708:	000509a3          	sb	zero,19(a0)
    470c:	8082                	ret

0000470e <dhcp_option>:
dhcp_option():
    470e:	2d5e                	lhu	a5,28(a0)
    4710:	4d18                	lw	a4,24(a0)
    4712:	00f706b3          	add	a3,a4,a5
    4716:	0eb68823          	sb	a1,240(a3) # 20f0 <WCHNET_PeriodicHandle+0x72>
    471a:	00278693          	addi	a3,a5,2 # 2002 <USART_Printf_Init+0x2e>
    471e:	0785                	addi	a5,a5,1
    4720:	07c2                	slli	a5,a5,0x10
    4722:	83c1                	srli	a5,a5,0x10
    4724:	ad56                	sh	a3,28(a0)
    4726:	97ba                	add	a5,a5,a4
    4728:	0ec78823          	sb	a2,240(a5)
    472c:	8082                	ret

0000472e <dhcp_option_byte>:
dhcp_option_byte():
    472e:	2d5a                	lhu	a4,28(a0)
    4730:	4d1c                	lw	a5,24(a0)
    4732:	00170693          	addi	a3,a4,1 # 2001 <USART_Printf_Init+0x2d>
    4736:	ad56                	sh	a3,28(a0)
    4738:	97ba                	add	a5,a5,a4
    473a:	0eb78823          	sb	a1,240(a5)
    473e:	8082                	ret

00004740 <dhcp_option_long>:
dhcp_option_long():
    4740:	2d5e                	lhu	a5,28(a0)
    4742:	4d18                	lw	a4,24(a0)
    4744:	0185d613          	srli	a2,a1,0x18
    4748:	00f706b3          	add	a3,a4,a5
    474c:	0ec68823          	sb	a2,240(a3)
    4750:	00178693          	addi	a3,a5,1
    4754:	06c2                	slli	a3,a3,0x10
    4756:	82c1                	srli	a3,a3,0x10
    4758:	96ba                	add	a3,a3,a4
    475a:	0105d613          	srli	a2,a1,0x10
    475e:	0ec68823          	sb	a2,240(a3)
    4762:	00278693          	addi	a3,a5,2
    4766:	06c2                	slli	a3,a3,0x10
    4768:	82c1                	srli	a3,a3,0x10
    476a:	96ba                	add	a3,a3,a4
    476c:	0085d613          	srli	a2,a1,0x8
    4770:	0ec68823          	sb	a2,240(a3)
    4774:	00478693          	addi	a3,a5,4
    4778:	078d                	addi	a5,a5,3
    477a:	07c2                	slli	a5,a5,0x10
    477c:	83c1                	srli	a5,a5,0x10
    477e:	ad56                	sh	a3,28(a0)
    4780:	97ba                	add	a5,a5,a4
    4782:	0eb78823          	sb	a1,240(a5)
    4786:	8082                	ret

00004788 <dhcp_option_trailer>:
dhcp_option_trailer():
    4788:	c115                	beqz	a0,47ac <dhcp_option_trailer+0x24>
    478a:	2d5e                	lhu	a5,28(a0)
    478c:	4d18                	lw	a4,24(a0)
    478e:	04300613          	li	a2,67
    4792:	00178693          	addi	a3,a5,1
    4796:	ad56                	sh	a3,28(a0)
    4798:	97ba                	add	a5,a5,a4
    479a:	56fd                	li	a3,-1
    479c:	0ed78823          	sb	a3,240(a5)
    47a0:	2d5e                	lhu	a5,28(a0)
    47a2:	00f67663          	bgeu	a2,a5,47ae <dhcp_option_trailer+0x26>
    47a6:	0037f693          	andi	a3,a5,3
    47aa:	e291                	bnez	a3,47ae <dhcp_option_trailer+0x26>
    47ac:	8082                	ret
    47ae:	00178693          	addi	a3,a5,1
    47b2:	ad56                	sh	a3,28(a0)
    47b4:	97ba                	add	a5,a5,a4
    47b6:	0e078823          	sb	zero,240(a5)
    47ba:	b7dd                	j	47a0 <dhcp_option_trailer+0x18>

000047bc <dhcp_create_request>:
dhcp_create_request():
    47bc:	16050c63          	beqz	a0,4934 <dhcp_create_request+0x178>
    47c0:	a71fb2ef          	jal	t0,230 <__riscv_save_0>
    47c4:	02052903          	lw	s2,32(a0)
    47c8:	57dd                	li	a5,-9
    47ca:	16090263          	beqz	s2,492e <dhcp_create_request+0x172>
    47ce:	84aa                	mv	s1,a0
    47d0:	4601                	li	a2,0
    47d2:	13400593          	li	a1,308
    47d6:	4501                	li	a0,0
    47d8:	007000ef          	jal	ra,4fde <pbuf_alloc>
    47dc:	00a92a23          	sw	a0,20(s2)
    47e0:	872a                	mv	a4,a0
    47e2:	57fd                	li	a5,-1
    47e4:	14050563          	beqz	a0,492e <dhcp_create_request+0x172>
    47e8:	01394683          	lbu	a3,19(s2)
    47ec:	82418793          	addi	a5,gp,-2012 # 20000044 <xid.3253>
    47f0:	e681                	bnez	a3,47f8 <dhcp_create_request+0x3c>
    47f2:	4394                	lw	a3,0(a5)
    47f4:	0685                	addi	a3,a3,1
    47f6:	c394                	sw	a3,0(a5)
    47f8:	4340                	lw	s0,4(a4)
    47fa:	4388                	lw	a0,0(a5)
    47fc:	4785                	li	a5,1
    47fe:	00892c23          	sw	s0,24(s2)
    4802:	00a92023          	sw	a0,0(s2)
    4806:	a01c                	sb	a5,0(s0)
    4808:	b01c                	sb	a5,1(s0)
    480a:	4799                	li	a5,6
    480c:	a03c                	sb	a5,2(s0)
    480e:	000401a3          	sb	zero,3(s0)
    4812:	bbeff0ef          	jal	ra,3bd0 <htonl>
    4816:	00855793          	srli	a5,a0,0x8
    481a:	a048                	sb	a0,4(s0)
    481c:	b05c                	sb	a5,5(s0)
    481e:	01055793          	srli	a5,a0,0x10
    4822:	8161                	srli	a0,a0,0x18
    4824:	a07c                	sb	a5,6(s0)
    4826:	b068                	sb	a0,7(s0)
    4828:	01892403          	lw	s0,24(s2)
    482c:	4729                	li	a4,10
    482e:	00040423          	sb	zero,8(s0)
    4832:	000404a3          	sb	zero,9(s0)
    4836:	00040523          	sb	zero,10(s0)
    483a:	000405a3          	sb	zero,11(s0)
    483e:	00040623          	sb	zero,12(s0)
    4842:	000406a3          	sb	zero,13(s0)
    4846:	00040723          	sb	zero,14(s0)
    484a:	000407a3          	sb	zero,15(s0)
    484e:	01294783          	lbu	a5,18(s2)
    4852:	00e78863          	beq	a5,a4,4862 <dhcp_create_request+0xa6>
    4856:	17f1                	addi	a5,a5,-4
    4858:	0ff7f793          	andi	a5,a5,255
    485c:	4705                	li	a4,1
    485e:	00f76a63          	bltu	a4,a5,4872 <dhcp_create_request+0xb6>
    4862:	20dc                	lbu	a5,4(s1)
    4864:	a45c                	sb	a5,12(s0)
    4866:	30dc                	lbu	a5,5(s1)
    4868:	b45c                	sb	a5,13(s0)
    486a:	20fc                	lbu	a5,6(s1)
    486c:	a47c                	sb	a5,14(s0)
    486e:	30fc                	lbu	a5,7(s1)
    4870:	b47c                	sb	a5,15(s0)
    4872:	00040823          	sb	zero,16(s0)
    4876:	000408a3          	sb	zero,17(s0)
    487a:	00040923          	sb	zero,18(s0)
    487e:	000409a3          	sb	zero,19(s0)
    4882:	00040a23          	sb	zero,20(s0)
    4886:	00040aa3          	sb	zero,21(s0)
    488a:	00040b23          	sb	zero,22(s0)
    488e:	00040ba3          	sb	zero,23(s0)
    4892:	00040c23          	sb	zero,24(s0)
    4896:	00040ca3          	sb	zero,25(s0)
    489a:	00040d23          	sb	zero,26(s0)
    489e:	00040da3          	sb	zero,27(s0)
    48a2:	0284c583          	lbu	a1,40(s1)
    48a6:	4781                	li	a5,0
    48a8:	4641                	li	a2,16
    48aa:	01079713          	slli	a4,a5,0x10
    48ae:	8341                	srli	a4,a4,0x10
    48b0:	4681                	li	a3,0
    48b2:	00b77663          	bgeu	a4,a1,48be <dhcp_create_request+0x102>
    48b6:	00f48733          	add	a4,s1,a5
    48ba:	02974683          	lbu	a3,41(a4)
    48be:	00f40733          	add	a4,s0,a5
    48c2:	af54                	sb	a3,28(a4)
    48c4:	0785                	addi	a5,a5,1
    48c6:	fec792e3          	bne	a5,a2,48aa <dhcp_create_request+0xee>
    48ca:	02c40713          	addi	a4,s0,44
    48ce:	06c40793          	addi	a5,s0,108
    48d2:	00070023          	sb	zero,0(a4)
    48d6:	0705                	addi	a4,a4,1
    48d8:	fee79de3          	bne	a5,a4,48d2 <dhcp_create_request+0x116>
    48dc:	0ec40713          	addi	a4,s0,236
    48e0:	00078023          	sb	zero,0(a5)
    48e4:	0785                	addi	a5,a5,1
    48e6:	fee79de3          	bne	a5,a4,48e0 <dhcp_create_request+0x124>
    48ea:	63825537          	lui	a0,0x63825
    48ee:	36350513          	addi	a0,a0,867 # 63825363 <_eusrstack+0x43815363>
    48f2:	adeff0ef          	jal	ra,3bd0 <htonl>
    48f6:	00855793          	srli	a5,a0,0x8
    48fa:	0ea40623          	sb	a0,236(s0)
    48fe:	0ef406a3          	sb	a5,237(s0)
    4902:	01892603          	lw	a2,24(s2)
    4906:	01055793          	srli	a5,a0,0x10
    490a:	8161                	srli	a0,a0,0x18
    490c:	0ef40723          	sb	a5,238(s0)
    4910:	0ea407a3          	sb	a0,239(s0)
    4914:	00091e23          	sh	zero,28(s2)
    4918:	4781                	li	a5,0
    491a:	04400713          	li	a4,68
    491e:	00f606b3          	add	a3,a2,a5
    4922:	0ef68823          	sb	a5,240(a3)
    4926:	0785                	addi	a5,a5,1
    4928:	fee79be3          	bne	a5,a4,491e <dhcp_create_request+0x162>
    492c:	4781                	li	a5,0
    492e:	853e                	mv	a0,a5
    4930:	925fb06f          	j	254 <__riscv_restore_0>
    4934:	57d9                	li	a5,-10
    4936:	853e                	mv	a0,a5
    4938:	8082                	ret

0000493a <dhcp_delete_request>:
dhcp_delete_request():
    493a:	cd11                	beqz	a0,4956 <dhcp_delete_request+0x1c>
    493c:	8f5fb2ef          	jal	t0,230 <__riscv_save_0>
    4940:	5100                	lw	s0,32(a0)
    4942:	c801                	beqz	s0,4952 <dhcp_delete_request+0x18>
    4944:	4848                	lw	a0,20(s0)
    4946:	c111                	beqz	a0,494a <dhcp_delete_request+0x10>
    4948:	25a1                	jal	4f90 <pbuf_free>
    494a:	00042a23          	sw	zero,20(s0)
    494e:	00042c23          	sw	zero,24(s0)
    4952:	903fb06f          	j	254 <__riscv_restore_0>
    4956:	8082                	ret

00004958 <dhcp_arp_reply>:
dhcp_arp_reply():
    4958:	18050063          	beqz	a0,4ad8 <dhcp_arp_reply+0x180>
    495c:	8d5fb2ef          	jal	t0,230 <__riscv_save_0>
    4960:	5100                	lw	s0,32(a0)
    4962:	16040963          	beqz	s0,4ad4 <dhcp_arp_reply+0x17c>
    4966:	2838                	lbu	a4,18(s0)
    4968:	47a1                	li	a5,8
    496a:	16f71563          	bne	a4,a5,4ad4 <dhcp_arp_reply+0x17c>
    496e:	3198                	lbu	a4,1(a1)
    4970:	219c                	lbu	a5,0(a1)
    4972:	0722                	slli	a4,a4,0x8
    4974:	8f5d                	or	a4,a4,a5
    4976:	21bc                	lbu	a5,2(a1)
    4978:	07c2                	slli	a5,a5,0x10
    497a:	8f5d                	or	a4,a4,a5
    497c:	31bc                	lbu	a5,3(a1)
    497e:	07e2                	slli	a5,a5,0x18
    4980:	8fd9                	or	a5,a5,a4
    4982:	5418                	lw	a4,40(s0)
    4984:	14e79863          	bne	a5,a4,4ad4 <dhcp_arp_reply+0x17c>
    4988:	84aa                	mv	s1,a0
    498a:	45b1                	li	a1,12
    498c:	8522                	mv	a0,s0
    498e:	d73ff0ef          	jal	ra,4700 <dhcp_set_state>
    4992:	8526                	mv	a0,s1
    4994:	e29ff0ef          	jal	ra,47bc <dhcp_create_request>
    4998:	12051963          	bnez	a0,4aca <dhcp_arp_reply+0x172>
    499c:	4605                	li	a2,1
    499e:	03500593          	li	a1,53
    49a2:	8522                	mv	a0,s0
    49a4:	d6bff0ef          	jal	ra,470e <dhcp_option>
    49a8:	4591                	li	a1,4
    49aa:	8522                	mv	a0,s0
    49ac:	d83ff0ef          	jal	ra,472e <dhcp_option_byte>
    49b0:	4611                	li	a2,4
    49b2:	03200593          	li	a1,50
    49b6:	8522                	mv	a0,s0
    49b8:	d57ff0ef          	jal	ra,470e <dhcp_option>
    49bc:	5408                	lw	a0,40(s0)
    49be:	a36ff0ef          	jal	ra,3bf4 <ntohl>
    49c2:	85aa                	mv	a1,a0
    49c4:	8522                	mv	a0,s0
    49c6:	d7bff0ef          	jal	ra,4740 <dhcp_option_long>
    49ca:	4611                	li	a2,4
    49cc:	03600593          	li	a1,54
    49d0:	8522                	mv	a0,s0
    49d2:	d3dff0ef          	jal	ra,470e <dhcp_option>
    49d6:	5048                	lw	a0,36(s0)
    49d8:	a1cff0ef          	jal	ra,3bf4 <ntohl>
    49dc:	85aa                	mv	a1,a0
    49de:	8522                	mv	a0,s0
    49e0:	d61ff0ef          	jal	ra,4740 <dhcp_option_long>
    49e4:	461d                	li	a2,7
    49e6:	03d00593          	li	a1,61
    49ea:	8522                	mv	a0,s0
    49ec:	d23ff0ef          	jal	ra,470e <dhcp_option>
    49f0:	2c5e                	lhu	a5,28(s0)
    49f2:	4c18                	lw	a4,24(s0)
    49f4:	4605                	li	a2,1
    49f6:	8522                	mv	a0,s0
    49f8:	00f706b3          	add	a3,a4,a5
    49fc:	0ec68823          	sb	a2,240(a3)
    4a00:	00278613          	addi	a2,a5,2
    4a04:	0642                	slli	a2,a2,0x10
    4a06:	8241                	srli	a2,a2,0x10
    4a08:	ac52                	sh	a2,28(s0)
    4a0a:	00178693          	addi	a3,a5,1
    4a0e:	0294c583          	lbu	a1,41(s1)
    4a12:	06c2                	slli	a3,a3,0x10
    4a14:	82c1                	srli	a3,a3,0x10
    4a16:	96ba                	add	a3,a3,a4
    4a18:	0eb68823          	sb	a1,240(a3)
    4a1c:	00378693          	addi	a3,a5,3
    4a20:	06c2                	slli	a3,a3,0x10
    4a22:	82c1                	srli	a3,a3,0x10
    4a24:	ac56                	sh	a3,28(s0)
    4a26:	02a4c583          	lbu	a1,42(s1)
    4a2a:	963a                	add	a2,a2,a4
    4a2c:	96ba                	add	a3,a3,a4
    4a2e:	0eb60823          	sb	a1,240(a2)
    4a32:	00478613          	addi	a2,a5,4
    4a36:	0642                	slli	a2,a2,0x10
    4a38:	8241                	srli	a2,a2,0x10
    4a3a:	ac52                	sh	a2,28(s0)
    4a3c:	02b4c583          	lbu	a1,43(s1)
    4a40:	963a                	add	a2,a2,a4
    4a42:	0eb68823          	sb	a1,240(a3)
    4a46:	00578693          	addi	a3,a5,5
    4a4a:	06c2                	slli	a3,a3,0x10
    4a4c:	82c1                	srli	a3,a3,0x10
    4a4e:	ac56                	sh	a3,28(s0)
    4a50:	02c4c583          	lbu	a1,44(s1)
    4a54:	96ba                	add	a3,a3,a4
    4a56:	0eb60823          	sb	a1,240(a2)
    4a5a:	00678613          	addi	a2,a5,6
    4a5e:	0642                	slli	a2,a2,0x10
    4a60:	8241                	srli	a2,a2,0x10
    4a62:	ac52                	sh	a2,28(s0)
    4a64:	02d4c583          	lbu	a1,45(s1)
    4a68:	079d                	addi	a5,a5,7
    4a6a:	9732                	add	a4,a4,a2
    4a6c:	0eb68823          	sb	a1,240(a3)
    4a70:	ac5e                	sh	a5,28(s0)
    4a72:	02e4c783          	lbu	a5,46(s1)
    4a76:	0ef70823          	sb	a5,240(a4)
    4a7a:	d0fff0ef          	jal	ra,4788 <dhcp_option_trailer>
    4a7e:	2c4e                	lhu	a1,28(s0)
    4a80:	4848                	lw	a0,20(s0)
    4a82:	0f058593          	addi	a1,a1,240
    4a86:	05c2                	slli	a1,a1,0x10
    4a88:	81c1                	srli	a1,a1,0x10
    4a8a:	2d51                	jal	511e <pbuf_realloc>
    4a8c:	02844703          	lbu	a4,40(s0)
    4a90:	4c1c                	lw	a5,24(s0)
    4a92:	484c                	lw	a1,20(s0)
    4a94:	4048                	lw	a0,4(s0)
    4a96:	a7d8                	sb	a4,12(a5)
    4a98:	02944703          	lbu	a4,41(s0)
    4a9c:	0044a903          	lw	s2,4(s1)
    4aa0:	b7d8                	sb	a4,13(a5)
    4aa2:	02a44703          	lbu	a4,42(s0)
    4aa6:	04300693          	li	a3,67
    4aaa:	84c18613          	addi	a2,gp,-1972 # 2000006c <ip_addr_broadcast>
    4aae:	a7f8                	sb	a4,14(a5)
    4ab0:	02b44703          	lbu	a4,43(s0)
    4ab4:	b7f8                	sb	a4,15(a5)
    4ab6:	0004a223          	sw	zero,4(s1)
    4aba:	8726                	mv	a4,s1
    4abc:	72a030ef          	jal	ra,81e6 <udp_sendto_if>
    4ac0:	8526                	mv	a0,s1
    4ac2:	0124a223          	sw	s2,4(s1)
    4ac6:	e75ff0ef          	jal	ra,493a <dhcp_delete_request>
    4aca:	383c                	lbu	a5,19(s0)
    4acc:	0785                	addi	a5,a5,1
    4ace:	b83c                	sb	a5,19(s0)
    4ad0:	4785                	li	a5,1
    4ad2:	ac7e                	sh	a5,30(s0)
    4ad4:	f80fb06f          	j	254 <__riscv_restore_0>
    4ad8:	8082                	ret

00004ada <lwip_init>:
lwip_init():
    4ada:	f56fb2ef          	jal	t0,230 <__riscv_save_0>
    4ade:	2811                	jal	4af2 <mem_init>
    4ae0:	24bd                	jal	4d4e <memp_init>
    4ae2:	200067b7          	lui	a5,0x20006
    4ae6:	1f47a783          	lw	a5,500(a5) # 200061f4 <DNSInf+0x8>
    4aea:	c391                	beqz	a5,4aee <lwip_init+0x14>
    4aec:	9782                	jalr	a5
    4aee:	f66fb06f          	j	254 <__riscv_restore_0>

00004af2 <mem_init>:
mem_init():
    4af2:	20003737          	lui	a4,0x20003
    4af6:	5cb70713          	addi	a4,a4,1483 # 200035cb <Mem_Heap_Memory+0x3>
    4afa:	9b71                	andi	a4,a4,-4
    4afc:	8ce1aa23          	sw	a4,-1836(gp) # 200000f4 <ram>
    4b00:	200067b7          	lui	a5,0x20006
    4b04:	2587a783          	lw	a5,600(a5) # 20006258 <WCHCfg+0x8>
    4b08:	00071123          	sh	zero,2(a4)
    4b0c:	078d                	addi	a5,a5,3
    4b0e:	9bf1                	andi	a5,a5,-4
    4b10:	01079693          	slli	a3,a5,0x10
    4b14:	82c1                	srli	a3,a3,0x10
    4b16:	97ba                	add	a5,a5,a4
    4b18:	a316                	sh	a3,0(a4)
    4b1a:	00070223          	sb	zero,4(a4)
    4b1e:	8cf1ac23          	sw	a5,-1832(gp) # 200000f8 <ram_end>
    4b22:	4605                	li	a2,1
    4b24:	a3d0                	sb	a2,4(a5)
    4b26:	a396                	sh	a3,0(a5)
    4b28:	a3b6                	sh	a3,2(a5)
    4b2a:	8ce1a823          	sw	a4,-1840(gp) # 200000f0 <lfree>
    4b2e:	8082                	ret

00004b30 <mem_free>:
mem_free():
    4b30:	c149                	beqz	a0,4bb2 <mem_free+0x82>
    4b32:	8d41a783          	lw	a5,-1836(gp) # 200000f4 <ram>
    4b36:	06f56e63          	bltu	a0,a5,4bb2 <mem_free+0x82>
    4b3a:	8d81a583          	lw	a1,-1832(gp) # 200000f8 <ram_end>
    4b3e:	06b57a63          	bgeu	a0,a1,4bb2 <mem_free+0x82>
    4b42:	8d01a683          	lw	a3,-1840(gp) # 200000f0 <lfree>
    4b46:	ff850613          	addi	a2,a0,-8
    4b4a:	fe050e23          	sb	zero,-4(a0)
    4b4e:	8d018713          	addi	a4,gp,-1840 # 200000f0 <lfree>
    4b52:	00d67363          	bgeu	a2,a3,4b58 <mem_free+0x28>
    4b56:	c310                	sw	a2,0(a4)
    4b58:	ff855683          	lhu	a3,-8(a0)
    4b5c:	96be                	add	a3,a3,a5
    4b5e:	02d60463          	beq	a2,a3,4b86 <mem_free+0x56>
    4b62:	0046c803          	lbu	a6,4(a3)
    4b66:	02081063          	bnez	a6,4b86 <mem_free+0x56>
    4b6a:	00d58e63          	beq	a1,a3,4b86 <mem_free+0x56>
    4b6e:	430c                	lw	a1,0(a4)
    4b70:	00b69363          	bne	a3,a1,4b76 <mem_free+0x46>
    4b74:	c310                	sw	a2,0(a4)
    4b76:	228e                	lhu	a1,0(a3)
    4b78:	feb51c23          	sh	a1,-8(a0)
    4b7c:	2296                	lhu	a3,0(a3)
    4b7e:	40f605b3          	sub	a1,a2,a5
    4b82:	96be                	add	a3,a3,a5
    4b84:	a2ae                	sh	a1,2(a3)
    4b86:	ffa55583          	lhu	a1,-6(a0)
    4b8a:	00b786b3          	add	a3,a5,a1
    4b8e:	02d60263          	beq	a2,a3,4bb2 <mem_free+0x82>
    4b92:	0046c803          	lbu	a6,4(a3)
    4b96:	00081e63          	bnez	a6,4bb2 <mem_free+0x82>
    4b9a:	00072803          	lw	a6,0(a4)
    4b9e:	01061363          	bne	a2,a6,4ba4 <mem_free+0x74>
    4ba2:	c314                	sw	a3,0(a4)
    4ba4:	ff855703          	lhu	a4,-8(a0)
    4ba8:	a29a                	sh	a4,0(a3)
    4baa:	ff855703          	lhu	a4,-8(a0)
    4bae:	97ba                	add	a5,a5,a4
    4bb0:	a3ae                	sh	a1,2(a5)
    4bb2:	8082                	ret

00004bb4 <mem_realloc>:
mem_realloc():
    4bb4:	058d                	addi	a1,a1,3
    4bb6:	05c2                	slli	a1,a1,0x10
    4bb8:	81c1                	srli	a1,a1,0x10
    4bba:	99f1                	andi	a1,a1,-4
    4bbc:	05c2                	slli	a1,a1,0x10
    4bbe:	81c1                	srli	a1,a1,0x10
    4bc0:	4731                	li	a4,12
    4bc2:	87ae                	mv	a5,a1
    4bc4:	00e5f363          	bgeu	a1,a4,4bca <mem_realloc+0x16>
    4bc8:	47b1                	li	a5,12
    4bca:	20006737          	lui	a4,0x20006
    4bce:	25872603          	lw	a2,600(a4) # 20006258 <WCHCfg+0x8>
    4bd2:	07c2                	slli	a5,a5,0x10
    4bd4:	83c1                	srli	a5,a5,0x10
    4bd6:	060d                	addi	a2,a2,3
    4bd8:	9a71                	andi	a2,a2,-4
    4bda:	0af66063          	bltu	a2,a5,4c7a <mem_realloc+0xc6>
    4bde:	8d41a703          	lw	a4,-1836(gp) # 200000f4 <ram>
    4be2:	08e56d63          	bltu	a0,a4,4c7c <mem_realloc+0xc8>
    4be6:	8d81a683          	lw	a3,-1832(gp) # 200000f8 <ram_end>
    4bea:	08d57963          	bgeu	a0,a3,4c7c <mem_realloc+0xc8>
    4bee:	ff850693          	addi	a3,a0,-8
    4bf2:	ff855883          	lhu	a7,-8(a0)
    4bf6:	8e99                	sub	a3,a3,a4
    4bf8:	06c2                	slli	a3,a3,0x10
    4bfa:	82c1                	srli	a3,a3,0x10
    4bfc:	ff888593          	addi	a1,a7,-8
    4c00:	8d95                	sub	a1,a1,a3
    4c02:	05c2                	slli	a1,a1,0x10
    4c04:	81c1                	srli	a1,a1,0x10
    4c06:	06f5ea63          	bltu	a1,a5,4c7a <mem_realloc+0xc6>
    4c0a:	06f58963          	beq	a1,a5,4c7c <mem_realloc+0xc8>
    4c0e:	01170333          	add	t1,a4,a7
    4c12:	00434803          	lbu	a6,4(t1) # 80000004 <_eusrstack+0x5fff0004>
    4c16:	02081463          	bnez	a6,4c3e <mem_realloc+0x8a>
    4c1a:	00868593          	addi	a1,a3,8
    4c1e:	8d018813          	addi	a6,gp,-1840 # 200000f0 <lfree>
    4c22:	97ae                	add	a5,a5,a1
    4c24:	00082e03          	lw	t3,0(a6)
    4c28:	07c2                	slli	a5,a5,0x10
    4c2a:	83c1                	srli	a5,a5,0x10
    4c2c:	00035883          	lhu	a7,0(t1)
    4c30:	00f705b3          	add	a1,a4,a5
    4c34:	026e1663          	bne	t3,t1,4c60 <mem_realloc+0xac>
    4c38:	00b82023          	sw	a1,0(a6)
    4c3c:	a015                	j	4c60 <mem_realloc+0xac>
    4c3e:	01478813          	addi	a6,a5,20
    4c42:	0305ed63          	bltu	a1,a6,4c7c <mem_realloc+0xc8>
    4c46:	00868593          	addi	a1,a3,8
    4c4a:	97ae                	add	a5,a5,a1
    4c4c:	8d018813          	addi	a6,gp,-1840 # 200000f0 <lfree>
    4c50:	07c2                	slli	a5,a5,0x10
    4c52:	00082303          	lw	t1,0(a6)
    4c56:	83c1                	srli	a5,a5,0x10
    4c58:	00f705b3          	add	a1,a4,a5
    4c5c:	fc65eee3          	bltu	a1,t1,4c38 <mem_realloc+0x84>
    4c60:	01159023          	sh	a7,0(a1)
    4c64:	a1b6                	sh	a3,2(a1)
    4c66:	00058223          	sb	zero,4(a1)
    4c6a:	fef51c23          	sh	a5,-8(a0)
    4c6e:	2196                	lhu	a3,0(a1)
    4c70:	00d60663          	beq	a2,a3,4c7c <mem_realloc+0xc8>
    4c74:	9736                	add	a4,a4,a3
    4c76:	a33e                	sh	a5,2(a4)
    4c78:	8082                	ret
    4c7a:	4501                	li	a0,0
    4c7c:	8082                	ret

00004c7e <mem_malloc>:
mem_malloc():
    4c7e:	c539                	beqz	a0,4ccc <mem_malloc+0x4e>
    4c80:	00350713          	addi	a4,a0,3
    4c84:	0742                	slli	a4,a4,0x10
    4c86:	8341                	srli	a4,a4,0x10
    4c88:	9b71                	andi	a4,a4,-4
    4c8a:	0742                	slli	a4,a4,0x10
    4c8c:	8341                	srli	a4,a4,0x10
    4c8e:	46b1                	li	a3,12
    4c90:	87ba                	mv	a5,a4
    4c92:	00d77363          	bgeu	a4,a3,4c98 <mem_malloc+0x1a>
    4c96:	47b1                	li	a5,12
    4c98:	20006737          	lui	a4,0x20006
    4c9c:	25872603          	lw	a2,600(a4) # 20006258 <WCHCfg+0x8>
    4ca0:	07c2                	slli	a5,a5,0x10
    4ca2:	83c1                	srli	a5,a5,0x10
    4ca4:	060d                	addi	a2,a2,3
    4ca6:	9a71                	andi	a2,a2,-4
    4ca8:	4501                	li	a0,0
    4caa:	02f66263          	bltu	a2,a5,4cce <mem_malloc+0x50>
    4cae:	8d01a703          	lw	a4,-1840(gp) # 200000f0 <lfree>
    4cb2:	8d41ae83          	lw	t4,-1836(gp) # 200000f4 <ram>
    4cb6:	8d018593          	addi	a1,gp,-1840 # 200000f0 <lfree>
    4cba:	40f60333          	sub	t1,a2,a5
    4cbe:	41d706b3          	sub	a3,a4,t4
    4cc2:	06c2                	slli	a3,a3,0x10
    4cc4:	82c1                	srli	a3,a3,0x10
    4cc6:	5e61                	li	t3,-8
    4cc8:	0066e463          	bltu	a3,t1,4cd0 <mem_malloc+0x52>
    4ccc:	4501                	li	a0,0
    4cce:	8082                	ret
    4cd0:	00de8533          	add	a0,t4,a3
    4cd4:	00454803          	lbu	a6,4(a0)
    4cd8:	00055883          	lhu	a7,0(a0)
    4cdc:	06081763          	bnez	a6,4d4a <mem_malloc+0xcc>
    4ce0:	40de0833          	sub	a6,t3,a3
    4ce4:	9846                	add	a6,a6,a7
    4ce6:	06f86263          	bltu	a6,a5,4d4a <mem_malloc+0xcc>
    4cea:	01478313          	addi	t1,a5,20
    4cee:	04686263          	bltu	a6,t1,4d32 <mem_malloc+0xb4>
    4cf2:	07a1                	addi	a5,a5,8
    4cf4:	97b6                	add	a5,a5,a3
    4cf6:	07c2                	slli	a5,a5,0x10
    4cf8:	83c1                	srli	a5,a5,0x10
    4cfa:	00fe8833          	add	a6,t4,a5
    4cfe:	01181023          	sh	a7,0(a6)
    4d02:	00d81123          	sh	a3,2(a6)
    4d06:	00080223          	sb	zero,4(a6)
    4d0a:	4685                	li	a3,1
    4d0c:	a11e                	sh	a5,0(a0)
    4d0e:	a154                	sb	a3,4(a0)
    4d10:	00085683          	lhu	a3,0(a6)
    4d14:	00d60463          	beq	a2,a3,4d1c <mem_malloc+0x9e>
    4d18:	96f6                	add	a3,a3,t4
    4d1a:	a2be                	sh	a5,2(a3)
    4d1c:	00a71963          	bne	a4,a0,4d2e <mem_malloc+0xb0>
    4d20:	8d81a683          	lw	a3,-1832(gp) # 200000f8 <ram_end>
    4d24:	4781                	li	a5,0
    4d26:	2350                	lbu	a2,4(a4)
    4d28:	ee01                	bnez	a2,4d40 <mem_malloc+0xc2>
    4d2a:	c391                	beqz	a5,4d2e <mem_malloc+0xb0>
    4d2c:	c198                	sw	a4,0(a1)
    4d2e:	0521                	addi	a0,a0,8
    4d30:	8082                	ret
    4d32:	4785                	li	a5,1
    4d34:	a15c                	sb	a5,4(a0)
    4d36:	b7dd                	j	4d1c <mem_malloc+0x9e>
    4d38:	231a                	lhu	a4,0(a4)
    4d3a:	4785                	li	a5,1
    4d3c:	9776                	add	a4,a4,t4
    4d3e:	b7e5                	j	4d26 <mem_malloc+0xa8>
    4d40:	fee69ce3          	bne	a3,a4,4d38 <mem_malloc+0xba>
    4d44:	d7ed                	beqz	a5,4d2e <mem_malloc+0xb0>
    4d46:	c194                	sw	a3,0(a1)
    4d48:	b7dd                	j	4d2e <mem_malloc+0xb0>
    4d4a:	86c6                	mv	a3,a7
    4d4c:	bfb5                	j	4cc8 <mem_malloc+0x4a>

00004d4e <memp_init>:
memp_init():
    4d4e:	8281a583          	lw	a1,-2008(gp) # 20000048 <memp_num>
    4d52:	82c1a683          	lw	a3,-2004(gp) # 2000004c <memp_sizes>
    4d56:	200057b7          	lui	a5,0x20005
    4d5a:	80f78793          	addi	a5,a5,-2033 # 2000480f <Memp_Memory+0x3>
    4d5e:	20006737          	lui	a4,0x20006
    4d62:	9bf1                	andi	a5,a5,-4
    4d64:	2b470713          	addi	a4,a4,692 # 200062b4 <memp_tab>
    4d68:	01068513          	addi	a0,a3,16
    4d6c:	0005d803          	lhu	a6,0(a1)
    4d70:	00072023          	sw	zero,0(a4)
    4d74:	4601                	li	a2,0
    4d76:	00c81863          	bne	a6,a2,4d86 <memp_init+0x38>
    4d7a:	0689                	addi	a3,a3,2
    4d7c:	0711                	addi	a4,a4,4
    4d7e:	0589                	addi	a1,a1,2
    4d80:	fea696e3          	bne	a3,a0,4d6c <memp_init+0x1e>
    4d84:	8082                	ret
    4d86:	00072883          	lw	a7,0(a4)
    4d8a:	0605                	addi	a2,a2,1
    4d8c:	0642                	slli	a2,a2,0x10
    4d8e:	0117a023          	sw	a7,0(a5)
    4d92:	0006d883          	lhu	a7,0(a3)
    4d96:	c31c                	sw	a5,0(a4)
    4d98:	8241                	srli	a2,a2,0x10
    4d9a:	97c6                	add	a5,a5,a7
    4d9c:	bfe9                	j	4d76 <memp_init+0x28>

00004d9e <memp_malloc>:
memp_malloc():
    4d9e:	479d                	li	a5,7
    4da0:	00a7ed63          	bltu	a5,a0,4dba <memp_malloc+0x1c>
    4da4:	200067b7          	lui	a5,0x20006
    4da8:	050a                	slli	a0,a0,0x2
    4daa:	2b478793          	addi	a5,a5,692 # 200062b4 <memp_tab>
    4dae:	97aa                	add	a5,a5,a0
    4db0:	4388                	lw	a0,0(a5)
    4db2:	c509                	beqz	a0,4dbc <memp_malloc+0x1e>
    4db4:	4118                	lw	a4,0(a0)
    4db6:	c398                	sw	a4,0(a5)
    4db8:	8082                	ret
    4dba:	4501                	li	a0,0
    4dbc:	8082                	ret

00004dbe <memp_free>:
memp_free():
    4dbe:	c999                	beqz	a1,4dd4 <memp_free+0x16>
    4dc0:	00251793          	slli	a5,a0,0x2
    4dc4:	20006537          	lui	a0,0x20006
    4dc8:	2b450513          	addi	a0,a0,692 # 200062b4 <memp_tab>
    4dcc:	953e                	add	a0,a0,a5
    4dce:	411c                	lw	a5,0(a0)
    4dd0:	c19c                	sw	a5,0(a1)
    4dd2:	c10c                	sw	a1,0(a0)
    4dd4:	8082                	ret

00004dd6 <netif_set_ipaddr>:
netif_set_ipaddr():
    4dd6:	c40fb2ef          	jal	t0,216 <__riscv_save_4>
    4dda:	3198                	lbu	a4,1(a1)
    4ddc:	219c                	lbu	a5,0(a1)
    4dde:	84aa                	mv	s1,a0
    4de0:	0722                	slli	a4,a4,0x8
    4de2:	8f5d                	or	a4,a4,a5
    4de4:	21bc                	lbu	a5,2(a1)
    4de6:	842e                	mv	s0,a1
    4de8:	07c2                	slli	a5,a5,0x10
    4dea:	8f5d                	or	a4,a4,a5
    4dec:	31bc                	lbu	a5,3(a1)
    4dee:	07e2                	slli	a5,a5,0x18
    4df0:	8fd9                	or	a5,a5,a4
    4df2:	4158                	lw	a4,4(a0)
    4df4:	00e79f63          	bne	a5,a4,4e12 <netif_set_ipaddr+0x3c>
    4df8:	3018                	lbu	a4,1(s0)
    4dfa:	201c                	lbu	a5,0(s0)
    4dfc:	0722                	slli	a4,a4,0x8
    4dfe:	8f5d                	or	a4,a4,a5
    4e00:	203c                	lbu	a5,2(s0)
    4e02:	07c2                	slli	a5,a5,0x10
    4e04:	8f5d                	or	a4,a4,a5
    4e06:	303c                	lbu	a5,3(s0)
    4e08:	07e2                	slli	a5,a5,0x18
    4e0a:	8fd9                	or	a5,a5,a4
    4e0c:	c0dc                	sw	a5,4(s1)
    4e0e:	c3cfb06f          	j	24a <__riscv_restore_4>
    4e12:	8ec1a503          	lw	a0,-1812(gp) # 2000010c <tcp_active_pcbs>
    4e16:	4901                	li	s2,0
    4e18:	06400993          	li	s3,100
    4e1c:	c105                	beqz	a0,4e3c <netif_set_ipaddr+0x66>
    4e1e:	4118                	lw	a4,0(a0)
    4e20:	40dc                	lw	a5,4(s1)
    4e22:	00c52a03          	lw	s4,12(a0)
    4e26:	04f71163          	bne	a4,a5,4e68 <netif_set_ipaddr+0x92>
    4e2a:	4585                	li	a1,1
    4e2c:	4e5000ef          	jal	ra,5b10 <tcp_abandon>
    4e30:	00190793          	addi	a5,s2,1
    4e34:	0ff7f793          	andi	a5,a5,255
    4e38:	0329f763          	bgeu	s3,s2,4e66 <netif_set_ipaddr+0x90>
    4e3c:	8f41a783          	lw	a5,-1804(gp) # 20000114 <tcp_listen_pcbs>
    4e40:	dfc5                	beqz	a5,4df8 <netif_set_ipaddr+0x22>
    4e42:	4398                	lw	a4,0(a5)
    4e44:	cf19                	beqz	a4,4e62 <netif_set_ipaddr+0x8c>
    4e46:	40d4                	lw	a3,4(s1)
    4e48:	00d71d63          	bne	a4,a3,4e62 <netif_set_ipaddr+0x8c>
    4e4c:	3014                	lbu	a3,1(s0)
    4e4e:	2018                	lbu	a4,0(s0)
    4e50:	06a2                	slli	a3,a3,0x8
    4e52:	8ed9                	or	a3,a3,a4
    4e54:	2038                	lbu	a4,2(s0)
    4e56:	0742                	slli	a4,a4,0x10
    4e58:	8ed9                	or	a3,a3,a4
    4e5a:	3038                	lbu	a4,3(s0)
    4e5c:	0762                	slli	a4,a4,0x18
    4e5e:	8f55                	or	a4,a4,a3
    4e60:	c398                	sw	a4,0(a5)
    4e62:	47dc                	lw	a5,12(a5)
    4e64:	bff1                	j	4e40 <netif_set_ipaddr+0x6a>
    4e66:	893e                	mv	s2,a5
    4e68:	8552                	mv	a0,s4
    4e6a:	bf4d                	j	4e1c <netif_set_ipaddr+0x46>

00004e6c <netif_set_addr>:
netif_set_addr():
    4e6c:	bc4fb2ef          	jal	t0,230 <__riscv_save_0>
    4e70:	1141                	addi	sp,sp,-16
    4e72:	c632                	sw	a2,12(sp)
    4e74:	c436                	sw	a3,8(sp)
    4e76:	842a                	mv	s0,a0
    4e78:	f5fff0ef          	jal	ra,4dd6 <netif_set_ipaddr>
    4e7c:	4632                	lw	a2,12(sp)
    4e7e:	46a2                	lw	a3,8(sp)
    4e80:	4781                	li	a5,0
    4e82:	ca19                	beqz	a2,4e98 <netif_set_addr+0x2c>
    4e84:	3218                	lbu	a4,1(a2)
    4e86:	221c                	lbu	a5,0(a2)
    4e88:	0722                	slli	a4,a4,0x8
    4e8a:	8f5d                	or	a4,a4,a5
    4e8c:	223c                	lbu	a5,2(a2)
    4e8e:	07c2                	slli	a5,a5,0x10
    4e90:	8f5d                	or	a4,a4,a5
    4e92:	323c                	lbu	a5,3(a2)
    4e94:	07e2                	slli	a5,a5,0x18
    4e96:	8fd9                	or	a5,a5,a4
    4e98:	c41c                	sw	a5,8(s0)
    4e9a:	4781                	li	a5,0
    4e9c:	ca99                	beqz	a3,4eb2 <netif_set_addr+0x46>
    4e9e:	3298                	lbu	a4,1(a3)
    4ea0:	229c                	lbu	a5,0(a3)
    4ea2:	0722                	slli	a4,a4,0x8
    4ea4:	8f5d                	or	a4,a4,a5
    4ea6:	22bc                	lbu	a5,2(a3)
    4ea8:	07c2                	slli	a5,a5,0x10
    4eaa:	8f5d                	or	a4,a4,a5
    4eac:	32bc                	lbu	a5,3(a3)
    4eae:	07e2                	slli	a5,a5,0x18
    4eb0:	8fd9                	or	a5,a5,a4
    4eb2:	c45c                	sw	a5,12(s0)
    4eb4:	0141                	addi	sp,sp,16
    4eb6:	b9efb06f          	j	254 <__riscv_restore_0>

00004eba <netif_add>:
netif_add():
    4eba:	b76fb2ef          	jal	t0,230 <__riscv_save_0>
    4ebe:	cd58                	sw	a4,28(a0)
    4ec0:	8e418713          	addi	a4,gp,-1820 # 20000104 <netifnum.2468>
    4ec4:	00074883          	lbu	a7,0(a4)
    4ec8:	1141                	addi	sp,sp,-16
    4eca:	00052223          	sw	zero,4(a0)
    4ece:	00052423          	sw	zero,8(a0)
    4ed2:	00052623          	sw	zero,12(a0)
    4ed6:	02050923          	sb	zero,50(a0)
    4eda:	02052023          	sw	zero,32(a0)
    4ede:	00188313          	addi	t1,a7,1
    4ee2:	03150aa3          	sb	a7,53(a0)
    4ee6:	01052823          	sw	a6,16(a0)
    4eea:	842a                	mv	s0,a0
    4eec:	c63e                	sw	a5,12(sp)
    4eee:	00670023          	sb	t1,0(a4)
    4ef2:	f7bff0ef          	jal	ra,4e6c <netif_set_addr>
    4ef6:	47b2                	lw	a5,12(sp)
    4ef8:	8522                	mv	a0,s0
    4efa:	9782                	jalr	a5
    4efc:	e911                	bnez	a0,4f10 <netif_add+0x56>
    4efe:	8e018793          	addi	a5,gp,-1824 # 20000100 <netif_list>
    4f02:	4398                	lw	a4,0(a5)
    4f04:	c018                	sw	a4,0(s0)
    4f06:	c380                	sw	s0,0(a5)
    4f08:	8522                	mv	a0,s0
    4f0a:	0141                	addi	sp,sp,16
    4f0c:	b48fb06f          	j	254 <__riscv_restore_0>
    4f10:	4401                	li	s0,0
    4f12:	bfdd                	j	4f08 <netif_add+0x4e>

00004f14 <netif_set_default>:
netif_set_default():
    4f14:	8ca1ae23          	sw	a0,-1828(gp) # 200000fc <netif_default>
    4f18:	8082                	ret

00004f1a <netif_is_up>:
netif_is_up():
    4f1a:	03254503          	lbu	a0,50(a0)
    4f1e:	8905                	andi	a0,a0,1
    4f20:	8082                	ret

00004f22 <pbuf_header>:
pbuf_header():
    4f22:	87aa                	mv	a5,a0
    4f24:	4501                	li	a0,0
    4f26:	c5a5                	beqz	a1,4f8e <pbuf_header+0x6c>
    4f28:	c3bd                	beqz	a5,4f8e <pbuf_header+0x6c>
    4f2a:	01059613          	slli	a2,a1,0x10
    4f2e:	8241                	srli	a2,a2,0x10
    4f30:	8832                	mv	a6,a2
    4f32:	0005db63          	bgez	a1,4f48 <pbuf_header+0x26>
    4f36:	40c00833          	neg	a6,a2
    4f3a:	27ba                	lhu	a4,10(a5)
    4f3c:	0842                	slli	a6,a6,0x10
    4f3e:	01085813          	srli	a6,a6,0x10
    4f42:	4505                	li	a0,1
    4f44:	05076563          	bltu	a4,a6,4f8e <pbuf_header+0x6c>
    4f48:	27d4                	lbu	a3,12(a5)
    4f4a:	43d8                	lw	a4,4(a5)
    4f4c:	c681                	beqz	a3,4f54 <pbuf_header+0x32>
    4f4e:	450d                	li	a0,3
    4f50:	02a69163          	bne	a3,a0,4f72 <pbuf_header+0x50>
    4f54:	8f0d                	sub	a4,a4,a1
    4f56:	01078693          	addi	a3,a5,16
    4f5a:	4505                	li	a0,1
    4f5c:	02d76963          	bltu	a4,a3,4f8e <pbuf_header+0x6c>
    4f60:	c3d8                	sw	a4,4(a5)
    4f62:	27ba                	lhu	a4,10(a5)
    4f64:	4501                	li	a0,0
    4f66:	9732                	add	a4,a4,a2
    4f68:	a7ba                	sh	a4,10(a5)
    4f6a:	279a                	lhu	a4,8(a5)
    4f6c:	963a                	add	a2,a2,a4
    4f6e:	a792                	sh	a2,8(a5)
    4f70:	8082                	ret
    4f72:	16fd                	addi	a3,a3,-1
    4f74:	06c2                	slli	a3,a3,0x10
    4f76:	82c1                	srli	a3,a3,0x10
    4f78:	4885                	li	a7,1
    4f7a:	4505                	li	a0,1
    4f7c:	00d8e963          	bltu	a7,a3,4f8e <pbuf_header+0x6c>
    4f80:	0005d763          	bgez	a1,4f8e <pbuf_header+0x6c>
    4f84:	27b6                	lhu	a3,10(a5)
    4f86:	0106e463          	bltu	a3,a6,4f8e <pbuf_header+0x6c>
    4f8a:	8f0d                	sub	a4,a4,a1
    4f8c:	bfd1                	j	4f60 <pbuf_header+0x3e>
    4f8e:	8082                	ret

00004f90 <pbuf_free>:
pbuf_free():
    4f90:	a86fb2ef          	jal	t0,216 <__riscv_save_4>
    4f94:	4401                	li	s0,0
    4f96:	cd0d                	beqz	a0,4fd0 <pbuf_free+0x40>
    4f98:	85aa                	mv	a1,a0
    4f9a:	4401                	li	s0,0
    4f9c:	490d                	li	s2,3
    4f9e:	4985                	li	s3,1
    4fa0:	25fe                	lhu	a5,14(a1)
    4fa2:	17fd                	addi	a5,a5,-1
    4fa4:	07c2                	slli	a5,a5,0x10
    4fa6:	83c1                	srli	a5,a5,0x10
    4fa8:	a5fe                	sh	a5,14(a1)
    4faa:	e39d                	bnez	a5,4fd0 <pbuf_free+0x40>
    4fac:	25dc                	lbu	a5,12(a1)
    4fae:	4184                	lw	s1,0(a1)
    4fb0:	451d                	li	a0,7
    4fb2:	01278863          	beq	a5,s2,4fc2 <pbuf_free+0x32>
    4fb6:	17fd                	addi	a5,a5,-1
    4fb8:	07c2                	slli	a5,a5,0x10
    4fba:	83c1                	srli	a5,a5,0x10
    4fbc:	00f9ed63          	bltu	s3,a5,4fd6 <pbuf_free+0x46>
    4fc0:	4519                	li	a0,6
    4fc2:	dfdff0ef          	jal	ra,4dbe <memp_free>
    4fc6:	0405                	addi	s0,s0,1
    4fc8:	0ff47413          	andi	s0,s0,255
    4fcc:	85a6                	mv	a1,s1
    4fce:	f8e9                	bnez	s1,4fa0 <pbuf_free+0x10>
    4fd0:	8522                	mv	a0,s0
    4fd2:	a78fb06f          	j	24a <__riscv_restore_4>
    4fd6:	852e                	mv	a0,a1
    4fd8:	b59ff0ef          	jal	ra,4b30 <mem_free>
    4fdc:	b7ed                	j	4fc6 <pbuf_free+0x36>

00004fde <pbuf_alloc>:
pbuf_alloc():
    4fde:	a38fb2ef          	jal	t0,216 <__riscv_save_4>
    4fe2:	4785                	li	a5,1
    4fe4:	00f50d63          	beq	a0,a5,4ffe <pbuf_alloc+0x20>
    4fe8:	c531                	beqz	a0,5034 <pbuf_alloc+0x56>
    4fea:	4789                	li	a5,2
    4fec:	04f50663          	beq	a0,a5,5038 <pbuf_alloc+0x5a>
    4ff0:	478d                	li	a5,3
    4ff2:	04f50563          	beq	a0,a5,503c <pbuf_alloc+0x5e>
    4ff6:	4401                	li	s0,0
    4ff8:	8522                	mv	a0,s0
    4ffa:	a50fb06f          	j	24a <__riscv_restore_4>
    4ffe:	4481                	li	s1,0
    5000:	04d1                	addi	s1,s1,20
    5002:	04b9                	addi	s1,s1,14
    5004:	04c2                	slli	s1,s1,0x10
    5006:	80c1                	srli	s1,s1,0x10
    5008:	4789                	li	a5,2
    500a:	89b2                	mv	s3,a2
    500c:	892e                	mv	s2,a1
    500e:	02c7e963          	bltu	a5,a2,5040 <pbuf_alloc+0x62>
    5012:	ca79                	beqz	a2,50e8 <pbuf_alloc+0x10a>
    5014:	4519                	li	a0,6
    5016:	d89ff0ef          	jal	ra,4d9e <memp_malloc>
    501a:	842a                	mv	s0,a0
    501c:	dd69                	beqz	a0,4ff6 <pbuf_alloc+0x18>
    501e:	00052223          	sw	zero,4(a0)
    5022:	01251423          	sh	s2,8(a0)
    5026:	01251523          	sh	s2,10(a0)
    502a:	00052023          	sw	zero,0(a0)
    502e:	01350623          	sb	s3,12(a0)
    5032:	a0b5                	j	509e <pbuf_alloc+0xc0>
    5034:	44d1                	li	s1,20
    5036:	b7e9                	j	5000 <pbuf_alloc+0x22>
    5038:	4481                	li	s1,0
    503a:	b7e1                	j	5002 <pbuf_alloc+0x24>
    503c:	4481                	li	s1,0
    503e:	b7e9                	j	5008 <pbuf_alloc+0x2a>
    5040:	478d                	li	a5,3
    5042:	4401                	li	s0,0
    5044:	faf61ae3          	bne	a2,a5,4ff8 <pbuf_alloc+0x1a>
    5048:	451d                	li	a0,7
    504a:	d55ff0ef          	jal	ra,4d9e <memp_malloc>
    504e:	842a                	mv	s0,a0
    5050:	d15d                	beqz	a0,4ff6 <pbuf_alloc+0x18>
    5052:	009507b3          	add	a5,a0,s1
    5056:	07cd                	addi	a5,a5,19
    5058:	9bf1                	andi	a5,a5,-4
    505a:	20006737          	lui	a4,0x20006
    505e:	c15c                	sw	a5,4(a0)
    5060:	25070793          	addi	a5,a4,592 # 20006250 <WCHCfg>
    5064:	43dc                	lw	a5,4(a5)
    5066:	048d                	addi	s1,s1,3
    5068:	98f1                	andi	s1,s1,-4
    506a:	03978793          	addi	a5,a5,57
    506e:	9bf1                	andi	a5,a5,-4
    5070:	01350623          	sb	s3,12(a0)
    5074:	00052023          	sw	zero,0(a0)
    5078:	01251423          	sh	s2,8(a0)
    507c:	409784b3          	sub	s1,a5,s1
    5080:	25070993          	addi	s3,a4,592
    5084:	00997363          	bgeu	s2,s1,508a <pbuf_alloc+0xac>
    5088:	84ca                	mv	s1,s2
    508a:	4785                	li	a5,1
    508c:	a426                	sh	s1,10(s0)
    508e:	a47e                	sh	a5,14(s0)
    5090:	409904b3          	sub	s1,s2,s1
    5094:	4a0d                	li	s4,3
    5096:	8922                	mv	s2,s0
    5098:	4a85                	li	s5,1
    509a:	00904763          	bgtz	s1,50a8 <pbuf_alloc+0xca>
    509e:	4785                	li	a5,1
    50a0:	a47e                	sh	a5,14(s0)
    50a2:	000406a3          	sb	zero,13(s0)
    50a6:	bf89                	j	4ff8 <pbuf_alloc+0x1a>
    50a8:	451d                	li	a0,7
    50aa:	cf5ff0ef          	jal	ra,4d9e <memp_malloc>
    50ae:	e509                	bnez	a0,50b8 <pbuf_alloc+0xda>
    50b0:	8522                	mv	a0,s0
    50b2:	edfff0ef          	jal	ra,4f90 <pbuf_free>
    50b6:	b781                	j	4ff6 <pbuf_alloc+0x18>
    50b8:	0049a783          	lw	a5,4(s3)
    50bc:	01451623          	sh	s4,12(a0)
    50c0:	00052023          	sw	zero,0(a0)
    50c4:	00a92023          	sw	a0,0(s2)
    50c8:	03978793          	addi	a5,a5,57
    50cc:	a506                	sh	s1,8(a0)
    50ce:	9bf1                	andi	a5,a5,-4
    50d0:	00f4f363          	bgeu	s1,a5,50d6 <pbuf_alloc+0xf8>
    50d4:	87a6                	mv	a5,s1
    50d6:	01050713          	addi	a4,a0,16
    50da:	a53e                	sh	a5,10(a0)
    50dc:	c158                	sw	a4,4(a0)
    50de:	01551723          	sh	s5,14(a0)
    50e2:	8c9d                	sub	s1,s1,a5
    50e4:	892a                	mv	s2,a0
    50e6:	bf55                	j	509a <pbuf_alloc+0xbc>
    50e8:	00358793          	addi	a5,a1,3
    50ec:	01348513          	addi	a0,s1,19
    50f0:	9bf1                	andi	a5,a5,-4
    50f2:	9971                	andi	a0,a0,-4
    50f4:	953e                	add	a0,a0,a5
    50f6:	0542                	slli	a0,a0,0x10
    50f8:	8141                	srli	a0,a0,0x10
    50fa:	b85ff0ef          	jal	ra,4c7e <mem_malloc>
    50fe:	842a                	mv	s0,a0
    5100:	ee050be3          	beqz	a0,4ff6 <pbuf_alloc+0x18>
    5104:	94aa                	add	s1,s1,a0
    5106:	04cd                	addi	s1,s1,19
    5108:	98f1                	andi	s1,s1,-4
    510a:	c144                	sw	s1,4(a0)
    510c:	01251423          	sh	s2,8(a0)
    5110:	01251523          	sh	s2,10(a0)
    5114:	00052023          	sw	zero,0(a0)
    5118:	00050623          	sb	zero,12(a0)
    511c:	b749                	j	509e <pbuf_alloc+0xc0>

0000511e <pbuf_realloc>:
pbuf_realloc():
    511e:	251e                	lhu	a5,8(a0)
    5120:	04f5fa63          	bgeu	a1,a5,5174 <pbuf_realloc+0x56>
    5124:	90cfb2ef          	jal	t0,230 <__riscv_save_0>
    5128:	842a                	mv	s0,a0
    512a:	84ae                	mv	s1,a1
    512c:	40f587b3          	sub	a5,a1,a5
    5130:	242e                	lhu	a1,10(s0)
    5132:	0295e963          	bltu	a1,s1,5164 <pbuf_realloc+0x46>
    5136:	245c                	lbu	a5,12(s0)
    5138:	ef81                	bnez	a5,5150 <pbuf_realloc+0x32>
    513a:	00958b63          	beq	a1,s1,5150 <pbuf_realloc+0x32>
    513e:	404c                	lw	a1,4(s0)
    5140:	8522                	mv	a0,s0
    5142:	8d81                	sub	a1,a1,s0
    5144:	95a6                	add	a1,a1,s1
    5146:	05c2                	slli	a1,a1,0x10
    5148:	81c1                	srli	a1,a1,0x10
    514a:	a6bff0ef          	jal	ra,4bb4 <mem_realloc>
    514e:	842a                	mv	s0,a0
    5150:	4008                	lw	a0,0(s0)
    5152:	a426                	sh	s1,10(s0)
    5154:	a406                	sh	s1,8(s0)
    5156:	c119                	beqz	a0,515c <pbuf_realloc+0x3e>
    5158:	e39ff0ef          	jal	ra,4f90 <pbuf_free>
    515c:	00042023          	sw	zero,0(s0)
    5160:	8f4fb06f          	j	254 <__riscv_restore_0>
    5164:	241a                	lhu	a4,8(s0)
    5166:	8c8d                	sub	s1,s1,a1
    5168:	04c2                	slli	s1,s1,0x10
    516a:	973e                	add	a4,a4,a5
    516c:	a41a                	sh	a4,8(s0)
    516e:	80c1                	srli	s1,s1,0x10
    5170:	4000                	lw	s0,0(s0)
    5172:	bf7d                	j	5130 <pbuf_realloc+0x12>
    5174:	8082                	ret

00005176 <pbuf_clen>:
pbuf_clen():
    5176:	4781                	li	a5,0
    5178:	e119                	bnez	a0,517e <pbuf_clen+0x8>
    517a:	853e                	mv	a0,a5
    517c:	8082                	ret
    517e:	0785                	addi	a5,a5,1
    5180:	0ff7f793          	andi	a5,a5,255
    5184:	4108                	lw	a0,0(a0)
    5186:	bfcd                	j	5178 <pbuf_clen+0x2>

00005188 <pbuf_ref>:
pbuf_ref():
    5188:	c501                	beqz	a0,5190 <pbuf_ref+0x8>
    518a:	257e                	lhu	a5,14(a0)
    518c:	0785                	addi	a5,a5,1
    518e:	a57e                	sh	a5,14(a0)
    5190:	8082                	ret

00005192 <pbuf_cat>:
pbuf_cat():
    5192:	cd09                	beqz	a0,51ac <pbuf_cat+0x1a>
    5194:	e199                	bnez	a1,519a <pbuf_cat+0x8>
    5196:	8082                	ret
    5198:	853a                	mv	a0,a4
    519a:	259e                	lhu	a5,8(a1)
    519c:	2516                	lhu	a3,8(a0)
    519e:	4118                	lw	a4,0(a0)
    51a0:	97b6                	add	a5,a5,a3
    51a2:	07c2                	slli	a5,a5,0x10
    51a4:	83c1                	srli	a5,a5,0x10
    51a6:	a51e                	sh	a5,8(a0)
    51a8:	fb65                	bnez	a4,5198 <pbuf_cat+0x6>
    51aa:	c10c                	sw	a1,0(a0)
    51ac:	8082                	ret

000051ae <pbuf_chain>:
pbuf_chain():
    51ae:	882fb2ef          	jal	t0,230 <__riscv_save_0>
    51b2:	842e                	mv	s0,a1
    51b4:	fdfff0ef          	jal	ra,5192 <pbuf_cat>
    51b8:	8522                	mv	a0,s0
    51ba:	fcfff0ef          	jal	ra,5188 <pbuf_ref>
    51be:	896fb06f          	j	254 <__riscv_restore_0>

000051c2 <pbuf_copy>:
pbuf_copy():
    51c2:	cd3d                	beqz	a0,5240 <pbuf_copy+0x7e>
    51c4:	852fb2ef          	jal	t0,216 <__riscv_save_4>
    51c8:	842a                	mv	s0,a0
    51ca:	84ae                	mv	s1,a1
    51cc:	5559                	li	a0,-10
    51ce:	c5ad                	beqz	a1,5238 <pbuf_copy+0x76>
    51d0:	241a                	lhu	a4,8(s0)
    51d2:	259e                	lhu	a5,8(a1)
    51d4:	06f76263          	bltu	a4,a5,5238 <pbuf_copy+0x76>
    51d8:	4901                	li	s2,0
    51da:	4a01                	li	s4,0
    51dc:	00a45983          	lhu	s3,10(s0)
    51e0:	24be                	lhu	a5,10(s1)
    51e2:	414989b3          	sub	s3,s3,s4
    51e6:	412787b3          	sub	a5,a5,s2
    51ea:	04f9c963          	blt	s3,a5,523c <pbuf_copy+0x7a>
    51ee:	01079993          	slli	s3,a5,0x10
    51f2:	4048                	lw	a0,4(s0)
    51f4:	40cc                	lw	a1,4(s1)
    51f6:	0109d993          	srli	s3,s3,0x10
    51fa:	9552                	add	a0,a0,s4
    51fc:	95ca                	add	a1,a1,s2
    51fe:	864e                	mv	a2,s3
    5200:	463030ef          	jal	ra,8e62 <memcpy>
    5204:	9a4e                	add	s4,s4,s3
    5206:	243e                	lhu	a5,10(s0)
    5208:	0a42                	slli	s4,s4,0x10
    520a:	994e                	add	s2,s2,s3
    520c:	0942                	slli	s2,s2,0x10
    520e:	010a5a13          	srli	s4,s4,0x10
    5212:	01095913          	srli	s2,s2,0x10
    5216:	01479463          	bne	a5,s4,521e <pbuf_copy+0x5c>
    521a:	4000                	lw	s0,0(s0)
    521c:	4a01                	li	s4,0
    521e:	24be                	lhu	a5,10(s1)
    5220:	00f96563          	bltu	s2,a5,522a <pbuf_copy+0x68>
    5224:	4084                	lw	s1,0(s1)
    5226:	cc99                	beqz	s1,5244 <pbuf_copy+0x82>
    5228:	4901                	li	s2,0
    522a:	24ba                	lhu	a4,10(s1)
    522c:	249e                	lhu	a5,8(s1)
    522e:	02f71663          	bne	a4,a5,525a <pbuf_copy+0x98>
    5232:	409c                	lw	a5,0(s1)
    5234:	c39d                	beqz	a5,525a <pbuf_copy+0x98>
    5236:	555d                	li	a0,-9
    5238:	812fb06f          	j	24a <__riscv_restore_4>
    523c:	09c2                	slli	s3,s3,0x10
    523e:	bf55                	j	51f2 <pbuf_copy+0x30>
    5240:	5559                	li	a0,-10
    5242:	8082                	ret
    5244:	c809                	beqz	s0,5256 <pbuf_copy+0x94>
    5246:	4901                	li	s2,0
    5248:	243a                	lhu	a4,10(s0)
    524a:	241e                	lhu	a5,8(s0)
    524c:	00f71463          	bne	a4,a5,5254 <pbuf_copy+0x92>
    5250:	401c                	lw	a5,0(s0)
    5252:	f3f5                	bnez	a5,5236 <pbuf_copy+0x74>
    5254:	f4c1                	bnez	s1,51dc <pbuf_copy+0x1a>
    5256:	4501                	li	a0,0
    5258:	b7c5                	j	5238 <pbuf_copy+0x76>
    525a:	f47d                	bnez	s0,5248 <pbuf_copy+0x86>
    525c:	b741                	j	51dc <pbuf_copy+0x1a>

0000525e <raw_input>:
raw_input():
    525e:	fb9fa2ef          	jal	t0,216 <__riscv_save_4>
    5262:	00452903          	lw	s2,4(a0)
    5266:	89aa                	mv	s3,a0
    5268:	00994783          	lbu	a5,9(s2)
    526c:	00894503          	lbu	a0,8(s2)
    5270:	4a01                	li	s4,0
    5272:	07a2                	slli	a5,a5,0x8
    5274:	8d5d                	or	a0,a0,a5
    5276:	94dfe0ef          	jal	ra,3bc2 <ntohs>
    527a:	0ff57a93          	andi	s5,a0,255
    527e:	8e81a403          	lw	s0,-1816(gp) # 20000108 <raw_pcbs>
    5282:	0931                	addi	s2,s2,12
    5284:	8e818493          	addi	s1,gp,-1816 # 20000108 <raw_pcbs>
    5288:	e401                	bnez	s0,5290 <raw_input+0x32>
    528a:	4501                	li	a0,0
    528c:	fbffa06f          	j	24a <__riscv_restore_4>
    5290:	281c                	lbu	a5,16(s0)
    5292:	4501                	li	a0,0
    5294:	03579463          	bne	a5,s5,52bc <raw_input+0x5e>
    5298:	485c                	lw	a5,20(s0)
    529a:	c38d                	beqz	a5,52bc <raw_input+0x5e>
    529c:	4c08                	lw	a0,24(s0)
    529e:	86ca                	mv	a3,s2
    52a0:	864e                	mv	a2,s3
    52a2:	85a2                	mv	a1,s0
    52a4:	9782                	jalr	a5
    52a6:	c919                	beqz	a0,52bc <raw_input+0x5e>
    52a8:	000a0863          	beqz	s4,52b8 <raw_input+0x5a>
    52ac:	445c                	lw	a5,12(s0)
    52ae:	00fa2623          	sw	a5,12(s4)
    52b2:	409c                	lw	a5,0(s1)
    52b4:	c080                	sw	s0,0(s1)
    52b6:	c45c                	sw	a5,12(s0)
    52b8:	4505                	li	a0,1
    52ba:	4981                	li	s3,0
    52bc:	445c                	lw	a5,12(s0)
    52be:	8a22                	mv	s4,s0
    52c0:	f571                	bnez	a0,528c <raw_input+0x2e>
    52c2:	843e                	mv	s0,a5
    52c4:	b7d1                	j	5288 <raw_input+0x2a>

000052c6 <raw_bind>:
raw_bind():
    52c6:	4781                	li	a5,0
    52c8:	c999                	beqz	a1,52de <raw_bind+0x18>
    52ca:	3198                	lbu	a4,1(a1)
    52cc:	219c                	lbu	a5,0(a1)
    52ce:	0722                	slli	a4,a4,0x8
    52d0:	8f5d                	or	a4,a4,a5
    52d2:	21bc                	lbu	a5,2(a1)
    52d4:	07c2                	slli	a5,a5,0x10
    52d6:	8f5d                	or	a4,a4,a5
    52d8:	31bc                	lbu	a5,3(a1)
    52da:	07e2                	slli	a5,a5,0x18
    52dc:	8fd9                	or	a5,a5,a4
    52de:	c11c                	sw	a5,0(a0)
    52e0:	4501                	li	a0,0
    52e2:	8082                	ret

000052e4 <raw_connect>:
raw_connect():
    52e4:	4781                	li	a5,0
    52e6:	c999                	beqz	a1,52fc <raw_connect+0x18>
    52e8:	3198                	lbu	a4,1(a1)
    52ea:	219c                	lbu	a5,0(a1)
    52ec:	0722                	slli	a4,a4,0x8
    52ee:	8f5d                	or	a4,a4,a5
    52f0:	21bc                	lbu	a5,2(a1)
    52f2:	07c2                	slli	a5,a5,0x10
    52f4:	8f5d                	or	a4,a4,a5
    52f6:	31bc                	lbu	a5,3(a1)
    52f8:	07e2                	slli	a5,a5,0x18
    52fa:	8fd9                	or	a5,a5,a4
    52fc:	c15c                	sw	a5,4(a0)
    52fe:	4501                	li	a0,0
    5300:	8082                	ret

00005302 <raw_recv>:
raw_recv():
    5302:	c94c                	sw	a1,20(a0)
    5304:	cd10                	sw	a2,24(a0)
    5306:	8082                	ret

00005308 <raw_sendto>:
raw_sendto():
    5308:	f0ffa2ef          	jal	t0,216 <__riscv_save_4>
    530c:	84ae                	mv	s1,a1
    530e:	892a                	mv	s2,a0
    5310:	45d1                	li	a1,20
    5312:	8526                	mv	a0,s1
    5314:	89b2                	mv	s3,a2
    5316:	c0dff0ef          	jal	ra,4f22 <pbuf_header>
    531a:	c915                	beqz	a0,534e <raw_sendto+0x46>
    531c:	4601                	li	a2,0
    531e:	4581                	li	a1,0
    5320:	4505                	li	a0,1
    5322:	cbdff0ef          	jal	ra,4fde <pbuf_alloc>
    5326:	842a                	mv	s0,a0
    5328:	e509                	bnez	a0,5332 <raw_sendto+0x2a>
    532a:	597d                	li	s2,-1
    532c:	854a                	mv	a0,s2
    532e:	f1dfa06f          	j	24a <__riscv_restore_4>
    5332:	85a6                	mv	a1,s1
    5334:	e7bff0ef          	jal	ra,51ae <pbuf_chain>
    5338:	854e                	mv	a0,s3
    533a:	8c7fe0ef          	jal	ra,3c00 <ip_route>
    533e:	ed19                	bnez	a0,535c <raw_sendto+0x54>
    5340:	5971                	li	s2,-4
    5342:	fe9405e3          	beq	s0,s1,532c <raw_sendto+0x24>
    5346:	8522                	mv	a0,s0
    5348:	c49ff0ef          	jal	ra,4f90 <pbuf_free>
    534c:	b7c5                	j	532c <raw_sendto+0x24>
    534e:	55b1                	li	a1,-20
    5350:	8526                	mv	a0,s1
    5352:	bd1ff0ef          	jal	ra,4f22 <pbuf_header>
    5356:	f971                	bnez	a0,532a <raw_sendto+0x22>
    5358:	8426                	mv	s0,s1
    535a:	bff9                	j	5338 <raw_sendto+0x30>
    535c:	85ca                	mv	a1,s2
    535e:	00090563          	beqz	s2,5368 <raw_sendto+0x60>
    5362:	00092783          	lw	a5,0(s2)
    5366:	e399                	bnez	a5,536c <raw_sendto+0x64>
    5368:	00450593          	addi	a1,a0,4
    536c:	01094783          	lbu	a5,16(s2)
    5370:	00a94703          	lbu	a4,10(s2)
    5374:	00b94683          	lbu	a3,11(s2)
    5378:	882a                	mv	a6,a0
    537a:	864e                	mv	a2,s3
    537c:	8522                	mv	a0,s0
    537e:	b69fe0ef          	jal	ra,3ee6 <ip_output_if>
    5382:	892a                	mv	s2,a0
    5384:	bf7d                	j	5342 <raw_sendto+0x3a>

00005386 <raw_send>:
raw_send():
    5386:	eabfa2ef          	jal	t0,230 <__riscv_save_0>
    538a:	00450613          	addi	a2,a0,4
    538e:	f7bff0ef          	jal	ra,5308 <raw_sendto>
    5392:	ec3fa06f          	j	254 <__riscv_restore_0>

00005396 <raw_new>:
raw_new():
    5396:	e9bfa2ef          	jal	t0,230 <__riscv_save_0>
    539a:	84aa                	mv	s1,a0
    539c:	4501                	li	a0,0
    539e:	a01ff0ef          	jal	ra,4d9e <memp_malloc>
    53a2:	842a                	mv	s0,a0
    53a4:	cd11                	beqz	a0,53c0 <raw_new+0x2a>
    53a6:	4671                	li	a2,28
    53a8:	4581                	li	a1,0
    53aa:	eb7fa0ef          	jal	ra,260 <memset>
    53ae:	f8000793          	li	a5,-128
    53b2:	b43c                	sb	a5,11(s0)
    53b4:	8e818793          	addi	a5,gp,-1816 # 20000108 <raw_pcbs>
    53b8:	4398                	lw	a4,0(a5)
    53ba:	a804                	sb	s1,16(s0)
    53bc:	c380                	sw	s0,0(a5)
    53be:	c458                	sw	a4,12(s0)
    53c0:	8522                	mv	a0,s0
    53c2:	e93fa06f          	j	254 <__riscv_restore_0>

000053c6 <tcp_new_port>:
tcp_new_port():
    53c6:	8ec1a683          	lw	a3,-1812(gp) # 2000010c <tcp_active_pcbs>
    53ca:	9041a603          	lw	a2,-1788(gp) # 20000124 <tcp_tw_pcbs>
    53ce:	8f41a583          	lw	a1,-1804(gp) # 20000114 <tcp_listen_pcbs>
    53d2:	8341d503          	lhu	a0,-1996(gp) # 20000054 <port.3015>
    53d6:	83418793          	addi	a5,gp,-1996 # 20000054 <port.3015>
    53da:	00150713          	addi	a4,a0,1
    53de:	01071513          	slli	a0,a4,0x10
    53e2:	01071813          	slli	a6,a4,0x10
    53e6:	8141                	srli	a0,a0,0x10
    53e8:	00085363          	bgez	a6,53ee <tcp_new_port+0x28>
    53ec:	6505                	lui	a0,0x1
    53ee:	8736                	mv	a4,a3
    53f0:	e719                	bnez	a4,53fe <tcp_new_port+0x38>
    53f2:	8732                	mv	a4,a2
    53f4:	eb19                	bnez	a4,540a <tcp_new_port+0x44>
    53f6:	872e                	mv	a4,a1
    53f8:	ef19                	bnez	a4,5416 <tcp_new_port+0x50>
    53fa:	a38a                	sh	a0,0(a5)
    53fc:	8082                	ret
    53fe:	01c75803          	lhu	a6,28(a4)
    5402:	fca80ce3          	beq	a6,a0,53da <tcp_new_port+0x14>
    5406:	4758                	lw	a4,12(a4)
    5408:	b7e5                	j	53f0 <tcp_new_port+0x2a>
    540a:	01c75803          	lhu	a6,28(a4)
    540e:	fca806e3          	beq	a6,a0,53da <tcp_new_port+0x14>
    5412:	4758                	lw	a4,12(a4)
    5414:	b7c5                	j	53f4 <tcp_new_port+0x2e>
    5416:	01c75803          	lhu	a6,28(a4)
    541a:	fca800e3          	beq	a6,a0,53da <tcp_new_port+0x14>
    541e:	4758                	lw	a4,12(a4)
    5420:	bfe1                	j	53f8 <tcp_new_port+0x32>

00005422 <tcp_bind>:
tcp_bind():
    5422:	491c                	lw	a5,16(a0)
    5424:	10079663          	bnez	a5,5530 <tcp_bind+0x10e>
    5428:	deffa2ef          	jal	t0,216 <__riscv_save_4>
    542c:	1141                	addi	sp,sp,-16
    542e:	84aa                	mv	s1,a0
    5430:	8432                	mv	s0,a2
    5432:	e611                	bnez	a2,543e <tcp_bind+0x1c>
    5434:	c62e                	sw	a1,12(sp)
    5436:	f91ff0ef          	jal	ra,53c6 <tcp_new_port>
    543a:	45b2                	lw	a1,12(sp)
    543c:	842a                	mv	s0,a0
    543e:	8f41a703          	lw	a4,-1804(gp) # 20000114 <tcp_listen_pcbs>
    5442:	e731                	bnez	a4,548e <tcp_bind+0x6c>
    5444:	8ec1a703          	lw	a4,-1812(gp) # 2000010c <tcp_active_pcbs>
    5448:	eb25                	bnez	a4,54b8 <tcp_bind+0x96>
    544a:	8f01a983          	lw	s3,-1808(gp) # 20000110 <tcp_bound_pcbs>
    544e:	8f018913          	addi	s2,gp,-1808 # 20000110 <tcp_bound_pcbs>
    5452:	874e                	mv	a4,s3
    5454:	e759                	bnez	a4,54e2 <tcp_bind+0xc0>
    5456:	9041a783          	lw	a5,-1788(gp) # 20000124 <tcp_tw_pcbs>
    545a:	ebcd                	bnez	a5,550c <tcp_bind+0xea>
    545c:	c185                	beqz	a1,547c <tcp_bind+0x5a>
    545e:	3198                	lbu	a4,1(a1)
    5460:	219c                	lbu	a5,0(a1)
    5462:	0722                	slli	a4,a4,0x8
    5464:	8f5d                	or	a4,a4,a5
    5466:	21bc                	lbu	a5,2(a1)
    5468:	07c2                	slli	a5,a5,0x10
    546a:	8f5d                	or	a4,a4,a5
    546c:	31bc                	lbu	a5,3(a1)
    546e:	07e2                	slli	a5,a5,0x18
    5470:	8fd9                	or	a5,a5,a4
    5472:	c789                	beqz	a5,547c <tcp_bind+0x5a>
    5474:	4611                	li	a2,4
    5476:	8526                	mv	a0,s1
    5478:	1eb030ef          	jal	ra,8e62 <memcpy>
    547c:	acc2                	sh	s0,28(s1)
    547e:	0134a623          	sw	s3,12(s1)
    5482:	00992023          	sw	s1,0(s2)
    5486:	4501                	li	a0,0
    5488:	0141                	addi	sp,sp,16
    548a:	dc1fa06f          	j	24a <__riscv_restore_4>
    548e:	2f5e                	lhu	a5,28(a4)
    5490:	02879263          	bne	a5,s0,54b4 <tcp_bind+0x92>
    5494:	4310                	lw	a2,0(a4)
    5496:	ce59                	beqz	a2,5534 <tcp_bind+0x112>
    5498:	cdd1                	beqz	a1,5534 <tcp_bind+0x112>
    549a:	3194                	lbu	a3,1(a1)
    549c:	219c                	lbu	a5,0(a1)
    549e:	06a2                	slli	a3,a3,0x8
    54a0:	8edd                	or	a3,a3,a5
    54a2:	21bc                	lbu	a5,2(a1)
    54a4:	07c2                	slli	a5,a5,0x10
    54a6:	8edd                	or	a3,a3,a5
    54a8:	31bc                	lbu	a5,3(a1)
    54aa:	07e2                	slli	a5,a5,0x18
    54ac:	8fd5                	or	a5,a5,a3
    54ae:	c3d9                	beqz	a5,5534 <tcp_bind+0x112>
    54b0:	08f60263          	beq	a2,a5,5534 <tcp_bind+0x112>
    54b4:	4758                	lw	a4,12(a4)
    54b6:	b771                	j	5442 <tcp_bind+0x20>
    54b8:	2f5e                	lhu	a5,28(a4)
    54ba:	02879263          	bne	a5,s0,54de <tcp_bind+0xbc>
    54be:	4310                	lw	a2,0(a4)
    54c0:	ca35                	beqz	a2,5534 <tcp_bind+0x112>
    54c2:	c9ad                	beqz	a1,5534 <tcp_bind+0x112>
    54c4:	3194                	lbu	a3,1(a1)
    54c6:	219c                	lbu	a5,0(a1)
    54c8:	06a2                	slli	a3,a3,0x8
    54ca:	8edd                	or	a3,a3,a5
    54cc:	21bc                	lbu	a5,2(a1)
    54ce:	07c2                	slli	a5,a5,0x10
    54d0:	8edd                	or	a3,a3,a5
    54d2:	31bc                	lbu	a5,3(a1)
    54d4:	07e2                	slli	a5,a5,0x18
    54d6:	8fd5                	or	a5,a5,a3
    54d8:	cfb1                	beqz	a5,5534 <tcp_bind+0x112>
    54da:	04f60d63          	beq	a2,a5,5534 <tcp_bind+0x112>
    54de:	4758                	lw	a4,12(a4)
    54e0:	b7a5                	j	5448 <tcp_bind+0x26>
    54e2:	2f5e                	lhu	a5,28(a4)
    54e4:	02879263          	bne	a5,s0,5508 <tcp_bind+0xe6>
    54e8:	4310                	lw	a2,0(a4)
    54ea:	c629                	beqz	a2,5534 <tcp_bind+0x112>
    54ec:	c5a1                	beqz	a1,5534 <tcp_bind+0x112>
    54ee:	3194                	lbu	a3,1(a1)
    54f0:	219c                	lbu	a5,0(a1)
    54f2:	06a2                	slli	a3,a3,0x8
    54f4:	8edd                	or	a3,a3,a5
    54f6:	21bc                	lbu	a5,2(a1)
    54f8:	07c2                	slli	a5,a5,0x10
    54fa:	8edd                	or	a3,a3,a5
    54fc:	31bc                	lbu	a5,3(a1)
    54fe:	07e2                	slli	a5,a5,0x18
    5500:	8fd5                	or	a5,a5,a3
    5502:	cb8d                	beqz	a5,5534 <tcp_bind+0x112>
    5504:	02f60863          	beq	a2,a5,5534 <tcp_bind+0x112>
    5508:	4758                	lw	a4,12(a4)
    550a:	b7a9                	j	5454 <tcp_bind+0x32>
    550c:	2fda                	lhu	a4,28(a5)
    550e:	00871f63          	bne	a4,s0,552c <tcp_bind+0x10a>
    5512:	3194                	lbu	a3,1(a1)
    5514:	2198                	lbu	a4,0(a1)
    5516:	06a2                	slli	a3,a3,0x8
    5518:	8ed9                	or	a3,a3,a4
    551a:	21b8                	lbu	a4,2(a1)
    551c:	0742                	slli	a4,a4,0x10
    551e:	8ed9                	or	a3,a3,a4
    5520:	31b8                	lbu	a4,3(a1)
    5522:	0762                	slli	a4,a4,0x18
    5524:	8f55                	or	a4,a4,a3
    5526:	4394                	lw	a3,0(a5)
    5528:	00e68663          	beq	a3,a4,5534 <tcp_bind+0x112>
    552c:	47dc                	lw	a5,12(a5)
    552e:	b735                	j	545a <tcp_bind+0x38>
    5530:	554d                	li	a0,-13
    5532:	8082                	ret
    5534:	5555                	li	a0,-11
    5536:	bf89                	j	5488 <tcp_bind+0x66>

00005538 <tcp_update_rcv_ann_wnd>:
tcp_update_rcv_ann_wnd():
    5538:	87aa                	mv	a5,a0
    553a:	02c55803          	lhu	a6,44(a0) # 102c <RCC_GetFlagStatus+0xc>
    553e:	5914                	lw	a3,48(a0)
    5540:	3bd2                	lhu	a2,52(a5)
    5542:	550c                	lw	a1,40(a0)
    5544:	0407d883          	lhu	a7,64(a5)
    5548:	40d80533          	sub	a0,a6,a3
    554c:	8205                	srli	a2,a2,0x1
    554e:	952e                	add	a0,a0,a1
    5550:	8732                	mv	a4,a2
    5552:	00c8f363          	bgeu	a7,a2,5558 <tcp_update_rcv_ann_wnd+0x20>
    5556:	8746                	mv	a4,a7
    5558:	0742                	slli	a4,a4,0x10
    555a:	8341                	srli	a4,a4,0x10
    555c:	40e50733          	sub	a4,a0,a4
    5560:	00074563          	bltz	a4,556a <tcp_update_rcv_ann_wnd+0x32>
    5564:	03079723          	sh	a6,46(a5)
    5568:	8082                	ret
    556a:	40d58733          	sub	a4,a1,a3
    556e:	00e05663          	blez	a4,557a <tcp_update_rcv_ann_wnd+0x42>
    5572:	02079723          	sh	zero,46(a5)
    5576:	4501                	li	a0,0
    5578:	8082                	ret
    557a:	8e8d                	sub	a3,a3,a1
    557c:	b7f6                	sh	a3,46(a5)
    557e:	bfe5                	j	5576 <tcp_update_rcv_ann_wnd+0x3e>

00005580 <tcp_recved>:
tcp_recved():
    5580:	cb1fa2ef          	jal	t0,230 <__riscv_save_0>
    5584:	355e                	lhu	a5,44(a0)
    5586:	842a                	mv	s0,a0
    5588:	95be                	add	a1,a1,a5
    558a:	05c2                	slli	a1,a1,0x10
    558c:	395e                	lhu	a5,52(a0)
    558e:	81c1                	srli	a1,a1,0x10
    5590:	b54e                	sh	a1,44(a0)
    5592:	00b7f363          	bgeu	a5,a1,5598 <tcp_recved+0x18>
    5596:	b55e                	sh	a5,44(a0)
    5598:	8522                	mv	a0,s0
    559a:	f9fff0ef          	jal	ra,5538 <tcp_update_rcv_ann_wnd>
    559e:	385e                	lhu	a5,52(s0)
    55a0:	8389                	srli	a5,a5,0x2
    55a2:	00f54b63          	blt	a0,a5,55b8 <tcp_recved+0x38>
    55a6:	02644783          	lbu	a5,38(s0)
    55aa:	8522                	mv	a0,s0
    55ac:	0027e793          	ori	a5,a5,2
    55b0:	02f40323          	sb	a5,38(s0)
    55b4:	2a0020ef          	jal	ra,7854 <tcp_output>
    55b8:	c9dfa06f          	j	254 <__riscv_restore_0>

000055bc <tcp_seg_free>:
tcp_seg_free():
    55bc:	c75fa2ef          	jal	t0,230 <__riscv_save_0>
    55c0:	1141                	addi	sp,sp,-16
    55c2:	4401                	li	s0,0
    55c4:	cd09                	beqz	a0,55de <tcp_seg_free+0x22>
    55c6:	85aa                	mv	a1,a0
    55c8:	4148                	lw	a0,4(a0)
    55ca:	4401                	li	s0,0
    55cc:	c511                	beqz	a0,55d8 <tcp_seg_free+0x1c>
    55ce:	c62e                	sw	a1,12(sp)
    55d0:	9c1ff0ef          	jal	ra,4f90 <pbuf_free>
    55d4:	45b2                	lw	a1,12(sp)
    55d6:	842a                	mv	s0,a0
    55d8:	4511                	li	a0,4
    55da:	fe4ff0ef          	jal	ra,4dbe <memp_free>
    55de:	8522                	mv	a0,s0
    55e0:	0141                	addi	sp,sp,16
    55e2:	c73fa06f          	j	254 <__riscv_restore_0>

000055e6 <tcp_segs_free>:
tcp_segs_free():
    55e6:	c4bfa2ef          	jal	t0,230 <__riscv_save_0>
    55ea:	4401                	li	s0,0
    55ec:	e501                	bnez	a0,55f4 <tcp_segs_free+0xe>
    55ee:	8522                	mv	a0,s0
    55f0:	c65fa06f          	j	254 <__riscv_restore_0>
    55f4:	4104                	lw	s1,0(a0)
    55f6:	fc7ff0ef          	jal	ra,55bc <tcp_seg_free>
    55fa:	942a                	add	s0,s0,a0
    55fc:	0ff47413          	andi	s0,s0,255
    5600:	8526                	mv	a0,s1
    5602:	b7ed                	j	55ec <tcp_segs_free+0x6>

00005604 <tcp_seg_copy>:
tcp_seg_copy():
    5604:	c2dfa2ef          	jal	t0,230 <__riscv_save_0>
    5608:	1141                	addi	sp,sp,-16
    560a:	c62a                	sw	a0,12(sp)
    560c:	4511                	li	a0,4
    560e:	f90ff0ef          	jal	ra,4d9e <memp_malloc>
    5612:	842a                	mv	s0,a0
    5614:	c901                	beqz	a0,5624 <tcp_seg_copy+0x20>
    5616:	45b2                	lw	a1,12(sp)
    5618:	4651                	li	a2,20
    561a:	049030ef          	jal	ra,8e62 <memcpy>
    561e:	4048                	lw	a0,4(s0)
    5620:	b69ff0ef          	jal	ra,5188 <pbuf_ref>
    5624:	8522                	mv	a0,s0
    5626:	0141                	addi	sp,sp,16
    5628:	c2dfa06f          	j	254 <__riscv_restore_0>

0000562c <tcp_arg>:
tcp_arg():
    562c:	cd0c                	sw	a1,24(a0)
    562e:	8082                	ret

00005630 <tcp_recv>:
tcp_recv():
    5630:	08b52823          	sw	a1,144(a0)
    5634:	8082                	ret

00005636 <tcp_sent>:
tcp_sent():
    5636:	08b52623          	sw	a1,140(a0)
    563a:	8082                	ret

0000563c <tcp_err>:
tcp_err():
    563c:	08b52e23          	sw	a1,156(a0)
    5640:	8082                	ret

00005642 <tcp_poll>:
tcp_poll():
    5642:	08b52c23          	sw	a1,152(a0)
    5646:	02c50ea3          	sb	a2,61(a0)
    564a:	8082                	ret

0000564c <tcp_pcb_purge>:
tcp_pcb_purge():
    564c:	491c                	lw	a5,16(a0)
    564e:	4705                	li	a4,1
    5650:	04f77463          	bgeu	a4,a5,5698 <tcp_pcb_purge+0x4c>
    5654:	4729                	li	a4,10
    5656:	04e78163          	beq	a5,a4,5698 <tcp_pcb_purge+0x4c>
    565a:	bd7fa2ef          	jal	t0,230 <__riscv_save_0>
    565e:	842a                	mv	s0,a0
    5660:	08852503          	lw	a0,136(a0)
    5664:	c509                	beqz	a0,566e <tcp_pcb_purge+0x22>
    5666:	92bff0ef          	jal	ra,4f90 <pbuf_free>
    566a:	08042423          	sw	zero,136(s0)
    566e:	08442503          	lw	a0,132(s0)
    5672:	57fd                	li	a5,-1
    5674:	bc7e                	sh	a5,62(s0)
    5676:	f71ff0ef          	jal	ra,55e6 <tcp_segs_free>
    567a:	5c68                	lw	a0,124(s0)
    567c:	08042223          	sw	zero,132(s0)
    5680:	f67ff0ef          	jal	ra,55e6 <tcp_segs_free>
    5684:	08042503          	lw	a0,128(s0)
    5688:	f5fff0ef          	jal	ra,55e6 <tcp_segs_free>
    568c:	06042e23          	sw	zero,124(s0)
    5690:	08042023          	sw	zero,128(s0)
    5694:	bc1fa06f          	j	254 <__riscv_restore_0>
    5698:	8082                	ret

0000569a <tcp_slowtmr>:
tcp_slowtmr():
    569a:	b67fa2ef          	jal	t0,200 <__riscv_save_12>
    569e:	20006937          	lui	s2,0x20006
    56a2:	20c90793          	addi	a5,s2,524 # 2000620c <NetInf>
    56a6:	8f818713          	addi	a4,gp,-1800 # 20000118 <tcp_ticks>
    56aa:	0187cc83          	lbu	s9,24(a5)
    56ae:	431c                	lw	a5,0(a4)
    56b0:	6b31                	lui	s6,0xc
    56b2:	0785                	addi	a5,a5,1
    56b4:	8ec1a403          	lw	s0,-1812(gp) # 2000010c <tcp_active_pcbs>
    56b8:	c31c                	sw	a5,0(a4)
    56ba:	06600993          	li	s3,102
    56be:	4a81                	li	s5,0
    56c0:	20c90913          	addi	s2,s2,524
    56c4:	8f818493          	addi	s1,gp,-1800 # 20000118 <tcp_ticks>
    56c8:	8ec18a13          	addi	s4,gp,-1812 # 2000010c <tcp_active_pcbs>
    56cc:	4d09                	li	s10,2
    56ce:	c1cb0b13          	addi	s6,s6,-996 # bc1c <tcp_backoff>
    56d2:	85018b93          	addi	s7,gp,-1968 # 20000070 <tcp_persist_backoff>
    56d6:	e809                	bnez	s0,56e8 <tcp_slowtmr+0x4e>
    56d8:	9041a403          	lw	s0,-1788(gp) # 20000124 <tcp_tw_pcbs>
    56dc:	90418493          	addi	s1,gp,-1788 # 20000124 <tcp_tw_pcbs>
    56e0:	22041c63          	bnez	s0,5918 <tcp_slowtmr+0x27e>
    56e4:	b59fa06f          	j	23c <__riscv_restore_12>
    56e8:	19fd                	addi	s3,s3,-1
    56ea:	0ff9f993          	andi	s3,s3,255
    56ee:	fe098be3          	beqz	s3,56e4 <tcp_slowtmr+0x4a>
    56f2:	05244603          	lbu	a2,82(s0)
    56f6:	4814                	lw	a3,16(s0)
    56f8:	4d85                	li	s11,1
    56fa:	02cc8263          	beq	s9,a2,571e <tcp_slowtmr+0x84>
    56fe:	0b044d83          	lbu	s11,176(s0)
    5702:	100d8063          	beqz	s11,5802 <tcp_slowtmr+0x168>
    5706:	0ac42703          	lw	a4,172(s0)
    570a:	01bb86b3          	add	a3,s7,s11
    570e:	fff6c683          	lbu	a3,-1(a3)
    5712:	0705                	addi	a4,a4,1
    5714:	0ae42623          	sw	a4,172(s0)
    5718:	0cd77863          	bgeu	a4,a3,57e8 <tcp_slowtmr+0x14e>
    571c:	4d81                	li	s11,0
    571e:	4818                	lw	a4,16(s0)
    5720:	4699                	li	a3,6
    5722:	00d71d63          	bne	a4,a3,573c <tcp_slowtmr+0xa2>
    5726:	5c10                	lw	a2,56(s0)
    5728:	4094                	lw	a3,0(s1)
    572a:	8e91                	sub	a3,a3,a2
    572c:	01892603          	lw	a2,24(s2)
    5730:	00d67663          	bgeu	a2,a3,573c <tcp_slowtmr+0xa2>
    5734:	001d8793          	addi	a5,s11,1
    5738:	0ff7fd93          	andi	s11,a5,255
    573c:	2416                	lhu	a3,8(s0)
    573e:	4c01                	li	s8,0
    5740:	8aa1                	andi	a3,a3,8
    5742:	ce95                	beqz	a3,577e <tcp_slowtmr+0xe4>
    5744:	4691                	li	a3,4
    5746:	00d70563          	beq	a4,a3,5750 <tcp_slowtmr+0xb6>
    574a:	469d                	li	a3,7
    574c:	02d71963          	bne	a4,a3,577e <tcp_slowtmr+0xe4>
    5750:	0a442803          	lw	a6,164(s0)
    5754:	0a842683          	lw	a3,168(s0)
    5758:	0a042503          	lw	a0,160(s0)
    575c:	01c92583          	lw	a1,28(s2)
    5760:	02d806b3          	mul	a3,a6,a3
    5764:	4090                	lw	a2,0(s1)
    5766:	5c18                	lw	a4,56(s0)
    5768:	8e19                	sub	a2,a2,a4
    576a:	96aa                	add	a3,a3,a0
    576c:	02b6d6b3          	divu	a3,a3,a1
    5770:	10c6f963          	bgeu	a3,a2,5882 <tcp_slowtmr+0x1e8>
    5774:	001d8793          	addi	a5,s11,1
    5778:	0ff7fd93          	andi	s11,a5,255
    577c:	4c05                	li	s8,1
    577e:	08442503          	lw	a0,132(s0)
    5782:	cd19                	beqz	a0,57a0 <tcp_slowtmr+0x106>
    5784:	5c18                	lw	a4,56(s0)
    5786:	4094                	lw	a3,0(s1)
    5788:	4619                	li	a2,6
    578a:	8e99                	sub	a3,a3,a4
    578c:	05041703          	lh	a4,80(s0)
    5790:	02c70733          	mul	a4,a4,a2
    5794:	00e6e663          	bltu	a3,a4,57a0 <tcp_slowtmr+0x106>
    5798:	e4fff0ef          	jal	ra,55e6 <tcp_segs_free>
    579c:	08042223          	sw	zero,132(s0)
    57a0:	4818                	lw	a4,16(s0)
    57a2:	468d                	li	a3,3
    57a4:	10d71263          	bne	a4,a3,58a8 <tcp_slowtmr+0x20e>
    57a8:	5c14                	lw	a3,56(s0)
    57aa:	4098                	lw	a4,0(s1)
    57ac:	8f15                	sub	a4,a4,a3
    57ae:	01892683          	lw	a3,24(s2)
    57b2:	10e6e663          	bltu	a3,a4,58be <tcp_slowtmr+0x224>
    57b6:	100d9463          	bnez	s11,58be <tcp_slowtmr+0x224>
    57ba:	03c44783          	lbu	a5,60(s0)
    57be:	03d44703          	lbu	a4,61(s0)
    57c2:	0785                	addi	a5,a5,1
    57c4:	0ff7f793          	andi	a5,a5,255
    57c8:	02f40e23          	sb	a5,60(s0)
    57cc:	00e7eb63          	bltu	a5,a4,57e2 <tcp_slowtmr+0x148>
    57d0:	09842783          	lw	a5,152(s0)
    57d4:	02040e23          	sb	zero,60(s0)
    57d8:	12079a63          	bnez	a5,590c <tcp_slowtmr+0x272>
    57dc:	8522                	mv	a0,s0
    57de:	076020ef          	jal	ra,7854 <tcp_output>
    57e2:	8aa2                	mv	s5,s0
    57e4:	4440                	lw	s0,12(s0)
    57e6:	bdc5                	j	56d6 <tcp_slowtmr+0x3c>
    57e8:	0a042623          	sw	zero,172(s0)
    57ec:	4719                	li	a4,6
    57ee:	01b76663          	bltu	a4,s11,57fa <tcp_slowtmr+0x160>
    57f2:	001d8793          	addi	a5,s11,1
    57f6:	0af40823          	sb	a5,176(s0)
    57fa:	8522                	mv	a0,s0
    57fc:	646020ef          	jal	ra,7e42 <tcp_zero_window_probe>
    5800:	bf31                	j	571c <tcp_slowtmr+0x82>
    5802:	03e41703          	lh	a4,62(s0)
    5806:	00074463          	bltz	a4,580e <tcp_slowtmr+0x174>
    580a:	0705                	addi	a4,a4,1
    580c:	bc7a                	sh	a4,62(s0)
    580e:	08042703          	lw	a4,128(s0)
    5812:	f00705e3          	beqz	a4,571c <tcp_slowtmr+0x82>
    5816:	03e41583          	lh	a1,62(s0)
    581a:	05041703          	lh	a4,80(s0)
    581e:	eeb75fe3          	bge	a4,a1,571c <tcp_slowtmr+0x82>
    5822:	03a68463          	beq	a3,s10,584a <tcp_slowtmr+0x1b0>
    5826:	04c41703          	lh	a4,76(s0)
    582a:	04e41683          	lh	a3,78(s0)
    582e:	47b1                	li	a5,12
    5830:	870d                	srai	a4,a4,0x3
    5832:	9736                	add	a4,a4,a3
    5834:	0ff67693          	andi	a3,a2,255
    5838:	00c7f363          	bgeu	a5,a2,583e <tcp_slowtmr+0x1a4>
    583c:	46b1                	li	a3,12
    583e:	96da                	add	a3,a3,s6
    5840:	2294                	lbu	a3,0(a3)
    5842:	00d71733          	sll	a4,a4,a3
    5846:	04e41823          	sh	a4,80(s0)
    584a:	05a45683          	lhu	a3,90(s0)
    584e:	06445703          	lhu	a4,100(s0)
    5852:	02041f23          	sh	zero,62(s0)
    5856:	00e6f363          	bgeu	a3,a4,585c <tcp_slowtmr+0x1c2>
    585a:	8736                	mv	a4,a3
    585c:	0742                	slli	a4,a4,0x10
    585e:	8341                	srli	a4,a4,0x10
    5860:	04045683          	lhu	a3,64(s0)
    5864:	8305                	srli	a4,a4,0x1
    5866:	04e41e23          	sh	a4,92(s0)
    586a:	00d77663          	bgeu	a4,a3,5876 <tcp_slowtmr+0x1dc>
    586e:	00169713          	slli	a4,a3,0x1
    5872:	04e41e23          	sh	a4,92(s0)
    5876:	04d41d23          	sh	a3,90(s0)
    587a:	8522                	mv	a0,s0
    587c:	454020ef          	jal	ra,7cd0 <tcp_rexmit_rto>
    5880:	bd79                	j	571e <tcp_slowtmr+0x84>
    5882:	0b144703          	lbu	a4,177(s0)
    5886:	4c01                	li	s8,0
    5888:	03070733          	mul	a4,a4,a6
    588c:	972a                	add	a4,a4,a0
    588e:	02b75733          	divu	a4,a4,a1
    5892:	eec776e3          	bgeu	a4,a2,577e <tcp_slowtmr+0xe4>
    5896:	8522                	mv	a0,s0
    5898:	54c020ef          	jal	ra,7de4 <tcp_keepalive>
    589c:	0b144703          	lbu	a4,177(s0)
    58a0:	0705                	addi	a4,a4,1
    58a2:	0ae408a3          	sb	a4,177(s0)
    58a6:	bde1                	j	577e <tcp_slowtmr+0xe4>
    58a8:	46a5                	li	a3,9
    58aa:	f0d716e3          	bne	a4,a3,57b6 <tcp_slowtmr+0x11c>
    58ae:	5c18                	lw	a4,56(s0)
    58b0:	4094                	lw	a3,0(s1)
    58b2:	8e99                	sub	a3,a3,a4
    58b4:	01892703          	lw	a4,24(s2)
    58b8:	0706                	slli	a4,a4,0x1
    58ba:	eed77ee3          	bgeu	a4,a3,57b6 <tcp_slowtmr+0x11c>
    58be:	8522                	mv	a0,s0
    58c0:	f92fd0ef          	jal	ra,3052 <LwipRemoveTcpPcb>
    58c4:	8522                	mv	a0,s0
    58c6:	d87ff0ef          	jal	ra,564c <tcp_pcb_purge>
    58ca:	445c                	lw	a5,12(s0)
    58cc:	020a8d63          	beqz	s5,5906 <tcp_slowtmr+0x26c>
    58d0:	00faa623          	sw	a5,12(s5)
    58d4:	09c42783          	lw	a5,156(s0)
    58d8:	c781                	beqz	a5,58e0 <tcp_slowtmr+0x246>
    58da:	4c08                	lw	a0,24(s0)
    58dc:	55ed                	li	a1,-5
    58de:	9782                	jalr	a5
    58e0:	000c0b63          	beqz	s8,58f6 <tcp_slowtmr+0x25c>
    58e4:	305e                	lhu	a5,36(s0)
    58e6:	2c5a                	lhu	a4,28(s0)
    58e8:	540c                	lw	a1,40(s0)
    58ea:	5028                	lw	a0,96(s0)
    58ec:	00440693          	addi	a3,s0,4
    58f0:	8622                	mv	a2,s0
    58f2:	2d6020ef          	jal	ra,7bc8 <tcp_rst>
    58f6:	00c42c03          	lw	s8,12(s0)
    58fa:	85a2                	mv	a1,s0
    58fc:	4509                	li	a0,2
    58fe:	cc0ff0ef          	jal	ra,4dbe <memp_free>
    5902:	8462                	mv	s0,s8
    5904:	bbc9                	j	56d6 <tcp_slowtmr+0x3c>
    5906:	00fa2023          	sw	a5,0(s4)
    590a:	b7e9                	j	58d4 <tcp_slowtmr+0x23a>
    590c:	4c08                	lw	a0,24(s0)
    590e:	85a2                	mv	a1,s0
    5910:	9782                	jalr	a5
    5912:	ec0505e3          	beqz	a0,57dc <tcp_slowtmr+0x142>
    5916:	b5f1                	j	57e2 <tcp_slowtmr+0x148>
    5918:	8522                	mv	a0,s0
    591a:	f38fd0ef          	jal	ra,3052 <LwipRemoveTcpPcb>
    591e:	8522                	mv	a0,s0
    5920:	d2dff0ef          	jal	ra,564c <tcp_pcb_purge>
    5924:	00c42903          	lw	s2,12(s0)
    5928:	85a2                	mv	a1,s0
    592a:	4509                	li	a0,2
    592c:	0124a023          	sw	s2,0(s1)
    5930:	844a                	mv	s0,s2
    5932:	c8cff0ef          	jal	ra,4dbe <memp_free>
    5936:	b36d                	j	56e0 <tcp_slowtmr+0x46>

00005938 <tcp_pcb_remove>:
tcp_pcb_remove():
    5938:	8f9fa2ef          	jal	t0,230 <__riscv_save_0>
    593c:	411c                	lw	a5,0(a0)
    593e:	842e                	mv	s0,a1
    5940:	04b79063          	bne	a5,a1,5980 <tcp_pcb_remove+0x48>
    5944:	45dc                	lw	a5,12(a1)
    5946:	c11c                	sw	a5,0(a0)
    5948:	00042623          	sw	zero,12(s0)
    594c:	8522                	mv	a0,s0
    594e:	cffff0ef          	jal	ra,564c <tcp_pcb_purge>
    5952:	481c                	lw	a5,16(s0)
    5954:	4729                	li	a4,10
    5956:	02e78163          	beq	a5,a4,5978 <tcp_pcb_remove+0x40>
    595a:	4705                	li	a4,1
    595c:	00e78e63          	beq	a5,a4,5978 <tcp_pcb_remove+0x40>
    5960:	02644783          	lbu	a5,38(s0)
    5964:	0017f713          	andi	a4,a5,1
    5968:	cb01                	beqz	a4,5978 <tcp_pcb_remove+0x40>
    596a:	0027e793          	ori	a5,a5,2
    596e:	02f40323          	sb	a5,38(s0)
    5972:	8522                	mv	a0,s0
    5974:	6e1010ef          	jal	ra,7854 <tcp_output>
    5978:	00042823          	sw	zero,16(s0)
    597c:	8d9fa06f          	j	254 <__riscv_restore_0>
    5980:	90f1a023          	sw	a5,-1792(gp) # 20000120 <tcp_tmp_pcb>
    5984:	4681                	li	a3,0
    5986:	90018713          	addi	a4,gp,-1792 # 20000120 <tcp_tmp_pcb>
    598a:	e789                	bnez	a5,5994 <tcp_pcb_remove+0x5c>
    598c:	ded5                	beqz	a3,5948 <tcp_pcb_remove+0x10>
    598e:	00072023          	sw	zero,0(a4)
    5992:	bf5d                	j	5948 <tcp_pcb_remove+0x10>
    5994:	47d0                	lw	a2,12(a5)
    5996:	00861763          	bne	a2,s0,59a4 <tcp_pcb_remove+0x6c>
    599a:	c291                	beqz	a3,599e <tcp_pcb_remove+0x66>
    599c:	c31c                	sw	a5,0(a4)
    599e:	4458                	lw	a4,12(s0)
    59a0:	c7d8                	sw	a4,12(a5)
    59a2:	b75d                	j	5948 <tcp_pcb_remove+0x10>
    59a4:	4685                	li	a3,1
    59a6:	87b2                	mv	a5,a2
    59a8:	b7cd                	j	598a <tcp_pcb_remove+0x52>

000059aa <tcp_close>:
tcp_close():
    59aa:	491c                	lw	a5,16(a0)
    59ac:	471d                	li	a4,7
    59ae:	0af76563          	bltu	a4,a5,5a58 <tcp_close+0xae>
    59b2:	87ffa2ef          	jal	t0,230 <__riscv_save_0>
    59b6:	6731                	lui	a4,0xc
    59b8:	078a                	slli	a5,a5,0x2
    59ba:	bfc70713          	addi	a4,a4,-1028 # bbfc <ErrTable+0x10>
    59be:	97ba                	add	a5,a5,a4
    59c0:	439c                	lw	a5,0(a5)
    59c2:	842a                	mv	s0,a0
    59c4:	8782                	jr	a5
    59c6:	e8cfd0ef          	jal	ra,3052 <LwipRemoveTcpPcb>
    59ca:	8f018713          	addi	a4,gp,-1808 # 20000110 <tcp_bound_pcbs>
    59ce:	431c                	lw	a5,0(a4)
    59d0:	00879963          	bne	a5,s0,59e2 <tcp_close+0x38>
    59d4:	445c                	lw	a5,12(s0)
    59d6:	c31c                	sw	a5,0(a4)
    59d8:	00042623          	sw	zero,12(s0)
    59dc:	85a2                	mv	a1,s0
    59de:	4509                	li	a0,2
    59e0:	a83d                	j	5a1e <tcp_close+0x74>
    59e2:	90f1a023          	sw	a5,-1792(gp) # 20000120 <tcp_tmp_pcb>
    59e6:	4681                	li	a3,0
    59e8:	90018713          	addi	a4,gp,-1792 # 20000120 <tcp_tmp_pcb>
    59ec:	e789                	bnez	a5,59f6 <tcp_close+0x4c>
    59ee:	d6ed                	beqz	a3,59d8 <tcp_close+0x2e>
    59f0:	00072023          	sw	zero,0(a4)
    59f4:	b7d5                	j	59d8 <tcp_close+0x2e>
    59f6:	47d0                	lw	a2,12(a5)
    59f8:	00861763          	bne	a2,s0,5a06 <tcp_close+0x5c>
    59fc:	c291                	beqz	a3,5a00 <tcp_close+0x56>
    59fe:	c31c                	sw	a5,0(a4)
    5a00:	4458                	lw	a4,12(s0)
    5a02:	c7d8                	sw	a4,12(a5)
    5a04:	bfd1                	j	59d8 <tcp_close+0x2e>
    5a06:	4685                	li	a3,1
    5a08:	87b2                	mv	a5,a2
    5a0a:	b7cd                	j	59ec <tcp_close+0x42>
    5a0c:	e46fd0ef          	jal	ra,3052 <LwipRemoveTcpPcb>
    5a10:	85a2                	mv	a1,s0
    5a12:	8f418513          	addi	a0,gp,-1804 # 20000114 <tcp_listen_pcbs>
    5a16:	f23ff0ef          	jal	ra,5938 <tcp_pcb_remove>
    5a1a:	85a2                	mv	a1,s0
    5a1c:	450d                	li	a0,3
    5a1e:	ba0ff0ef          	jal	ra,4dbe <memp_free>
    5a22:	4501                	li	a0,0
    5a24:	a831                	j	5a40 <tcp_close+0x96>
    5a26:	e2cfd0ef          	jal	ra,3052 <LwipRemoveTcpPcb>
    5a2a:	85a2                	mv	a1,s0
    5a2c:	8ec18513          	addi	a0,gp,-1812 # 2000010c <tcp_active_pcbs>
    5a30:	f09ff0ef          	jal	ra,5938 <tcp_pcb_remove>
    5a34:	b765                	j	59dc <tcp_close+0x32>
    5a36:	4585                	li	a1,1
    5a38:	563010ef          	jal	ra,779a <tcp_send_ctrl>
    5a3c:	4795                	li	a5,5
    5a3e:	c901                	beqz	a0,5a4e <tcp_close+0xa4>
    5a40:	815fa06f          	j	254 <__riscv_restore_0>
    5a44:	4585                	li	a1,1
    5a46:	555010ef          	jal	ra,779a <tcp_send_ctrl>
    5a4a:	f97d                	bnez	a0,5a40 <tcp_close+0x96>
    5a4c:	47a5                	li	a5,9
    5a4e:	c81c                	sw	a5,16(s0)
    5a50:	8522                	mv	a0,s0
    5a52:	603010ef          	jal	ra,7854 <tcp_output>
    5a56:	b7f1                	j	5a22 <tcp_close+0x78>
    5a58:	4501                	li	a0,0
    5a5a:	8082                	ret

00005a5c <tcp_recv_null>:
tcp_recv_null():
    5a5c:	fd4fa2ef          	jal	t0,230 <__riscv_save_0>
    5a60:	1141                	addi	sp,sp,-16
    5a62:	852e                	mv	a0,a1
    5a64:	ce11                	beqz	a2,5a80 <tcp_recv_null+0x24>
    5a66:	260e                	lhu	a1,8(a2)
    5a68:	c632                	sw	a2,12(sp)
    5a6a:	b17ff0ef          	jal	ra,5580 <tcp_recved>
    5a6e:	4632                	lw	a2,12(sp)
    5a70:	8532                	mv	a0,a2
    5a72:	d1eff0ef          	jal	ra,4f90 <pbuf_free>
    5a76:	4781                	li	a5,0
    5a78:	853e                	mv	a0,a5
    5a7a:	0141                	addi	sp,sp,16
    5a7c:	fd8fa06f          	j	254 <__riscv_restore_0>
    5a80:	4781                	li	a5,0
    5a82:	fafd                	bnez	a3,5a78 <tcp_recv_null+0x1c>
    5a84:	f27ff0ef          	jal	ra,59aa <tcp_close>
    5a88:	87aa                	mv	a5,a0
    5a8a:	b7fd                	j	5a78 <tcp_recv_null+0x1c>

00005a8c <tcp_fasttmr>:
tcp_fasttmr():
    5a8c:	fa4fa2ef          	jal	t0,230 <__riscv_save_0>
    5a90:	8ec1a403          	lw	s0,-1812(gp) # 2000010c <tcp_active_pcbs>
    5a94:	06500493          	li	s1,101
    5a98:	e019                	bnez	s0,5a9e <tcp_fasttmr+0x12>
    5a9a:	fbafa06f          	j	254 <__riscv_restore_0>
    5a9e:	08842603          	lw	a2,136(s0)
    5aa2:	ca19                	beqz	a2,5ab8 <tcp_fasttmr+0x2c>
    5aa4:	09042783          	lw	a5,144(s0)
    5aa8:	4681                	li	a3,0
    5aaa:	85a2                	mv	a1,s0
    5aac:	cf8d                	beqz	a5,5ae6 <tcp_fasttmr+0x5a>
    5aae:	4c08                	lw	a0,24(s0)
    5ab0:	9782                	jalr	a5
    5ab2:	e119                	bnez	a0,5ab8 <tcp_fasttmr+0x2c>
    5ab4:	08042423          	sw	zero,136(s0)
    5ab8:	14fd                	addi	s1,s1,-1
    5aba:	0ff4f493          	andi	s1,s1,255
    5abe:	dcf1                	beqz	s1,5a9a <tcp_fasttmr+0xe>
    5ac0:	02644783          	lbu	a5,38(s0)
    5ac4:	0017f713          	andi	a4,a5,1
    5ac8:	cf09                	beqz	a4,5ae2 <tcp_fasttmr+0x56>
    5aca:	0027e793          	ori	a5,a5,2
    5ace:	02f40323          	sb	a5,38(s0)
    5ad2:	8522                	mv	a0,s0
    5ad4:	581010ef          	jal	ra,7854 <tcp_output>
    5ad8:	02644783          	lbu	a5,38(s0)
    5adc:	9bf1                	andi	a5,a5,-4
    5ade:	02f40323          	sb	a5,38(s0)
    5ae2:	4440                	lw	s0,12(s0)
    5ae4:	bf55                	j	5a98 <tcp_fasttmr+0xc>
    5ae6:	4501                	li	a0,0
    5ae8:	f75ff0ef          	jal	ra,5a5c <tcp_recv_null>
    5aec:	b7d9                	j	5ab2 <tcp_fasttmr+0x26>

00005aee <tcp_tmr>:
tcp_tmr():
    5aee:	f42fa2ef          	jal	t0,230 <__riscv_save_0>
    5af2:	f9bff0ef          	jal	ra,5a8c <tcp_fasttmr>
    5af6:	8fc18713          	addi	a4,gp,-1796 # 2000011c <tcp_timer>
    5afa:	231c                	lbu	a5,0(a4)
    5afc:	0785                	addi	a5,a5,1
    5afe:	0ff7f793          	andi	a5,a5,255
    5b02:	a31c                	sb	a5,0(a4)
    5b04:	8b85                	andi	a5,a5,1
    5b06:	c399                	beqz	a5,5b0c <tcp_tmr+0x1e>
    5b08:	b93ff0ef          	jal	ra,569a <tcp_slowtmr>
    5b0c:	f48fa06f          	j	254 <__riscv_restore_0>

00005b10 <tcp_abandon>:
tcp_abandon():
    5b10:	ef8fa2ef          	jal	t0,208 <__riscv_save_10>
    5b14:	4918                	lw	a4,16(a0)
    5b16:	47a9                	li	a5,10
    5b18:	1141                	addi	sp,sp,-16
    5b1a:	842a                	mv	s0,a0
    5b1c:	00f71e63          	bne	a4,a5,5b38 <tcp_abandon+0x28>
    5b20:	85aa                	mv	a1,a0
    5b22:	90418513          	addi	a0,gp,-1788 # 20000124 <tcp_tw_pcbs>
    5b26:	e13ff0ef          	jal	ra,5938 <tcp_pcb_remove>
    5b2a:	85a2                	mv	a1,s0
    5b2c:	4509                	li	a0,2
    5b2e:	a90ff0ef          	jal	ra,4dbe <memp_free>
    5b32:	0141                	addi	sp,sp,16
    5b34:	f0cfa06f          	j	240 <__riscv_restore_10>
    5b38:	411c                	lw	a5,0(a0)
    5b3a:	8b2e                	mv	s6,a1
    5b3c:	06052903          	lw	s2,96(a0)
    5b40:	c63e                	sw	a5,12(sp)
    5b42:	415c                	lw	a5,4(a0)
    5b44:	02852983          	lw	s3,40(a0)
    5b48:	01c55a03          	lhu	s4,28(a0)
    5b4c:	c43e                	sw	a5,8(sp)
    5b4e:	02455a83          	lhu	s5,36(a0)
    5b52:	09c52483          	lw	s1,156(a0)
    5b56:	01852b83          	lw	s7,24(a0)
    5b5a:	cf8fd0ef          	jal	ra,3052 <LwipRemoveTcpPcb>
    5b5e:	8ec18513          	addi	a0,gp,-1812 # 2000010c <tcp_active_pcbs>
    5b62:	85a2                	mv	a1,s0
    5b64:	dd5ff0ef          	jal	ra,5938 <tcp_pcb_remove>
    5b68:	08042503          	lw	a0,128(s0)
    5b6c:	c119                	beqz	a0,5b72 <tcp_abandon+0x62>
    5b6e:	a79ff0ef          	jal	ra,55e6 <tcp_segs_free>
    5b72:	5c68                	lw	a0,124(s0)
    5b74:	c119                	beqz	a0,5b7a <tcp_abandon+0x6a>
    5b76:	a71ff0ef          	jal	ra,55e6 <tcp_segs_free>
    5b7a:	08442503          	lw	a0,132(s0)
    5b7e:	c119                	beqz	a0,5b84 <tcp_abandon+0x74>
    5b80:	a67ff0ef          	jal	ra,55e6 <tcp_segs_free>
    5b84:	85a2                	mv	a1,s0
    5b86:	4509                	li	a0,2
    5b88:	a36ff0ef          	jal	ra,4dbe <memp_free>
    5b8c:	c481                	beqz	s1,5b94 <tcp_abandon+0x84>
    5b8e:	55ed                	li	a1,-5
    5b90:	855e                	mv	a0,s7
    5b92:	9482                	jalr	s1
    5b94:	f80b0fe3          	beqz	s6,5b32 <tcp_abandon+0x22>
    5b98:	87d6                	mv	a5,s5
    5b9a:	8752                	mv	a4,s4
    5b9c:	0034                	addi	a3,sp,8
    5b9e:	0070                	addi	a2,sp,12
    5ba0:	85ce                	mv	a1,s3
    5ba2:	854a                	mv	a0,s2
    5ba4:	024020ef          	jal	ra,7bc8 <tcp_rst>
    5ba8:	b769                	j	5b32 <tcp_abandon+0x22>

00005baa <tcp_next_iss>:
tcp_next_iss():
    5baa:	83018793          	addi	a5,gp,-2000 # 20000050 <iss.3173>
    5bae:	4388                	lw	a0,0(a5)
    5bb0:	8f81a703          	lw	a4,-1800(gp) # 20000118 <tcp_ticks>
    5bb4:	953a                	add	a0,a0,a4
    5bb6:	c388                	sw	a0,0(a5)
    5bb8:	8082                	ret

00005bba <tcp_alloc>:
tcp_alloc():
    5bba:	e5cfa2ef          	jal	t0,216 <__riscv_save_4>
    5bbe:	892a                	mv	s2,a0
    5bc0:	4509                	li	a0,2
    5bc2:	9dcff0ef          	jal	ra,4d9e <memp_malloc>
    5bc6:	200064b7          	lui	s1,0x20006
    5bca:	25048493          	addi	s1,s1,592 # 20006250 <WCHCfg>
    5bce:	842a                	mv	s0,a0
    5bd0:	e125                	bnez	a0,5c30 <tcp_alloc+0x76>
    5bd2:	489c                	lw	a5,16(s1)
    5bd4:	8389                	srli	a5,a5,0x2
    5bd6:	8b85                	andi	a5,a5,1
    5bd8:	e789                	bnez	a5,5be2 <tcp_alloc+0x28>
    5bda:	4401                	li	s0,0
    5bdc:	8522                	mv	a0,s0
    5bde:	e6cfa06f          	j	24a <__riscv_restore_4>
    5be2:	9041a783          	lw	a5,-1788(gp) # 20000124 <tcp_tw_pcbs>
    5be6:	8f81a603          	lw	a2,-1800(gp) # 20000118 <tcp_ticks>
    5bea:	4501                	li	a0,0
    5bec:	4681                	li	a3,0
    5bee:	8f818993          	addi	s3,gp,-1800 # 20000118 <tcp_ticks>
    5bf2:	e7f1                	bnez	a5,5cbe <tcp_alloc+0x104>
    5bf4:	c501                	beqz	a0,5bfc <tcp_alloc+0x42>
    5bf6:	4585                	li	a1,1
    5bf8:	f19ff0ef          	jal	ra,5b10 <tcp_abandon>
    5bfc:	4509                	li	a0,2
    5bfe:	9a0ff0ef          	jal	ra,4d9e <memp_malloc>
    5c02:	842a                	mv	s0,a0
    5c04:	e515                	bnez	a0,5c30 <tcp_alloc+0x76>
    5c06:	8ec1a783          	lw	a5,-1812(gp) # 2000010c <tcp_active_pcbs>
    5c0a:	0009a503          	lw	a0,0(s3)
    5c0e:	197d                	addi	s2,s2,-1
    5c10:	0ff97913          	andi	s2,s2,255
    5c14:	07f00613          	li	a2,127
    5c18:	4581                	li	a1,0
    5c1a:	ebdd                	bnez	a5,5cd0 <tcp_alloc+0x116>
    5c1c:	c409                	beqz	s0,5c26 <tcp_alloc+0x6c>
    5c1e:	4585                	li	a1,1
    5c20:	8522                	mv	a0,s0
    5c22:	eefff0ef          	jal	ra,5b10 <tcp_abandon>
    5c26:	4509                	li	a0,2
    5c28:	976ff0ef          	jal	ra,4d9e <memp_malloc>
    5c2c:	842a                	mv	s0,a0
    5c2e:	d555                	beqz	a0,5bda <tcp_alloc+0x20>
    5c30:	0b400613          	li	a2,180
    5c34:	4581                	li	a1,0
    5c36:	8522                	mv	a0,s0
    5c38:	e28fa0ef          	jal	ra,260 <memset>
    5c3c:	04000793          	li	a5,64
    5c40:	a85c                	sb	a5,20(s0)
    5c42:	449c                	lw	a5,8(s1)
    5c44:	06041c23          	sh	zero,120(s0)
    5c48:	21800713          	li	a4,536
    5c4c:	06f41b23          	sh	a5,118(s0)
    5c50:	385e                	lhu	a5,52(s0)
    5c52:	b45e                	sh	a5,44(s0)
    5c54:	b47e                	sh	a5,46(s0)
    5c56:	77e1                	lui	a5,0xffff8
    5c58:	a43e                	sh	a5,10(s0)
    5c5a:	40dc                	lw	a5,4(s1)
    5c5c:	00f77463          	bgeu	a4,a5,5c64 <tcp_alloc+0xaa>
    5c60:	21800793          	li	a5,536
    5c64:	04f41023          	sh	a5,64(s0)
    5c68:	67c1                	lui	a5,0x10
    5c6a:	577d                	li	a4,-1
    5c6c:	c47c                	sw	a5,76(s0)
    5c6e:	4785                	li	a5,1
    5c70:	04f41823          	sh	a5,80(s0)
    5c74:	bc7a                	sh	a4,62(s0)
    5c76:	04f41d23          	sh	a5,90(s0)
    5c7a:	f31ff0ef          	jal	ra,5baa <tcp_next_iss>
    5c7e:	8f81a783          	lw	a5,-1800(gp) # 20000118 <tcp_ticks>
    5c82:	d468                	sw	a0,108(s0)
    5c84:	d028                	sw	a0,96(s0)
    5c86:	dc1c                	sw	a5,56(s0)
    5c88:	000067b7          	lui	a5,0x6
    5c8c:	a5c78793          	addi	a5,a5,-1444 # 5a5c <tcp_recv_null>
    5c90:	08f42823          	sw	a5,144(s0)
    5c94:	200067b7          	lui	a5,0x20006
    5c98:	2007a703          	lw	a4,512(a5) # 20006200 <KeepLiveCfg>
    5c9c:	20078793          	addi	a5,a5,512
    5ca0:	c868                	sw	a0,84(s0)
    5ca2:	0ae42023          	sw	a4,160(s0)
    5ca6:	43d8                	lw	a4,4(a5)
    5ca8:	479c                	lw	a5,8(a5)
    5caa:	d828                	sw	a0,112(s0)
    5cac:	02040e23          	sb	zero,60(s0)
    5cb0:	0ae42223          	sw	a4,164(s0)
    5cb4:	0af42423          	sw	a5,168(s0)
    5cb8:	0a0408a3          	sb	zero,177(s0)
    5cbc:	b705                	j	5bdc <tcp_alloc+0x22>
    5cbe:	5f98                	lw	a4,56(a5)
    5cc0:	40e60733          	sub	a4,a2,a4
    5cc4:	00d76463          	bltu	a4,a3,5ccc <tcp_alloc+0x112>
    5cc8:	86ba                	mv	a3,a4
    5cca:	853e                	mv	a0,a5
    5ccc:	47dc                	lw	a5,12(a5)
    5cce:	b715                	j	5bf2 <tcp_alloc+0x38>
    5cd0:	2bd4                	lbu	a3,20(a5)
    5cd2:	00d96c63          	bltu	s2,a3,5cea <tcp_alloc+0x130>
    5cd6:	00d66a63          	bltu	a2,a3,5cea <tcp_alloc+0x130>
    5cda:	5f98                	lw	a4,56(a5)
    5cdc:	40e50733          	sub	a4,a0,a4
    5ce0:	00b76563          	bltu	a4,a1,5cea <tcp_alloc+0x130>
    5ce4:	8636                	mv	a2,a3
    5ce6:	85ba                	mv	a1,a4
    5ce8:	843e                	mv	s0,a5
    5cea:	47dc                	lw	a5,12(a5)
    5cec:	b73d                	j	5c1a <tcp_alloc+0x60>

00005cee <tcp_new>:
tcp_new():
    5cee:	d42fa2ef          	jal	t0,230 <__riscv_save_0>
    5cf2:	04000513          	li	a0,64
    5cf6:	ec5ff0ef          	jal	ra,5bba <tcp_alloc>
    5cfa:	d5afa06f          	j	254 <__riscv_restore_0>

00005cfe <tcp_eff_send_mss>:
tcp_eff_send_mss():
    5cfe:	d32fa2ef          	jal	t0,230 <__riscv_save_0>
    5d02:	842a                	mv	s0,a0
    5d04:	852e                	mv	a0,a1
    5d06:	efbfd0ef          	jal	ra,3c00 <ip_route>
    5d0a:	cd11                	beqz	a0,5d26 <tcp_eff_send_mss+0x28>
    5d0c:	391e                	lhu	a5,48(a0)
    5d0e:	cf81                	beqz	a5,5d26 <tcp_eff_send_mss+0x28>
    5d10:	fd878793          	addi	a5,a5,-40
    5d14:	873e                	mv	a4,a5
    5d16:	07c2                	slli	a5,a5,0x10
    5d18:	83c1                	srli	a5,a5,0x10
    5d1a:	00f47363          	bgeu	s0,a5,5d20 <tcp_eff_send_mss+0x22>
    5d1e:	8722                	mv	a4,s0
    5d20:	01071413          	slli	s0,a4,0x10
    5d24:	8041                	srli	s0,s0,0x10
    5d26:	8522                	mv	a0,s0
    5d28:	d2cfa06f          	j	254 <__riscv_restore_0>

00005d2c <tcp_connect>:
tcp_connect():
    5d2c:	ceafa2ef          	jal	t0,216 <__riscv_save_4>
    5d30:	4918                	lw	a4,16(a0)
    5d32:	54cd                	li	s1,-13
    5d34:	eb45                	bnez	a4,5de4 <tcp_connect+0xb8>
    5d36:	89ae                	mv	s3,a1
    5d38:	54dd                	li	s1,-9
    5d3a:	c5cd                	beqz	a1,5de4 <tcp_connect+0xb8>
    5d3c:	842a                	mv	s0,a0
    5d3e:	84b2                	mv	s1,a2
    5d40:	0511                	addi	a0,a0,4
    5d42:	4611                	li	a2,4
    5d44:	8936                	mv	s2,a3
    5d46:	11c030ef          	jal	ra,8e62 <memcpy>
    5d4a:	2c5e                	lhu	a5,28(s0)
    5d4c:	b046                	sh	s1,36(s0)
    5d4e:	e781                	bnez	a5,5d56 <tcp_connect+0x2a>
    5d50:	e76ff0ef          	jal	ra,53c6 <tcp_new_port>
    5d54:	ac4a                	sh	a0,28(s0)
    5d56:	e55ff0ef          	jal	ra,5baa <tcp_next_iss>
    5d5a:	385e                	lhu	a5,52(s0)
    5d5c:	d028                	sw	a0,96(s0)
    5d5e:	157d                	addi	a0,a0,-1
    5d60:	b45e                	sh	a5,44(s0)
    5d62:	b47e                	sh	a5,46(s0)
    5d64:	06f41223          	sh	a5,100(s0)
    5d68:	200067b7          	lui	a5,0x20006
    5d6c:	c868                	sw	a0,84(s0)
    5d6e:	d828                	sw	a0,112(s0)
    5d70:	2547a503          	lw	a0,596(a5) # 20006254 <WCHCfg+0x4>
    5d74:	02042423          	sw	zero,40(s0)
    5d78:	02042823          	sw	zero,48(s0)
    5d7c:	21800793          	li	a5,536
    5d80:	00a7f463          	bgeu	a5,a0,5d88 <tcp_connect+0x5c>
    5d84:	21800513          	li	a0,536
    5d88:	0542                	slli	a0,a0,0x10
    5d8a:	8141                	srli	a0,a0,0x10
    5d8c:	04a41023          	sh	a0,64(s0)
    5d90:	85ce                	mv	a1,s3
    5d92:	f6dff0ef          	jal	ra,5cfe <tcp_eff_send_mss>
    5d96:	4785                	li	a5,1
    5d98:	04f41d23          	sh	a5,90(s0)
    5d9c:	47a9                	li	a5,10
    5d9e:	04a41023          	sh	a0,64(s0)
    5da2:	02f50533          	mul	a0,a0,a5
    5da6:	4789                	li	a5,2
    5da8:	8f018713          	addi	a4,gp,-1808 # 20000110 <tcp_bound_pcbs>
    5dac:	c81c                	sw	a5,16(s0)
    5dae:	431c                	lw	a5,0(a4)
    5db0:	09242a23          	sw	s2,148(s0)
    5db4:	04a41e23          	sh	a0,92(s0)
    5db8:	02879963          	bne	a5,s0,5dea <tcp_connect+0xbe>
    5dbc:	445c                	lw	a5,12(s0)
    5dbe:	c31c                	sw	a5,0(a4)
    5dc0:	8ec18793          	addi	a5,gp,-1812 # 2000010c <tcp_active_pcbs>
    5dc4:	4398                	lw	a4,0(a5)
    5dc6:	4689                	li	a3,2
    5dc8:	c380                	sw	s0,0(a5)
    5dca:	c458                	sw	a4,12(s0)
    5dcc:	4785                	li	a5,1
    5dce:	4701                	li	a4,0
    5dd0:	4601                	li	a2,0
    5dd2:	4581                	li	a1,0
    5dd4:	8522                	mv	a0,s0
    5dd6:	57c010ef          	jal	ra,7352 <tcp_enqueue>
    5dda:	84aa                	mv	s1,a0
    5ddc:	e501                	bnez	a0,5de4 <tcp_connect+0xb8>
    5dde:	8522                	mv	a0,s0
    5de0:	275010ef          	jal	ra,7854 <tcp_output>
    5de4:	8526                	mv	a0,s1
    5de6:	c64fa06f          	j	24a <__riscv_restore_4>
    5dea:	90f1a023          	sw	a5,-1792(gp) # 20000120 <tcp_tmp_pcb>
    5dee:	4681                	li	a3,0
    5df0:	90018713          	addi	a4,gp,-1792 # 20000120 <tcp_tmp_pcb>
    5df4:	e789                	bnez	a5,5dfe <tcp_connect+0xd2>
    5df6:	d6e9                	beqz	a3,5dc0 <tcp_connect+0x94>
    5df8:	00072023          	sw	zero,0(a4)
    5dfc:	b7d1                	j	5dc0 <tcp_connect+0x94>
    5dfe:	47d0                	lw	a2,12(a5)
    5e00:	00861763          	bne	a2,s0,5e0e <tcp_connect+0xe2>
    5e04:	c291                	beqz	a3,5e08 <tcp_connect+0xdc>
    5e06:	c31c                	sw	a5,0(a4)
    5e08:	4458                	lw	a4,12(s0)
    5e0a:	c7d8                	sw	a4,12(a5)
    5e0c:	bf55                	j	5dc0 <tcp_connect+0x94>
    5e0e:	4685                	li	a3,1
    5e10:	87b2                	mv	a5,a2
    5e12:	b7cd                	j	5df4 <tcp_connect+0xc8>

00005e14 <RemoveTimeWaiTCP>:
RemoveTimeWaiTCP():
    5e14:	c1cfa2ef          	jal	t0,230 <__riscv_save_0>
    5e18:	9041a403          	lw	s0,-1788(gp) # 20000124 <tcp_tw_pcbs>
    5e1c:	90418493          	addi	s1,gp,-1788 # 20000124 <tcp_tw_pcbs>
    5e20:	e019                	bnez	s0,5e26 <RemoveTimeWaiTCP+0x12>
    5e22:	c32fa06f          	j	254 <__riscv_restore_0>
    5e26:	8522                	mv	a0,s0
    5e28:	a2afd0ef          	jal	ra,3052 <LwipRemoveTcpPcb>
    5e2c:	8522                	mv	a0,s0
    5e2e:	81fff0ef          	jal	ra,564c <tcp_pcb_purge>
    5e32:	00c42903          	lw	s2,12(s0)
    5e36:	85a2                	mv	a1,s0
    5e38:	4509                	li	a0,2
    5e3a:	0124a023          	sw	s2,0(s1)
    5e3e:	844a                	mv	s0,s2
    5e40:	f7ffe0ef          	jal	ra,4dbe <memp_free>
    5e44:	bff1                	j	5e20 <RemoveTimeWaiTCP+0xc>

00005e46 <tcp_oos_insert_segment>:
tcp_oos_insert_segment():
    5e46:	bd0fa2ef          	jal	t0,216 <__riscv_save_4>
    5e4a:	491c                	lw	a5,16(a0)
    5e4c:	84aa                	mv	s1,a0
    5e4e:	8a2e                	mv	s4,a1
    5e50:	27c8                	lbu	a0,12(a5)
    5e52:	37dc                	lbu	a5,13(a5)
    5e54:	07a2                	slli	a5,a5,0x8
    5e56:	8d5d                	or	a0,a0,a5
    5e58:	d6bfd0ef          	jal	ra,3bc2 <ntohs>
    5e5c:	8905                	andi	a0,a0,1
    5e5e:	e929                	bnez	a0,5eb0 <tcp_oos_insert_segment+0x6a>
    5e60:	6941                	lui	s2,0x10
    5e62:	fc090913          	addi	s2,s2,-64 # ffc0 <_data_lma+0x436c>
    5e66:	010a2703          	lw	a4,16(s4)
    5e6a:	91c1a603          	lw	a2,-1764(gp) # 2000013c <seqno>
    5e6e:	24de                	lhu	a5,12(s1)
    5e70:	3354                	lbu	a3,5(a4)
    5e72:	234c                	lbu	a1,4(a4)
    5e74:	97b2                	add	a5,a5,a2
    5e76:	06a2                	slli	a3,a3,0x8
    5e78:	8dd5                	or	a1,a1,a3
    5e7a:	2374                	lbu	a3,6(a4)
    5e7c:	06c2                	slli	a3,a3,0x10
    5e7e:	8ecd                	or	a3,a3,a1
    5e80:	336c                	lbu	a1,7(a4)
    5e82:	05e2                	slli	a1,a1,0x18
    5e84:	8dd5                	or	a1,a1,a3
    5e86:	00ca5683          	lhu	a3,12(s4)
    5e8a:	96ae                	add	a3,a3,a1
    5e8c:	40d786b3          	sub	a3,a5,a3
    5e90:	0206d563          	bgez	a3,5eba <tcp_oos_insert_segment+0x74>
    5e94:	8f8d                	sub	a5,a5,a1
    5e96:	00f05963          	blez	a5,5ea8 <tcp_oos_insert_segment+0x62>
    5e9a:	8d91                	sub	a1,a1,a2
    5e9c:	05c2                	slli	a1,a1,0x10
    5e9e:	40c8                	lw	a0,4(s1)
    5ea0:	81c1                	srli	a1,a1,0x10
    5ea2:	a4ce                	sh	a1,12(s1)
    5ea4:	a7aff0ef          	jal	ra,511e <pbuf_realloc>
    5ea8:	0144a023          	sw	s4,0(s1)
    5eac:	b9efa06f          	j	24a <__riscv_restore_4>
    5eb0:	8552                	mv	a0,s4
    5eb2:	f34ff0ef          	jal	ra,55e6 <tcp_segs_free>
    5eb6:	4a01                	li	s4,0
    5eb8:	bfc5                	j	5ea8 <tcp_oos_insert_segment+0x62>
    5eba:	375c                	lbu	a5,13(a4)
    5ebc:	2748                	lbu	a0,12(a4)
    5ebe:	07a2                	slli	a5,a5,0x8
    5ec0:	8d5d                	or	a0,a0,a5
    5ec2:	d01fd0ef          	jal	ra,3bc2 <ntohs>
    5ec6:	8905                	andi	a0,a0,1
    5ec8:	cd15                	beqz	a0,5f04 <tcp_oos_insert_segment+0xbe>
    5eca:	489c                	lw	a5,16(s1)
    5ecc:	37c0                	lbu	s0,13(a5)
    5ece:	27c8                	lbu	a0,12(a5)
    5ed0:	0422                	slli	s0,s0,0x8
    5ed2:	8c49                	or	s0,s0,a0
    5ed4:	854a                	mv	a0,s2
    5ed6:	cdffd0ef          	jal	ra,3bb4 <htons>
    5eda:	489c                	lw	a5,16(s1)
    5edc:	8c69                	and	s0,s0,a0
    5ede:	27c8                	lbu	a0,12(a5)
    5ee0:	37dc                	lbu	a5,13(a5)
    5ee2:	07a2                	slli	a5,a5,0x8
    5ee4:	8d5d                	or	a0,a0,a5
    5ee6:	cddfd0ef          	jal	ra,3bc2 <ntohs>
    5eea:	03e57513          	andi	a0,a0,62
    5eee:	00156513          	ori	a0,a0,1
    5ef2:	cc3fd0ef          	jal	ra,3bb4 <htons>
    5ef6:	489c                	lw	a5,16(s1)
    5ef8:	8d41                	or	a0,a0,s0
    5efa:	0542                	slli	a0,a0,0x10
    5efc:	8141                	srli	a0,a0,0x10
    5efe:	a7c8                	sb	a0,12(a5)
    5f00:	8121                	srli	a0,a0,0x8
    5f02:	b7c8                	sb	a0,13(a5)
    5f04:	000a2403          	lw	s0,0(s4)
    5f08:	8552                	mv	a0,s4
    5f0a:	eb2ff0ef          	jal	ra,55bc <tcp_seg_free>
    5f0e:	d445                	beqz	s0,5eb6 <tcp_oos_insert_segment+0x70>
    5f10:	8a22                	mv	s4,s0
    5f12:	bf91                	j	5e66 <tcp_oos_insert_segment+0x20>

00005f14 <tcp_receive>:
tcp_receive():
    5f14:	af4fa2ef          	jal	t0,208 <__riscv_save_10>
    5f18:	90c1c783          	lbu	a5,-1780(gp) # 2000012c <flags>
    5f1c:	842a                	mv	s0,a0
    5f1e:	8bc1                	andi	a5,a5,16
    5f20:	91c18913          	addi	s2,gp,-1764 # 2000013c <seqno>
    5f24:	c7f1                	beqz	a5,5ff0 <tcp_receive+0xdc>
    5f26:	00092583          	lw	a1,0(s2)
    5f2a:	5538                	lw	a4,104(a0)
    5f2c:	06455683          	lhu	a3,100(a0)
    5f30:	5570                	lw	a2,108(a0)
    5f32:	40b70533          	sub	a0,a4,a1
    5f36:	9081a783          	lw	a5,-1784(gp) # 20000128 <ackno>
    5f3a:	90818493          	addi	s1,gp,-1784 # 20000128 <ackno>
    5f3e:	02054463          	bltz	a0,5f66 <tcp_receive+0x52>
    5f42:	00b71663          	bne	a4,a1,5f4e <tcp_receive+0x3a>
    5f46:	40f60733          	sub	a4,a2,a5
    5f4a:	00074e63          	bltz	a4,5f66 <tcp_receive+0x52>
    5f4e:	02f61e63          	bne	a2,a5,5f8a <tcp_receive+0x76>
    5f52:	9241a503          	lw	a0,-1756(gp) # 20000144 <tcphdr>
    5f56:	3578                	lbu	a4,15(a0)
    5f58:	00e54803          	lbu	a6,14(a0)
    5f5c:	0722                	slli	a4,a4,0x8
    5f5e:	01076733          	or	a4,a4,a6
    5f62:	02e6f463          	bgeu	a3,a4,5f8a <tcp_receive+0x76>
    5f66:	9241a503          	lw	a0,-1756(gp) # 20000144 <tcphdr>
    5f6a:	3578                	lbu	a4,15(a0)
    5f6c:	00e54803          	lbu	a6,14(a0)
    5f70:	d42c                	sw	a1,104(s0)
    5f72:	0722                	slli	a4,a4,0x8
    5f74:	01076733          	or	a4,a4,a6
    5f78:	06e41223          	sh	a4,100(s0)
    5f7c:	d47c                	sw	a5,108(s0)
    5f7e:	c711                	beqz	a4,5f8a <tcp_receive+0x76>
    5f80:	0b044703          	lbu	a4,176(s0)
    5f84:	c319                	beqz	a4,5f8a <tcp_receive+0x76>
    5f86:	0a040823          	sb	zero,176(s0)
    5f8a:	486c                	lw	a1,84(s0)
    5f8c:	40b78733          	sub	a4,a5,a1
    5f90:	2ae04263          	bgtz	a4,6234 <tcp_receive+0x320>
    5f94:	9281d703          	lhu	a4,-1752(gp) # 20000148 <tcplen>
    5f98:	06041a23          	sh	zero,116(s0)
    5f9c:	28071963          	bnez	a4,622e <tcp_receive+0x31a>
    5fa0:	06445703          	lhu	a4,100(s0)
    5fa4:	5468                	lw	a0,108(s0)
    5fa6:	96b2                	add	a3,a3,a2
    5fa8:	972a                	add	a4,a4,a0
    5faa:	28d71263          	bne	a4,a3,622e <tcp_receive+0x31a>
    5fae:	03e41703          	lh	a4,62(s0)
    5fb2:	26074e63          	bltz	a4,622e <tcp_receive+0x31a>
    5fb6:	26f59c63          	bne	a1,a5,622e <tcp_receive+0x31a>
    5fba:	05844783          	lbu	a5,88(s0)
    5fbe:	470d                	li	a4,3
    5fc0:	0785                	addi	a5,a5,1
    5fc2:	0ff7f793          	andi	a5,a5,255
    5fc6:	04f40c23          	sb	a5,88(s0)
    5fca:	24f77c63          	bgeu	a4,a5,6222 <tcp_receive+0x30e>
    5fce:	05a45703          	lhu	a4,90(s0)
    5fd2:	04045783          	lhu	a5,64(s0)
    5fd6:	97ba                	add	a5,a5,a4
    5fd8:	07c2                	slli	a5,a5,0x10
    5fda:	83c1                	srli	a5,a5,0x10
    5fdc:	00f77463          	bgeu	a4,a5,5fe4 <tcp_receive+0xd0>
    5fe0:	04f41d23          	sh	a5,90(s0)
    5fe4:	5c7c                	lw	a5,124(s0)
    5fe6:	36079f63          	bnez	a5,6364 <tcp_receive+0x450>
    5fea:	4070                	lw	a2,68(s0)
    5fec:	40061a63          	bnez	a2,6400 <tcp_receive+0x4ec>
    5ff0:	9281d603          	lhu	a2,-1752(gp) # 20000148 <tcplen>
    5ff4:	00092783          	lw	a5,0(s2)
    5ff8:	5414                	lw	a3,40(s0)
    5ffa:	92818a13          	addi	s4,gp,-1752 # 20000148 <tcplen>
    5ffe:	7e060663          	beqz	a2,67ea <tcp_receive+0x8d6>
    6002:	40f685b3          	sub	a1,a3,a5
    6006:	fff58713          	addi	a4,a1,-1
    600a:	46074b63          	bltz	a4,6480 <tcp_receive+0x56c>
    600e:	4705                	li	a4,1
    6010:	8f1d                	sub	a4,a4,a5
    6012:	8f11                	sub	a4,a4,a2
    6014:	9736                	add	a4,a4,a3
    6016:	46e04563          	bgtz	a4,6480 <tcp_receive+0x56c>
    601a:	200069b7          	lui	s3,0x20006
    601e:	2d498793          	addi	a5,s3,724 # 200062d4 <inseg>
    6022:	43c4                	lw	s1,4(a5)
    6024:	01059713          	slli	a4,a1,0x10
    6028:	8341                	srli	a4,a4,0x10
    602a:	24be                	lhu	a5,10(s1)
    602c:	2d498993          	addi	s3,s3,724
    6030:	44b7d363          	bge	a5,a1,6476 <tcp_receive+0x562>
    6034:	249e                	lhu	a5,8(s1)
    6036:	8f99                	sub	a5,a5,a4
    6038:	07c2                	slli	a5,a5,0x10
    603a:	83c1                	srli	a5,a5,0x10
    603c:	24ba                	lhu	a4,10(s1)
    603e:	42b74663          	blt	a4,a1,646a <tcp_receive+0x556>
    6042:	40b005b3          	neg	a1,a1
    6046:	05c2                	slli	a1,a1,0x10
    6048:	85c1                	srai	a1,a1,0x10
    604a:	8526                	mv	a0,s1
    604c:	ed7fe0ef          	jal	ra,4f22 <pbuf_header>
    6050:	40dc                	lw	a5,4(s1)
    6052:	00c9d683          	lhu	a3,12(s3)
    6056:	00092703          	lw	a4,0(s2)
    605a:	00f9a423          	sw	a5,8(s3)
    605e:	541c                	lw	a5,40(s0)
    6060:	9736                	add	a4,a4,a3
    6062:	8f1d                	sub	a4,a4,a5
    6064:	00e99623          	sh	a4,12(s3)
    6068:	0109a703          	lw	a4,16(s3)
    606c:	0087d693          	srli	a3,a5,0x8
    6070:	00f92023          	sw	a5,0(s2)
    6074:	a35c                	sb	a5,4(a4)
    6076:	b354                	sb	a3,5(a4)
    6078:	0107d693          	srli	a3,a5,0x10
    607c:	83e1                	srli	a5,a5,0x18
    607e:	a374                	sb	a3,6(a4)
    6080:	b37c                	sb	a5,7(a4)
    6082:	00092683          	lw	a3,0(s2)
    6086:	5418                	lw	a4,40(s0)
    6088:	40e687b3          	sub	a5,a3,a4
    608c:	7407cb63          	bltz	a5,67e2 <tcp_receive+0x8ce>
    6090:	3452                	lhu	a2,44(s0)
    6092:	00168793          	addi	a5,a3,1
    6096:	8f99                	sub	a5,a5,a4
    6098:	8f91                	sub	a5,a5,a2
    609a:	74f04463          	bgtz	a5,67e2 <tcp_receive+0x8ce>
    609e:	5ce69063          	bne	a3,a4,665e <tcp_receive+0x74a>
    60a2:	200064b7          	lui	s1,0x20006
    60a6:	2d448793          	addi	a5,s1,724 # 200062d4 <inseg>
    60aa:	00c7d983          	lhu	s3,12(a5)
    60ae:	4b9c                	lw	a5,16(a5)
    60b0:	2d448493          	addi	s1,s1,724
    60b4:	27c8                	lbu	a0,12(a5)
    60b6:	37dc                	lbu	a5,13(a5)
    60b8:	07a2                	slli	a5,a5,0x8
    60ba:	8d5d                	or	a0,a0,a5
    60bc:	b07fd0ef          	jal	ra,3bc2 <ntohs>
    60c0:	890d                	andi	a0,a0,3
    60c2:	00a03533          	snez	a0,a0
    60c6:	954e                	add	a0,a0,s3
    60c8:	0542                	slli	a0,a0,0x10
    60ca:	345e                	lhu	a5,44(s0)
    60cc:	8141                	srli	a0,a0,0x10
    60ce:	00aa1023          	sh	a0,0(s4)
    60d2:	08a7fd63          	bgeu	a5,a0,616c <tcp_receive+0x258>
    60d6:	489c                	lw	a5,16(s1)
    60d8:	27c8                	lbu	a0,12(a5)
    60da:	37dc                	lbu	a5,13(a5)
    60dc:	07a2                	slli	a5,a5,0x8
    60de:	8d5d                	or	a0,a0,a5
    60e0:	ae3fd0ef          	jal	ra,3bc2 <ntohs>
    60e4:	8905                	andi	a0,a0,1
    60e6:	c131                	beqz	a0,612a <tcp_receive+0x216>
    60e8:	489c                	lw	a5,16(s1)
    60ea:	00d7c983          	lbu	s3,13(a5)
    60ee:	27c8                	lbu	a0,12(a5)
    60f0:	09a2                	slli	s3,s3,0x8
    60f2:	00a9e9b3          	or	s3,s3,a0
    60f6:	6541                	lui	a0,0x10
    60f8:	fc050513          	addi	a0,a0,-64 # ffc0 <_data_lma+0x436c>
    60fc:	ab9fd0ef          	jal	ra,3bb4 <htons>
    6100:	489c                	lw	a5,16(s1)
    6102:	00a9f9b3          	and	s3,s3,a0
    6106:	27c8                	lbu	a0,12(a5)
    6108:	37dc                	lbu	a5,13(a5)
    610a:	07a2                	slli	a5,a5,0x8
    610c:	8d5d                	or	a0,a0,a5
    610e:	ab5fd0ef          	jal	ra,3bc2 <ntohs>
    6112:	03e57513          	andi	a0,a0,62
    6116:	a9ffd0ef          	jal	ra,3bb4 <htons>
    611a:	489c                	lw	a5,16(s1)
    611c:	00a9e533          	or	a0,s3,a0
    6120:	0542                	slli	a0,a0,0x10
    6122:	8141                	srli	a0,a0,0x10
    6124:	a7c8                	sb	a0,12(a5)
    6126:	8121                	srli	a0,a0,0x8
    6128:	b7c8                	sb	a0,13(a5)
    612a:	345e                	lhu	a5,44(s0)
    612c:	a4de                	sh	a5,12(s1)
    612e:	489c                	lw	a5,16(s1)
    6130:	27c8                	lbu	a0,12(a5)
    6132:	37dc                	lbu	a5,13(a5)
    6134:	07a2                	slli	a5,a5,0x8
    6136:	8d5d                	or	a0,a0,a5
    6138:	a8bfd0ef          	jal	ra,3bc2 <ntohs>
    613c:	8909                	andi	a0,a0,2
    613e:	c501                	beqz	a0,6146 <tcp_receive+0x232>
    6140:	24de                	lhu	a5,12(s1)
    6142:	17fd                	addi	a5,a5,-1
    6144:	a4de                	sh	a5,12(s1)
    6146:	24ce                	lhu	a1,12(s1)
    6148:	40c8                	lw	a0,4(s1)
    614a:	fd5fe0ef          	jal	ra,511e <pbuf_realloc>
    614e:	489c                	lw	a5,16(s1)
    6150:	00c4d983          	lhu	s3,12(s1)
    6154:	27c8                	lbu	a0,12(a5)
    6156:	37dc                	lbu	a5,13(a5)
    6158:	07a2                	slli	a5,a5,0x8
    615a:	8d5d                	or	a0,a0,a5
    615c:	a67fd0ef          	jal	ra,3bc2 <ntohs>
    6160:	890d                	andi	a0,a0,3
    6162:	00a03533          	snez	a0,a0
    6166:	99aa                	add	s3,s3,a0
    6168:	013a1023          	sh	s3,0(s4)
    616c:	08442783          	lw	a5,132(s0)
    6170:	32078d63          	beqz	a5,64aa <tcp_receive+0x596>
    6174:	489c                	lw	a5,16(s1)
    6176:	27c8                	lbu	a0,12(a5)
    6178:	37dc                	lbu	a5,13(a5)
    617a:	07a2                	slli	a5,a5,0x8
    617c:	8d5d                	or	a0,a0,a5
    617e:	a45fd0ef          	jal	ra,3bc2 <ntohs>
    6182:	8905                	andi	a0,a0,1
    6184:	32051063          	bnez	a0,64a4 <tcp_receive+0x590>
    6188:	08442a83          	lw	s5,132(s0)
    618c:	6b41                	lui	s6,0x10
    618e:	fc0b0b13          	addi	s6,s6,-64 # ffc0 <_data_lma+0x436c>
    6192:	00092503          	lw	a0,0(s2)
    6196:	000a5703          	lhu	a4,0(s4)
    619a:	972a                	add	a4,a4,a0
    619c:	080a8063          	beqz	s5,621c <tcp_receive+0x308>
    61a0:	010aa603          	lw	a2,16(s5)
    61a4:	324c                	lbu	a1,5(a2)
    61a6:	2254                	lbu	a3,4(a2)
    61a8:	05a2                	slli	a1,a1,0x8
    61aa:	8dd5                	or	a1,a1,a3
    61ac:	2274                	lbu	a3,6(a2)
    61ae:	06c2                	slli	a3,a3,0x10
    61b0:	8dd5                	or	a1,a1,a3
    61b2:	3274                	lbu	a3,7(a2)
    61b4:	06e2                	slli	a3,a3,0x18
    61b6:	8ecd                	or	a3,a3,a1
    61b8:	00cad583          	lhu	a1,12(s5)
    61bc:	95b6                	add	a1,a1,a3
    61be:	40b705b3          	sub	a1,a4,a1
    61c2:	3205d963          	bgez	a1,64f4 <tcp_receive+0x5e0>
    61c6:	8f15                	sub	a4,a4,a3
    61c8:	04e05a63          	blez	a4,621c <tcp_receive+0x308>
    61cc:	08442783          	lw	a5,132(s0)
    61d0:	4b98                	lw	a4,16(a5)
    61d2:	335c                	lbu	a5,5(a4)
    61d4:	2354                	lbu	a3,4(a4)
    61d6:	07a2                	slli	a5,a5,0x8
    61d8:	8fd5                	or	a5,a5,a3
    61da:	8f89                	sub	a5,a5,a0
    61dc:	a4de                	sh	a5,12(s1)
    61de:	489c                	lw	a5,16(s1)
    61e0:	27c8                	lbu	a0,12(a5)
    61e2:	37dc                	lbu	a5,13(a5)
    61e4:	07a2                	slli	a5,a5,0x8
    61e6:	8d5d                	or	a0,a0,a5
    61e8:	9dbfd0ef          	jal	ra,3bc2 <ntohs>
    61ec:	8909                	andi	a0,a0,2
    61ee:	c501                	beqz	a0,61f6 <tcp_receive+0x2e2>
    61f0:	24de                	lhu	a5,12(s1)
    61f2:	17fd                	addi	a5,a5,-1
    61f4:	a4de                	sh	a5,12(s1)
    61f6:	24ce                	lhu	a1,12(s1)
    61f8:	40c8                	lw	a0,4(s1)
    61fa:	f25fe0ef          	jal	ra,511e <pbuf_realloc>
    61fe:	489c                	lw	a5,16(s1)
    6200:	00c4d983          	lhu	s3,12(s1)
    6204:	27c8                	lbu	a0,12(a5)
    6206:	37dc                	lbu	a5,13(a5)
    6208:	07a2                	slli	a5,a5,0x8
    620a:	8d5d                	or	a0,a0,a5
    620c:	9b7fd0ef          	jal	ra,3bc2 <ntohs>
    6210:	890d                	andi	a0,a0,3
    6212:	00a03533          	snez	a0,a0
    6216:	99aa                	add	s3,s3,a0
    6218:	013a1023          	sh	s3,0(s4)
    621c:	09542223          	sw	s5,132(s0)
    6220:	a469                	j	64aa <tcp_receive+0x596>
    6222:	dce791e3          	bne	a5,a4,5fe4 <tcp_receive+0xd0>
    6226:	8522                	mv	a0,s0
    6228:	35b010ef          	jal	ra,7d82 <tcp_rexmit_fast>
    622c:	bb65                	j	5fe4 <tcp_receive+0xd0>
    622e:	04040c23          	sb	zero,88(s0)
    6232:	bb4d                	j	5fe4 <tcp_receive+0xd0>
    6234:	5034                	lw	a3,96(s0)
    6236:	40d786b3          	sub	a3,a5,a3
    623a:	12d04263          	bgtz	a3,635e <tcp_receive+0x44a>
    623e:	02644683          	lbu	a3,38(s0)
    6242:	0046f613          	andi	a2,a3,4
    6246:	ca01                	beqz	a2,6256 <tcp_receive+0x342>
    6248:	9aed                	andi	a3,a3,-5
    624a:	02d40323          	sb	a3,38(s0)
    624e:	05c45683          	lhu	a3,92(s0)
    6252:	04d41d23          	sh	a3,90(s0)
    6256:	04c41683          	lh	a3,76(s0)
    625a:	04e45603          	lhu	a2,78(s0)
    625e:	0742                	slli	a4,a4,0x10
    6260:	868d                	srai	a3,a3,0x3
    6262:	96b2                	add	a3,a3,a2
    6264:	04d41823          	sh	a3,80(s0)
    6268:	07645683          	lhu	a3,118(s0)
    626c:	8341                	srli	a4,a4,0x10
    626e:	06e41a23          	sh	a4,116(s0)
    6272:	9736                	add	a4,a4,a3
    6274:	06e41b23          	sh	a4,118(s0)
    6278:	4818                	lw	a4,16(s0)
    627a:	c87c                	sw	a5,84(s0)
    627c:	04040923          	sb	zero,82(s0)
    6280:	04040c23          	sb	zero,88(s0)
    6284:	478d                	li	a5,3
    6286:	02e7f163          	bgeu	a5,a4,62a8 <tcp_receive+0x394>
    628a:	05a45703          	lhu	a4,90(s0)
    628e:	05c45683          	lhu	a3,92(s0)
    6292:	04045783          	lhu	a5,64(s0)
    6296:	02d77663          	bgeu	a4,a3,62c2 <tcp_receive+0x3ae>
    629a:	97ba                	add	a5,a5,a4
    629c:	07c2                	slli	a5,a5,0x10
    629e:	83c1                	srli	a5,a5,0x10
    62a0:	00f77463          	bgeu	a4,a5,62a8 <tcp_receive+0x394>
    62a4:	04f41d23          	sh	a5,90(s0)
    62a8:	08042783          	lw	a5,128(s0)
    62ac:	e385                	bnez	a5,62cc <tcp_receive+0x3b8>
    62ae:	08042783          	lw	a5,128(s0)
    62b2:	02040e23          	sb	zero,60(s0)
    62b6:	0017b793          	seqz	a5,a5
    62ba:	40f007b3          	neg	a5,a5
    62be:	bc7e                	sh	a5,62(s0)
    62c0:	b315                	j	5fe4 <tcp_receive+0xd0>
    62c2:	02f787b3          	mul	a5,a5,a5
    62c6:	02e7c7b3          	div	a5,a5,a4
    62ca:	bfc1                	j	629a <tcp_receive+0x386>
    62cc:	4b98                	lw	a4,16(a5)
    62ce:	3348                	lbu	a0,5(a4)
    62d0:	235c                	lbu	a5,4(a4)
    62d2:	0522                	slli	a0,a0,0x8
    62d4:	8d5d                	or	a0,a0,a5
    62d6:	237c                	lbu	a5,6(a4)
    62d8:	07c2                	slli	a5,a5,0x10
    62da:	8fc9                	or	a5,a5,a0
    62dc:	3368                	lbu	a0,7(a4)
    62de:	0562                	slli	a0,a0,0x18
    62e0:	8d5d                	or	a0,a0,a5
    62e2:	913fd0ef          	jal	ra,3bf4 <ntohl>
    62e6:	08042783          	lw	a5,128(s0)
    62ea:	89aa                	mv	s3,a0
    62ec:	00c7da03          	lhu	s4,12(a5)
    62f0:	4b9c                	lw	a5,16(a5)
    62f2:	27c8                	lbu	a0,12(a5)
    62f4:	37dc                	lbu	a5,13(a5)
    62f6:	07a2                	slli	a5,a5,0x8
    62f8:	8d5d                	or	a0,a0,a5
    62fa:	8c9fd0ef          	jal	ra,3bc2 <ntohs>
    62fe:	409c                	lw	a5,0(s1)
    6300:	890d                	andi	a0,a0,3
    6302:	00a03533          	snez	a0,a0
    6306:	9552                	add	a0,a0,s4
    6308:	40f989b3          	sub	s3,s3,a5
    630c:	954e                	add	a0,a0,s3
    630e:	faa040e3          	bgtz	a0,62ae <tcp_receive+0x39a>
    6312:	08042983          	lw	s3,128(s0)
    6316:	0009a783          	lw	a5,0(s3)
    631a:	08f42023          	sw	a5,128(s0)
    631e:	07445783          	lhu	a5,116(s0)
    6322:	c385                	beqz	a5,6342 <tcp_receive+0x42e>
    6324:	0109a783          	lw	a5,16(s3)
    6328:	27c8                	lbu	a0,12(a5)
    632a:	37dc                	lbu	a5,13(a5)
    632c:	07a2                	slli	a5,a5,0x8
    632e:	8d5d                	or	a0,a0,a5
    6330:	893fd0ef          	jal	ra,3bc2 <ntohs>
    6334:	8905                	andi	a0,a0,1
    6336:	c511                	beqz	a0,6342 <tcp_receive+0x42e>
    6338:	07445783          	lhu	a5,116(s0)
    633c:	17fd                	addi	a5,a5,-1
    633e:	06f41a23          	sh	a5,116(s0)
    6342:	0049a503          	lw	a0,4(s3)
    6346:	e31fe0ef          	jal	ra,5176 <pbuf_clen>
    634a:	07845783          	lhu	a5,120(s0)
    634e:	40a78533          	sub	a0,a5,a0
    6352:	06a41c23          	sh	a0,120(s0)
    6356:	854e                	mv	a0,s3
    6358:	a64ff0ef          	jal	ra,55bc <tcp_seg_free>
    635c:	b7b1                	j	62a8 <tcp_receive+0x394>
    635e:	06041a23          	sh	zero,116(s0)
    6362:	b149                	j	5fe4 <tcp_receive+0xd0>
    6364:	4b98                	lw	a4,16(a5)
    6366:	0004a983          	lw	s3,0(s1)
    636a:	3348                	lbu	a0,5(a4)
    636c:	235c                	lbu	a5,4(a4)
    636e:	0522                	slli	a0,a0,0x8
    6370:	8d5d                	or	a0,a0,a5
    6372:	237c                	lbu	a5,6(a4)
    6374:	07c2                	slli	a5,a5,0x10
    6376:	8fc9                	or	a5,a5,a0
    6378:	3368                	lbu	a0,7(a4)
    637a:	0562                	slli	a0,a0,0x18
    637c:	8d5d                	or	a0,a0,a5
    637e:	877fd0ef          	jal	ra,3bf4 <ntohl>
    6382:	5c7c                	lw	a5,124(s0)
    6384:	8aaa                	mv	s5,a0
    6386:	415989b3          	sub	s3,s3,s5
    638a:	00c7da03          	lhu	s4,12(a5)
    638e:	4b9c                	lw	a5,16(a5)
    6390:	27c8                	lbu	a0,12(a5)
    6392:	37dc                	lbu	a5,13(a5)
    6394:	07a2                	slli	a5,a5,0x8
    6396:	8d5d                	or	a0,a0,a5
    6398:	82bfd0ef          	jal	ra,3bc2 <ntohs>
    639c:	890d                	andi	a0,a0,3
    639e:	00a03533          	snez	a0,a0
    63a2:	9552                	add	a0,a0,s4
    63a4:	40a989b3          	sub	s3,s3,a0
    63a8:	c409c1e3          	bltz	s3,5fea <tcp_receive+0xd6>
    63ac:	409c                	lw	a5,0(s1)
    63ae:	5038                	lw	a4,96(s0)
    63b0:	8f99                	sub	a5,a5,a4
    63b2:	c2f04ce3          	bgtz	a5,5fea <tcp_receive+0xd6>
    63b6:	07c42983          	lw	s3,124(s0)
    63ba:	0009a783          	lw	a5,0(s3)
    63be:	dc7c                	sw	a5,124(s0)
    63c0:	07445783          	lhu	a5,116(s0)
    63c4:	c385                	beqz	a5,63e4 <tcp_receive+0x4d0>
    63c6:	0109a783          	lw	a5,16(s3)
    63ca:	27c8                	lbu	a0,12(a5)
    63cc:	37dc                	lbu	a5,13(a5)
    63ce:	07a2                	slli	a5,a5,0x8
    63d0:	8d5d                	or	a0,a0,a5
    63d2:	ff0fd0ef          	jal	ra,3bc2 <ntohs>
    63d6:	8905                	andi	a0,a0,1
    63d8:	c511                	beqz	a0,63e4 <tcp_receive+0x4d0>
    63da:	07445783          	lhu	a5,116(s0)
    63de:	17fd                	addi	a5,a5,-1
    63e0:	06f41a23          	sh	a5,116(s0)
    63e4:	0049a503          	lw	a0,4(s3)
    63e8:	d8ffe0ef          	jal	ra,5176 <pbuf_clen>
    63ec:	07845783          	lhu	a5,120(s0)
    63f0:	40a78533          	sub	a0,a5,a0
    63f4:	06a41c23          	sh	a0,120(s0)
    63f8:	854e                	mv	a0,s3
    63fa:	9c2ff0ef          	jal	ra,55bc <tcp_seg_free>
    63fe:	b6dd                	j	5fe4 <tcp_receive+0xd0>
    6400:	443c                	lw	a5,72(s0)
    6402:	4098                	lw	a4,0(s1)
    6404:	8f99                	sub	a5,a5,a4
    6406:	be07d5e3          	bgez	a5,5ff0 <tcp_receive+0xdc>
    640a:	04c41683          	lh	a3,76(s0)
    640e:	8f81d703          	lhu	a4,-1800(gp) # 20000118 <tcp_ticks>
    6412:	0642                	slli	a2,a2,0x10
    6414:	4036d593          	srai	a1,a3,0x3
    6418:	8241                	srli	a2,a2,0x10
    641a:	05c2                	slli	a1,a1,0x10
    641c:	81c1                	srli	a1,a1,0x10
    641e:	40c707b3          	sub	a5,a4,a2
    6422:	8f8d                	sub	a5,a5,a1
    6424:	07c2                	slli	a5,a5,0x10
    6426:	83c1                	srli	a5,a5,0x10
    6428:	01079513          	slli	a0,a5,0x10
    642c:	97b6                	add	a5,a5,a3
    642e:	07c2                	slli	a5,a5,0x10
    6430:	87c1                	srai	a5,a5,0x10
    6432:	8541                	srai	a0,a0,0x10
    6434:	04f41623          	sh	a5,76(s0)
    6438:	00055763          	bgez	a0,6446 <tcp_receive+0x532>
    643c:	8e19                	sub	a2,a2,a4
    643e:	962e                	add	a2,a2,a1
    6440:	01061513          	slli	a0,a2,0x10
    6444:	8541                	srai	a0,a0,0x10
    6446:	04e41683          	lh	a3,78(s0)
    644a:	878d                	srai	a5,a5,0x3
    644c:	04042223          	sw	zero,68(s0)
    6450:	4026d713          	srai	a4,a3,0x2
    6454:	40e68733          	sub	a4,a3,a4
    6458:	972a                	add	a4,a4,a0
    645a:	0742                	slli	a4,a4,0x10
    645c:	8341                	srli	a4,a4,0x10
    645e:	97ba                	add	a5,a5,a4
    6460:	04e41723          	sh	a4,78(s0)
    6464:	04f41823          	sh	a5,80(s0)
    6468:	b661                	j	5ff0 <tcp_receive+0xdc>
    646a:	a49e                	sh	a5,8(s1)
    646c:	00049523          	sh	zero,10(s1)
    6470:	8d99                	sub	a1,a1,a4
    6472:	4084                	lw	s1,0(s1)
    6474:	b6e1                	j	603c <tcp_receive+0x128>
    6476:	40e00733          	neg	a4,a4
    647a:	01071593          	slli	a1,a4,0x10
    647e:	b6e9                	j	6048 <tcp_receive+0x134>
    6480:	8f95                	sub	a5,a5,a3
    6482:	c007d0e3          	bgez	a5,6082 <tcp_receive+0x16e>
    6486:	02644783          	lbu	a5,38(s0)
    648a:	8522                	mv	a0,s0
    648c:	0027e793          	ori	a5,a5,2
    6490:	02f40323          	sb	a5,38(s0)
    6494:	3c0010ef          	jal	ra,7854 <tcp_output>
    6498:	b6ed                	j	6082 <tcp_receive+0x16e>
    649a:	411c                	lw	a5,0(a0)
    649c:	08f42223          	sw	a5,132(s0)
    64a0:	91cff0ef          	jal	ra,55bc <tcp_seg_free>
    64a4:	08442503          	lw	a0,132(s0)
    64a8:	f96d                	bnez	a0,649a <tcp_receive+0x586>
    64aa:	000a5683          	lhu	a3,0(s4)
    64ae:	345e                	lhu	a5,44(s0)
    64b0:	00092703          	lw	a4,0(s2)
    64b4:	8522                	mv	a0,s0
    64b6:	8f95                	sub	a5,a5,a3
    64b8:	9736                	add	a4,a4,a3
    64ba:	d418                	sw	a4,40(s0)
    64bc:	b45e                	sh	a5,44(s0)
    64be:	87aff0ef          	jal	ra,5538 <tcp_update_rcv_ann_wnd>
    64c2:	40dc                	lw	a5,4(s1)
    64c4:	279a                	lhu	a4,8(a5)
    64c6:	c709                	beqz	a4,64d0 <tcp_receive+0x5bc>
    64c8:	90f1aa23          	sw	a5,-1772(gp) # 20000134 <recv_data>
    64cc:	0004a223          	sw	zero,4(s1)
    64d0:	489c                	lw	a5,16(s1)
    64d2:	27c8                	lbu	a0,12(a5)
    64d4:	37dc                	lbu	a5,13(a5)
    64d6:	07a2                	slli	a5,a5,0x8
    64d8:	8d5d                	or	a0,a0,a5
    64da:	ee8fd0ef          	jal	ra,3bc2 <ntohs>
    64de:	8905                	andi	a0,a0,1
    64e0:	c519                	beqz	a0,64ee <tcp_receive+0x5da>
    64e2:	91818793          	addi	a5,gp,-1768 # 20000138 <recv_flags>
    64e6:	2398                	lbu	a4,0(a5)
    64e8:	02076713          	ori	a4,a4,32
    64ec:	a398                	sb	a4,0(a5)
    64ee:	4a91                	li	s5,4
    64f0:	4b1d                	li	s6,7
    64f2:	aa39                	j	6610 <tcp_receive+0x6fc>
    64f4:	365c                	lbu	a5,13(a2)
    64f6:	2648                	lbu	a0,12(a2)
    64f8:	07a2                	slli	a5,a5,0x8
    64fa:	8d5d                	or	a0,a0,a5
    64fc:	ec6fd0ef          	jal	ra,3bc2 <ntohs>
    6500:	8905                	andi	a0,a0,1
    6502:	c535                	beqz	a0,656e <tcp_receive+0x65a>
    6504:	489c                	lw	a5,16(s1)
    6506:	27c8                	lbu	a0,12(a5)
    6508:	37dc                	lbu	a5,13(a5)
    650a:	07a2                	slli	a5,a5,0x8
    650c:	8d5d                	or	a0,a0,a5
    650e:	eb4fd0ef          	jal	ra,3bc2 <ntohs>
    6512:	8909                	andi	a0,a0,2
    6514:	ed29                	bnez	a0,656e <tcp_receive+0x65a>
    6516:	489c                	lw	a5,16(s1)
    6518:	00d7c983          	lbu	s3,13(a5)
    651c:	27c8                	lbu	a0,12(a5)
    651e:	09a2                	slli	s3,s3,0x8
    6520:	00a9e9b3          	or	s3,s3,a0
    6524:	855a                	mv	a0,s6
    6526:	e8efd0ef          	jal	ra,3bb4 <htons>
    652a:	489c                	lw	a5,16(s1)
    652c:	00a9f9b3          	and	s3,s3,a0
    6530:	27c8                	lbu	a0,12(a5)
    6532:	37dc                	lbu	a5,13(a5)
    6534:	07a2                	slli	a5,a5,0x8
    6536:	8d5d                	or	a0,a0,a5
    6538:	e8afd0ef          	jal	ra,3bc2 <ntohs>
    653c:	03e57513          	andi	a0,a0,62
    6540:	00156513          	ori	a0,a0,1
    6544:	e70fd0ef          	jal	ra,3bb4 <htons>
    6548:	00a9e533          	or	a0,s3,a0
    654c:	489c                	lw	a5,16(s1)
    654e:	0542                	slli	a0,a0,0x10
    6550:	8141                	srli	a0,a0,0x10
    6552:	00855713          	srli	a4,a0,0x8
    6556:	a7c8                	sb	a0,12(a5)
    6558:	b7d8                	sb	a4,13(a5)
    655a:	00c4d983          	lhu	s3,12(s1)
    655e:	e64fd0ef          	jal	ra,3bc2 <ntohs>
    6562:	890d                	andi	a0,a0,3
    6564:	00a03533          	snez	a0,a0
    6568:	99aa                	add	s3,s3,a0
    656a:	013a1023          	sh	s3,0(s4)
    656e:	000aa983          	lw	s3,0(s5)
    6572:	8556                	mv	a0,s5
    6574:	848ff0ef          	jal	ra,55bc <tcp_seg_free>
    6578:	8ace                	mv	s5,s3
    657a:	b921                	j	6192 <tcp_receive+0x27e>
    657c:	00f92023          	sw	a5,0(s2)
    6580:	375c                	lbu	a5,13(a4)
    6582:	2748                	lbu	a0,12(a4)
    6584:	00c4db83          	lhu	s7,12(s1)
    6588:	07a2                	slli	a5,a5,0x8
    658a:	8d5d                	or	a0,a0,a5
    658c:	e36fd0ef          	jal	ra,3bc2 <ntohs>
    6590:	541c                	lw	a5,40(s0)
    6592:	890d                	andi	a0,a0,3
    6594:	00a03533          	snez	a0,a0
    6598:	955e                	add	a0,a0,s7
    659a:	953e                	add	a0,a0,a5
    659c:	489c                	lw	a5,16(s1)
    659e:	d408                	sw	a0,40(s0)
    65a0:	00c4db83          	lhu	s7,12(s1)
    65a4:	27c8                	lbu	a0,12(a5)
    65a6:	37dc                	lbu	a5,13(a5)
    65a8:	07a2                	slli	a5,a5,0x8
    65aa:	8d5d                	or	a0,a0,a5
    65ac:	e16fd0ef          	jal	ra,3bc2 <ntohs>
    65b0:	345e                	lhu	a5,44(s0)
    65b2:	890d                	andi	a0,a0,3
    65b4:	00a03533          	snez	a0,a0
    65b8:	955e                	add	a0,a0,s7
    65ba:	40a78533          	sub	a0,a5,a0
    65be:	b44a                	sh	a0,44(s0)
    65c0:	8522                	mv	a0,s0
    65c2:	f77fe0ef          	jal	ra,5538 <tcp_update_rcv_ann_wnd>
    65c6:	40cc                	lw	a1,4(s1)
    65c8:	259e                	lhu	a5,8(a1)
    65ca:	cb89                	beqz	a5,65dc <tcp_receive+0x6c8>
    65cc:	91418793          	addi	a5,gp,-1772 # 20000134 <recv_data>
    65d0:	4388                	lw	a0,0(a5)
    65d2:	cd35                	beqz	a0,664e <tcp_receive+0x73a>
    65d4:	bbffe0ef          	jal	ra,5192 <pbuf_cat>
    65d8:	0004a223          	sw	zero,4(s1)
    65dc:	489c                	lw	a5,16(s1)
    65de:	27c8                	lbu	a0,12(a5)
    65e0:	37dc                	lbu	a5,13(a5)
    65e2:	07a2                	slli	a5,a5,0x8
    65e4:	8d5d                	or	a0,a0,a5
    65e6:	ddcfd0ef          	jal	ra,3bc2 <ntohs>
    65ea:	8905                	andi	a0,a0,1
    65ec:	cd01                	beqz	a0,6604 <tcp_receive+0x6f0>
    65ee:	91818713          	addi	a4,gp,-1768 # 20000138 <recv_flags>
    65f2:	231c                	lbu	a5,0(a4)
    65f4:	0207e793          	ori	a5,a5,32
    65f8:	a31c                	sb	a5,0(a4)
    65fa:	481c                	lw	a5,16(s0)
    65fc:	01579463          	bne	a5,s5,6604 <tcp_receive+0x6f0>
    6600:	01642823          	sw	s6,16(s0)
    6604:	409c                	lw	a5,0(s1)
    6606:	8526                	mv	a0,s1
    6608:	08f42223          	sw	a5,132(s0)
    660c:	fb1fe0ef          	jal	ra,55bc <tcp_seg_free>
    6610:	08442483          	lw	s1,132(s0)
    6614:	cc99                	beqz	s1,6632 <tcp_receive+0x71e>
    6616:	4898                	lw	a4,16(s1)
    6618:	3354                	lbu	a3,5(a4)
    661a:	235c                	lbu	a5,4(a4)
    661c:	06a2                	slli	a3,a3,0x8
    661e:	8edd                	or	a3,a3,a5
    6620:	237c                	lbu	a5,6(a4)
    6622:	07c2                	slli	a5,a5,0x10
    6624:	8edd                	or	a3,a3,a5
    6626:	337c                	lbu	a5,7(a4)
    6628:	07e2                	slli	a5,a5,0x18
    662a:	8fd5                	or	a5,a5,a3
    662c:	5414                	lw	a3,40(s0)
    662e:	f4d787e3          	beq	a5,a3,657c <tcp_receive+0x668>
    6632:	02644783          	lbu	a5,38(s0)
    6636:	0017f713          	andi	a4,a5,1
    663a:	cf01                	beqz	a4,6652 <tcp_receive+0x73e>
    663c:	9bf9                	andi	a5,a5,-2
    663e:	0027e793          	ori	a5,a5,2
    6642:	02f40323          	sb	a5,38(s0)
    6646:	8522                	mv	a0,s0
    6648:	20c010ef          	jal	ra,7854 <tcp_output>
    664c:	a039                	j	665a <tcp_receive+0x746>
    664e:	c38c                	sw	a1,0(a5)
    6650:	b761                	j	65d8 <tcp_receive+0x6c4>
    6652:	0017e793          	ori	a5,a5,1
    6656:	02f40323          	sb	a5,38(s0)
    665a:	be7f906f          	j	240 <__riscv_restore_10>
    665e:	8522                	mv	a0,s0
    6660:	180010ef          	jal	ra,77e0 <tcp_send_empty_ack>
    6664:	08442483          	lw	s1,132(s0)
    6668:	e891                	bnez	s1,667c <tcp_receive+0x768>
    666a:	20006537          	lui	a0,0x20006
    666e:	2d450513          	addi	a0,a0,724 # 200062d4 <inseg>
    6672:	f93fe0ef          	jal	ra,5604 <tcp_seg_copy>
    6676:	08a42223          	sw	a0,132(s0)
    667a:	b7c5                	j	665a <tcp_receive+0x746>
    667c:	00092703          	lw	a4,0(s2)
    6680:	4981                	li	s3,0
    6682:	fff70813          	addi	a6,a4,-1
    6686:	00170513          	addi	a0,a4,1
    668a:	4890                	lw	a2,16(s1)
    668c:	3254                	lbu	a3,5(a2)
    668e:	225c                	lbu	a5,4(a2)
    6690:	06a2                	slli	a3,a3,0x8
    6692:	8edd                	or	a3,a3,a5
    6694:	227c                	lbu	a5,6(a2)
    6696:	07c2                	slli	a5,a5,0x10
    6698:	8edd                	or	a3,a3,a5
    669a:	327c                	lbu	a5,7(a2)
    669c:	07e2                	slli	a5,a5,0x18
    669e:	8fd5                	or	a5,a5,a3
    66a0:	02e79c63          	bne	a5,a4,66d8 <tcp_receive+0x7c4>
    66a4:	20006537          	lui	a0,0x20006
    66a8:	2d450793          	addi	a5,a0,724 # 200062d4 <inseg>
    66ac:	27da                	lhu	a4,12(a5)
    66ae:	24de                	lhu	a5,12(s1)
    66b0:	fae7f5e3          	bgeu	a5,a4,665a <tcp_receive+0x746>
    66b4:	2d450513          	addi	a0,a0,724
    66b8:	f4dfe0ef          	jal	ra,5604 <tcp_seg_copy>
    66bc:	dd59                	beqz	a0,665a <tcp_receive+0x746>
    66be:	00098a63          	beqz	s3,66d2 <tcp_receive+0x7be>
    66c2:	00a9a023          	sw	a0,0(s3)
    66c6:	85a6                	mv	a1,s1
    66c8:	f7eff0ef          	jal	ra,5e46 <tcp_oos_insert_segment>
    66cc:	b779                	j	665a <tcp_receive+0x746>
    66ce:	84b6                	mv	s1,a3
    66d0:	bf6d                	j	668a <tcp_receive+0x776>
    66d2:	08a42223          	sw	a0,132(s0)
    66d6:	bfc5                	j	66c6 <tcp_receive+0x7b2>
    66d8:	02099063          	bnez	s3,66f8 <tcp_receive+0x7e4>
    66dc:	40f706b3          	sub	a3,a4,a5
    66e0:	0806de63          	bgez	a3,677c <tcp_receive+0x868>
    66e4:	20006537          	lui	a0,0x20006
    66e8:	2d450513          	addi	a0,a0,724 # 200062d4 <inseg>
    66ec:	f19fe0ef          	jal	ra,5604 <tcp_seg_copy>
    66f0:	d52d                	beqz	a0,665a <tcp_receive+0x746>
    66f2:	08a42223          	sw	a0,132(s0)
    66f6:	bfc1                	j	66c6 <tcp_receive+0x7b2>
    66f8:	0109a883          	lw	a7,16(s3)
    66fc:	0058c583          	lbu	a1,5(a7)
    6700:	0048c683          	lbu	a3,4(a7)
    6704:	05a2                	slli	a1,a1,0x8
    6706:	8dd5                	or	a1,a1,a3
    6708:	0068c683          	lbu	a3,6(a7)
    670c:	06c2                	slli	a3,a3,0x10
    670e:	8dd5                	or	a1,a1,a3
    6710:	0078c683          	lbu	a3,7(a7)
    6714:	06e2                	slli	a3,a3,0x18
    6716:	8ecd                	or	a3,a3,a1
    6718:	40d806b3          	sub	a3,a6,a3
    671c:	0606c063          	bltz	a3,677c <tcp_receive+0x868>
    6720:	40f506b3          	sub	a3,a0,a5
    6724:	04d04c63          	bgtz	a3,677c <tcp_receive+0x868>
    6728:	20006537          	lui	a0,0x20006
    672c:	2d450513          	addi	a0,a0,724 # 200062d4 <inseg>
    6730:	ed5fe0ef          	jal	ra,5604 <tcp_seg_copy>
    6734:	842a                	mv	s0,a0
    6736:	d115                	beqz	a0,665a <tcp_receive+0x746>
    6738:	0109a703          	lw	a4,16(s3)
    673c:	335c                	lbu	a5,5(a4)
    673e:	234c                	lbu	a1,4(a4)
    6740:	07a2                	slli	a5,a5,0x8
    6742:	8ddd                	or	a1,a1,a5
    6744:	237c                	lbu	a5,6(a4)
    6746:	07c2                	slli	a5,a5,0x10
    6748:	8fcd                	or	a5,a5,a1
    674a:	336c                	lbu	a1,7(a4)
    674c:	00c9d703          	lhu	a4,12(s3)
    6750:	05e2                	slli	a1,a1,0x18
    6752:	8fcd                	or	a5,a5,a1
    6754:	00092583          	lw	a1,0(s2)
    6758:	973e                	add	a4,a4,a5
    675a:	8f0d                	sub	a4,a4,a1
    675c:	00e05b63          	blez	a4,6772 <tcp_receive+0x85e>
    6760:	8d9d                	sub	a1,a1,a5
    6762:	05c2                	slli	a1,a1,0x10
    6764:	0049a503          	lw	a0,4(s3)
    6768:	81c1                	srli	a1,a1,0x10
    676a:	00b99623          	sh	a1,12(s3)
    676e:	9b1fe0ef          	jal	ra,511e <pbuf_realloc>
    6772:	0089a023          	sw	s0,0(s3)
    6776:	85a6                	mv	a1,s1
    6778:	8522                	mv	a0,s0
    677a:	b7b9                	j	66c8 <tcp_receive+0x7b4>
    677c:	4094                	lw	a3,0(s1)
    677e:	89a6                	mv	s3,s1
    6780:	f6b9                	bnez	a3,66ce <tcp_receive+0x7ba>
    6782:	40f707b3          	sub	a5,a4,a5
    6786:	ecf05ae3          	blez	a5,665a <tcp_receive+0x746>
    678a:	365c                	lbu	a5,13(a2)
    678c:	2648                	lbu	a0,12(a2)
    678e:	07a2                	slli	a5,a5,0x8
    6790:	8d5d                	or	a0,a0,a5
    6792:	c30fd0ef          	jal	ra,3bc2 <ntohs>
    6796:	8905                	andi	a0,a0,1
    6798:	ec0511e3          	bnez	a0,665a <tcp_receive+0x746>
    679c:	20006537          	lui	a0,0x20006
    67a0:	2d450513          	addi	a0,a0,724 # 200062d4 <inseg>
    67a4:	e61fe0ef          	jal	ra,5604 <tcp_seg_copy>
    67a8:	c088                	sw	a0,0(s1)
    67aa:	ea0508e3          	beqz	a0,665a <tcp_receive+0x746>
    67ae:	4898                	lw	a4,16(s1)
    67b0:	335c                	lbu	a5,5(a4)
    67b2:	234c                	lbu	a1,4(a4)
    67b4:	07a2                	slli	a5,a5,0x8
    67b6:	8ddd                	or	a1,a1,a5
    67b8:	237c                	lbu	a5,6(a4)
    67ba:	07c2                	slli	a5,a5,0x10
    67bc:	8fcd                	or	a5,a5,a1
    67be:	336c                	lbu	a1,7(a4)
    67c0:	24da                	lhu	a4,12(s1)
    67c2:	05e2                	slli	a1,a1,0x18
    67c4:	8fcd                	or	a5,a5,a1
    67c6:	00092583          	lw	a1,0(s2)
    67ca:	973e                	add	a4,a4,a5
    67cc:	8f0d                	sub	a4,a4,a1
    67ce:	e8e056e3          	blez	a4,665a <tcp_receive+0x746>
    67d2:	8d9d                	sub	a1,a1,a5
    67d4:	05c2                	slli	a1,a1,0x10
    67d6:	40c8                	lw	a0,4(s1)
    67d8:	81c1                	srli	a1,a1,0x10
    67da:	a4ce                	sh	a1,12(s1)
    67dc:	943fe0ef          	jal	ra,511e <pbuf_realloc>
    67e0:	bdad                	j	665a <tcp_receive+0x746>
    67e2:	8522                	mv	a0,s0
    67e4:	7fd000ef          	jal	ra,77e0 <tcp_send_empty_ack>
    67e8:	bd8d                	j	665a <tcp_receive+0x746>
    67ea:	40d78733          	sub	a4,a5,a3
    67ee:	00074863          	bltz	a4,67fe <tcp_receive+0x8ea>
    67f2:	345a                	lhu	a4,44(s0)
    67f4:	0785                	addi	a5,a5,1
    67f6:	8f95                	sub	a5,a5,a3
    67f8:	8f99                	sub	a5,a5,a4
    67fa:	e6f050e3          	blez	a5,665a <tcp_receive+0x746>
    67fe:	02644783          	lbu	a5,38(s0)
    6802:	bd35                	j	663e <tcp_receive+0x72a>

00006804 <tcp_parseopt.isra.0>:
tcp_parseopt.isra.0():
    6804:	a2df92ef          	jal	t0,230 <__riscv_save_0>
    6808:	92418493          	addi	s1,gp,-1756 # 20000144 <tcphdr>
    680c:	0004a903          	lw	s2,0(s1)
    6810:	842a                	mv	s0,a0
    6812:	00d94783          	lbu	a5,13(s2)
    6816:	00c94503          	lbu	a0,12(s2)
    681a:	07a2                	slli	a5,a5,0x8
    681c:	8d5d                	or	a0,a0,a5
    681e:	ba4fd0ef          	jal	ra,3bc2 <ntohs>
    6822:	8131                	srli	a0,a0,0xc
    6824:	0542                	slli	a0,a0,0x10
    6826:	8141                	srli	a0,a0,0x10
    6828:	4795                	li	a5,5
    682a:	02a7fc63          	bgeu	a5,a0,6862 <tcp_parseopt.isra.0+0x5e>
    682e:	409c                	lw	a5,0(s1)
    6830:	0951                	addi	s2,s2,20
    6832:	27c8                	lbu	a0,12(a5)
    6834:	37dc                	lbu	a5,13(a5)
    6836:	07a2                	slli	a5,a5,0x8
    6838:	8d5d                	or	a0,a0,a5
    683a:	b88fd0ef          	jal	ra,3bc2 <ntohs>
    683e:	200067b7          	lui	a5,0x20006
    6842:	2547a603          	lw	a2,596(a5) # 20006254 <WCHCfg+0x4>
    6846:	8131                	srli	a0,a0,0xc
    6848:	156d                	addi	a0,a0,-5
    684a:	050a                	slli	a0,a0,0x2
    684c:	0542                	slli	a0,a0,0x10
    684e:	01061593          	slli	a1,a2,0x10
    6852:	8141                	srli	a0,a0,0x10
    6854:	81c1                	srli	a1,a1,0x10
    6856:	4781                	li	a5,0
    6858:	4805                	li	a6,1
    685a:	4889                	li	a7,2
    685c:	4311                	li	t1,4
    685e:	00a7e463          	bltu	a5,a0,6866 <tcp_parseopt.isra.0+0x62>
    6862:	9f3f906f          	j	254 <__riscv_restore_0>
    6866:	00f906b3          	add	a3,s2,a5
    686a:	2298                	lbu	a4,0(a3)
    686c:	01070963          	beq	a4,a6,687e <tcp_parseopt.isra.0+0x7a>
    6870:	db6d                	beqz	a4,6862 <tcp_parseopt.isra.0+0x5e>
    6872:	01170a63          	beq	a4,a7,6886 <tcp_parseopt.isra.0+0x82>
    6876:	3298                	lbu	a4,1(a3)
    6878:	d76d                	beqz	a4,6862 <tcp_parseopt.isra.0+0x5e>
    687a:	97ba                	add	a5,a5,a4
    687c:	a011                	j	6880 <tcp_parseopt.isra.0+0x7c>
    687e:	0785                	addi	a5,a5,1
    6880:	07c2                	slli	a5,a5,0x10
    6882:	83c1                	srli	a5,a5,0x10
    6884:	bfe9                	j	685e <tcp_parseopt.isra.0+0x5a>
    6886:	3298                	lbu	a4,1(a3)
    6888:	fc671de3          	bne	a4,t1,6862 <tcp_parseopt.isra.0+0x5e>
    688c:	00378713          	addi	a4,a5,3
    6890:	fca759e3          	bge	a4,a0,6862 <tcp_parseopt.isra.0+0x5e>
    6894:	22b8                	lbu	a4,2(a3)
    6896:	32b4                	lbu	a3,3(a3)
    6898:	0722                	slli	a4,a4,0x8
    689a:	8f55                	or	a4,a4,a3
    689c:	00e66363          	bltu	a2,a4,68a2 <tcp_parseopt.isra.0+0x9e>
    68a0:	e311                	bnez	a4,68a4 <tcp_parseopt.isra.0+0xa0>
    68a2:	872e                	mv	a4,a1
    68a4:	a01a                	sh	a4,0(s0)
    68a6:	0791                	addi	a5,a5,4
    68a8:	bfe1                	j	6880 <tcp_parseopt.isra.0+0x7c>

000068aa <tcp_input>:
tcp_input():
    68aa:	957f92ef          	jal	t0,200 <__riscv_save_12>
    68ae:	4140                	lw	s0,4(a0)
    68b0:	8baa                	mv	s7,a0
    68b2:	301c                	lbu	a5,1(s0)
    68b4:	2008                	lbu	a0,0(s0)
    68b6:	1141                	addi	sp,sp,-16
    68b8:	07a2                	slli	a5,a5,0x8
    68ba:	91018913          	addi	s2,gp,-1776 # 20000130 <iphdr>
    68be:	8d5d                	or	a0,a0,a5
    68c0:	89ae                	mv	s3,a1
    68c2:	00892023          	sw	s0,0(s2)
    68c6:	afcfd0ef          	jal	ra,3bc2 <ntohs>
    68ca:	00092783          	lw	a5,0(s2)
    68ce:	8119                	srli	a0,a0,0x6
    68d0:	03c57513          	andi	a0,a0,60
    68d4:	942a                	add	s0,s0,a0
    68d6:	2388                	lbu	a0,0(a5)
    68d8:	339c                	lbu	a5,1(a5)
    68da:	9281a223          	sw	s0,-1756(gp) # 20000144 <tcphdr>
    68de:	07a2                	slli	a5,a5,0x8
    68e0:	8d5d                	or	a0,a0,a5
    68e2:	ae0fd0ef          	jal	ra,3bc2 <ntohs>
    68e6:	00655593          	srli	a1,a0,0x6
    68ea:	03c5f593          	andi	a1,a1,60
    68ee:	40b005b3          	neg	a1,a1
    68f2:	855e                	mv	a0,s7
    68f4:	e2efe0ef          	jal	ra,4f22 <pbuf_header>
    68f8:	e511                	bnez	a0,6904 <tcp_input+0x5a>
    68fa:	008bd703          	lhu	a4,8(s7)
    68fe:	47cd                	li	a5,19
    6900:	00e7e863          	bltu	a5,a4,6910 <tcp_input+0x66>
    6904:	855e                	mv	a0,s7
    6906:	e8afe0ef          	jal	ra,4f90 <pbuf_free>
    690a:	0141                	addi	sp,sp,16
    690c:	931f906f          	j	23c <__riscv_restore_12>
    6910:	91018b13          	addi	s6,gp,-1776 # 20000130 <iphdr>
    6914:	000b2503          	lw	a0,0(s6)
    6918:	85ce                	mv	a1,s3
    691a:	0541                	addi	a0,a0,16
    691c:	f5afd0ef          	jal	ra,4076 <ip_addr_isbroadcast>
    6920:	f175                	bnez	a0,6904 <tcp_input+0x5a>
    6922:	000b2703          	lw	a4,0(s6)
    6926:	f0000537          	lui	a0,0xf0000
    692a:	3b1c                	lbu	a5,17(a4)
    692c:	2b00                	lbu	s0,16(a4)
    692e:	07a2                	slli	a5,a5,0x8
    6930:	8fc1                	or	a5,a5,s0
    6932:	2b20                	lbu	s0,18(a4)
    6934:	0442                	slli	s0,s0,0x10
    6936:	8fc1                	or	a5,a5,s0
    6938:	3b20                	lbu	s0,19(a4)
    693a:	0462                	slli	s0,s0,0x18
    693c:	8c5d                	or	s0,s0,a5
    693e:	ab6fd0ef          	jal	ra,3bf4 <ntohl>
    6942:	8c69                	and	s0,s0,a0
    6944:	e0000537          	lui	a0,0xe0000
    6948:	aacfd0ef          	jal	ra,3bf4 <ntohl>
    694c:	faa40ce3          	beq	s0,a0,6904 <tcp_input+0x5a>
    6950:	000b2583          	lw	a1,0(s6)
    6954:	008bd703          	lhu	a4,8(s7)
    6958:	4699                	li	a3,6
    695a:	01058613          	addi	a2,a1,16
    695e:	855e                	mv	a0,s7
    6960:	05b1                	addi	a1,a1,12
    6962:	5af010ef          	jal	ra,8710 <inet_chksum_pseudo>
    6966:	fd59                	bnez	a0,6904 <tcp_input+0x5a>
    6968:	92418493          	addi	s1,gp,-1756 # 20000144 <tcphdr>
    696c:	409c                	lw	a5,0(s1)
    696e:	27c8                	lbu	a0,12(a5)
    6970:	37dc                	lbu	a5,13(a5)
    6972:	07a2                	slli	a5,a5,0x8
    6974:	8d5d                	or	a0,a0,a5
    6976:	a4cfd0ef          	jal	ra,3bc2 <ntohs>
    697a:	8131                	srli	a0,a0,0xc
    697c:	55f1                	li	a1,-4
    697e:	02b505b3          	mul	a1,a0,a1
    6982:	855e                	mv	a0,s7
    6984:	05c2                	slli	a1,a1,0x10
    6986:	85c1                	srai	a1,a1,0x10
    6988:	d9afe0ef          	jal	ra,4f22 <pbuf_header>
    698c:	fd25                	bnez	a0,6904 <tcp_input+0x5a>
    698e:	4080                	lw	s0,0(s1)
    6990:	301c                	lbu	a5,1(s0)
    6992:	2008                	lbu	a0,0(s0)
    6994:	07a2                	slli	a5,a5,0x8
    6996:	8d5d                	or	a0,a0,a5
    6998:	a2afd0ef          	jal	ra,3bc2 <ntohs>
    699c:	a008                	sb	a0,0(s0)
    699e:	8121                	srli	a0,a0,0x8
    69a0:	b008                	sb	a0,1(s0)
    69a2:	4080                	lw	s0,0(s1)
    69a4:	303c                	lbu	a5,3(s0)
    69a6:	2028                	lbu	a0,2(s0)
    69a8:	07a2                	slli	a5,a5,0x8
    69aa:	8d5d                	or	a0,a0,a5
    69ac:	a16fd0ef          	jal	ra,3bc2 <ntohs>
    69b0:	a028                	sb	a0,2(s0)
    69b2:	8121                	srli	a0,a0,0x8
    69b4:	b028                	sb	a0,3(s0)
    69b6:	4080                	lw	s0,0(s1)
    69b8:	3048                	lbu	a0,5(s0)
    69ba:	205c                	lbu	a5,4(s0)
    69bc:	0522                	slli	a0,a0,0x8
    69be:	8d5d                	or	a0,a0,a5
    69c0:	207c                	lbu	a5,6(s0)
    69c2:	07c2                	slli	a5,a5,0x10
    69c4:	8fc9                	or	a5,a5,a0
    69c6:	3068                	lbu	a0,7(s0)
    69c8:	0562                	slli	a0,a0,0x18
    69ca:	8d5d                	or	a0,a0,a5
    69cc:	a28fd0ef          	jal	ra,3bf4 <ntohl>
    69d0:	00855793          	srli	a5,a0,0x8
    69d4:	b05c                	sb	a5,5(s0)
    69d6:	01055793          	srli	a5,a0,0x10
    69da:	a07c                	sb	a5,6(s0)
    69dc:	01855793          	srli	a5,a0,0x18
    69e0:	a048                	sb	a0,4(s0)
    69e2:	b07c                	sb	a5,7(s0)
    69e4:	4080                	lw	s0,0(s1)
    69e6:	90a1ae23          	sw	a0,-1764(gp) # 2000013c <seqno>
    69ea:	91c18a93          	addi	s5,gp,-1764 # 2000013c <seqno>
    69ee:	3408                	lbu	a0,9(s0)
    69f0:	241c                	lbu	a5,8(s0)
    69f2:	0522                	slli	a0,a0,0x8
    69f4:	8d5d                	or	a0,a0,a5
    69f6:	243c                	lbu	a5,10(s0)
    69f8:	07c2                	slli	a5,a5,0x10
    69fa:	8fc9                	or	a5,a5,a0
    69fc:	3428                	lbu	a0,11(s0)
    69fe:	0562                	slli	a0,a0,0x18
    6a00:	8d5d                	or	a0,a0,a5
    6a02:	9f2fd0ef          	jal	ra,3bf4 <ntohl>
    6a06:	00855793          	srli	a5,a0,0x8
    6a0a:	b41c                	sb	a5,9(s0)
    6a0c:	01055793          	srli	a5,a0,0x10
    6a10:	a43c                	sb	a5,10(s0)
    6a12:	01855793          	srli	a5,a0,0x18
    6a16:	a408                	sb	a0,8(s0)
    6a18:	b43c                	sb	a5,11(s0)
    6a1a:	4080                	lw	s0,0(s1)
    6a1c:	90a1a423          	sw	a0,-1784(gp) # 20000128 <ackno>
    6a20:	90818913          	addi	s2,gp,-1784 # 20000128 <ackno>
    6a24:	347c                	lbu	a5,15(s0)
    6a26:	2468                	lbu	a0,14(s0)
    6a28:	07a2                	slli	a5,a5,0x8
    6a2a:	8d5d                	or	a0,a0,a5
    6a2c:	996fd0ef          	jal	ra,3bc2 <ntohs>
    6a30:	409c                	lw	a5,0(s1)
    6a32:	a468                	sb	a0,14(s0)
    6a34:	8121                	srli	a0,a0,0x8
    6a36:	b468                	sb	a0,15(s0)
    6a38:	27c8                	lbu	a0,12(a5)
    6a3a:	37dc                	lbu	a5,13(a5)
    6a3c:	07a2                	slli	a5,a5,0x8
    6a3e:	8d5d                	or	a0,a0,a5
    6a40:	982fd0ef          	jal	ra,3bc2 <ntohs>
    6a44:	0ff57813          	andi	a6,a0,255
    6a48:	008bd883          	lhu	a7,8(s7)
    6a4c:	00387593          	andi	a1,a6,3
    6a50:	00b035b3          	snez	a1,a1
    6a54:	95c6                	add	a1,a1,a7
    6a56:	8ec1a303          	lw	t1,-1812(gp) # 2000010c <tcp_active_pcbs>
    6a5a:	05c2                	slli	a1,a1,0x10
    6a5c:	4094                	lw	a3,0(s1)
    6a5e:	000b2603          	lw	a2,0(s6)
    6a62:	03f87793          	andi	a5,a6,63
    6a66:	81c1                	srli	a1,a1,0x10
    6a68:	90f18623          	sb	a5,-1780(gp) # 2000012c <flags>
    6a6c:	92b19423          	sh	a1,-1752(gp) # 20000148 <tcplen>
    6a70:	841a                	mv	s0,t1
    6a72:	4501                	li	a0,0
    6a74:	90c18c93          	addi	s9,gp,-1780 # 2000012c <flags>
    6a78:	92818c13          	addi	s8,gp,-1752 # 20000148 <tcplen>
    6a7c:	e401                	bnez	s0,6a84 <tcp_input+0x1da>
    6a7e:	9041a503          	lw	a0,-1788(gp) # 20000124 <tcp_tw_pcbs>
    6a82:	a2e9                	j	6c4c <tcp_input+0x3a2>
    6a84:	329c                	lbu	a5,1(a3)
    6a86:	0006ce03          	lbu	t3,0(a3)
    6a8a:	305a                	lhu	a4,36(s0)
    6a8c:	07a2                	slli	a5,a5,0x8
    6a8e:	01c7e7b3          	or	a5,a5,t3
    6a92:	0ef71263          	bne	a4,a5,6b76 <tcp_input+0x2cc>
    6a96:	32bc                	lbu	a5,3(a3)
    6a98:	0026ce03          	lbu	t3,2(a3)
    6a9c:	2c5a                	lhu	a4,28(s0)
    6a9e:	07a2                	slli	a5,a5,0x8
    6aa0:	01c7e7b3          	or	a5,a5,t3
    6aa4:	0cf71963          	bne	a4,a5,6b76 <tcp_input+0x2cc>
    6aa8:	3658                	lbu	a4,13(a2)
    6aaa:	265c                	lbu	a5,12(a2)
    6aac:	0722                	slli	a4,a4,0x8
    6aae:	8f5d                	or	a4,a4,a5
    6ab0:	267c                	lbu	a5,14(a2)
    6ab2:	07c2                	slli	a5,a5,0x10
    6ab4:	8f5d                	or	a4,a4,a5
    6ab6:	367c                	lbu	a5,15(a2)
    6ab8:	07e2                	slli	a5,a5,0x18
    6aba:	8fd9                	or	a5,a5,a4
    6abc:	4058                	lw	a4,4(s0)
    6abe:	0af71c63          	bne	a4,a5,6b76 <tcp_input+0x2cc>
    6ac2:	3a18                	lbu	a4,17(a2)
    6ac4:	2a1c                	lbu	a5,16(a2)
    6ac6:	0722                	slli	a4,a4,0x8
    6ac8:	8f5d                	or	a4,a4,a5
    6aca:	2a3c                	lbu	a5,18(a2)
    6acc:	07c2                	slli	a5,a5,0x10
    6ace:	8f5d                	or	a4,a4,a5
    6ad0:	3a3c                	lbu	a5,19(a2)
    6ad2:	07e2                	slli	a5,a5,0x18
    6ad4:	8fd9                	or	a5,a5,a4
    6ad6:	4018                	lw	a4,0(s0)
    6ad8:	08f71f63          	bne	a4,a5,6b76 <tcp_input+0x2cc>
    6adc:	c519                	beqz	a0,6aea <tcp_input+0x240>
    6ade:	445c                	lw	a5,12(s0)
    6ae0:	8e81a623          	sw	s0,-1812(gp) # 2000010c <tcp_active_pcbs>
    6ae4:	c55c                	sw	a5,12(a0)
    6ae6:	00642623          	sw	t1,12(s0)
    6aea:	004ba703          	lw	a4,4(s7)
    6aee:	20006db7          	lui	s11,0x20006
    6af2:	08842603          	lw	a2,136(s0)
    6af6:	2d4d8793          	addi	a5,s11,724 # 200062d4 <inseg>
    6afa:	9001aa23          	sw	zero,-1772(gp) # 20000134 <recv_data>
    6afe:	90018c23          	sb	zero,-1768(gp) # 20000138 <recv_flags>
    6b02:	0007a023          	sw	zero,0(a5)
    6b06:	01179623          	sh	a7,12(a5)
    6b0a:	c798                	sw	a4,8(a5)
    6b0c:	0177a223          	sw	s7,4(a5)
    6b10:	cb94                	sw	a3,16(a5)
    6b12:	91818a13          	addi	s4,gp,-1768 # 20000138 <recv_flags>
    6b16:	91418d13          	addi	s10,gp,-1772 # 20000134 <recv_data>
    6b1a:	2d4d8d93          	addi	s11,s11,724
    6b1e:	ce09                	beqz	a2,6b38 <tcp_input+0x28e>
    6b20:	09042783          	lw	a5,144(s0)
    6b24:	4681                	li	a3,0
    6b26:	85a2                	mv	a1,s0
    6b28:	2c078a63          	beqz	a5,6dfc <tcp_input+0x552>
    6b2c:	4c08                	lw	a0,24(s0)
    6b2e:	9782                	jalr	a5
    6b30:	dc051ae3          	bnez	a0,6904 <tcp_input+0x5a>
    6b34:	08042423          	sw	zero,136(s0)
    6b38:	000cc783          	lbu	a5,0(s9)
    6b3c:	9281a023          	sw	s0,-1760(gp) # 20000140 <tcp_input_pcb>
    6b40:	0047f713          	andi	a4,a5,4
    6b44:	92018b93          	addi	s7,gp,-1760 # 20000140 <tcp_input_pcb>
    6b48:	30070d63          	beqz	a4,6e62 <tcp_input+0x5b8>
    6b4c:	4818                	lw	a4,16(s0)
    6b4e:	4789                	li	a5,2
    6b50:	2af71a63          	bne	a4,a5,6e04 <tcp_input+0x55a>
    6b54:	5038                	lw	a4,96(s0)
    6b56:	00092783          	lw	a5,0(s2)
    6b5a:	2af71f63          	bne	a4,a5,6e18 <tcp_input+0x56e>
    6b5e:	000a4783          	lbu	a5,0(s4)
    6b62:	0087e793          	ori	a5,a5,8
    6b66:	00fa0023          	sb	a5,0(s4)
    6b6a:	02644783          	lbu	a5,38(s0)
    6b6e:	9bf9                	andi	a5,a5,-2
    6b70:	02f40323          	sb	a5,38(s0)
    6b74:	a455                	j	6e18 <tcp_input+0x56e>
    6b76:	8522                	mv	a0,s0
    6b78:	4440                	lw	s0,12(s0)
    6b7a:	b709                	j	6a7c <tcp_input+0x1d2>
    6b7c:	3298                	lbu	a4,1(a3)
    6b7e:	229c                	lbu	a5,0(a3)
    6b80:	0722                	slli	a4,a4,0x8
    6b82:	8f5d                	or	a4,a4,a5
    6b84:	315e                	lhu	a5,36(a0)
    6b86:	0ce79263          	bne	a5,a4,6c4a <tcp_input+0x3a0>
    6b8a:	0036c883          	lbu	a7,3(a3)
    6b8e:	22b8                	lbu	a4,2(a3)
    6b90:	08a2                	slli	a7,a7,0x8
    6b92:	00e8e8b3          	or	a7,a7,a4
    6b96:	2d5a                	lhu	a4,28(a0)
    6b98:	0b171963          	bne	a4,a7,6c4a <tcp_input+0x3a0>
    6b9c:	00d64303          	lbu	t1,13(a2)
    6ba0:	00c64883          	lbu	a7,12(a2)
    6ba4:	0322                	slli	t1,t1,0x8
    6ba6:	01136333          	or	t1,t1,a7
    6baa:	00e64883          	lbu	a7,14(a2)
    6bae:	08c2                	slli	a7,a7,0x10
    6bb0:	0068e333          	or	t1,a7,t1
    6bb4:	00f64883          	lbu	a7,15(a2)
    6bb8:	08e2                	slli	a7,a7,0x18
    6bba:	0068e8b3          	or	a7,a7,t1
    6bbe:	00452303          	lw	t1,4(a0) # e0000004 <_eusrstack+0xbfff0004>
    6bc2:	09131463          	bne	t1,a7,6c4a <tcp_input+0x3a0>
    6bc6:	01164303          	lbu	t1,17(a2)
    6bca:	01064883          	lbu	a7,16(a2)
    6bce:	0322                	slli	t1,t1,0x8
    6bd0:	01136333          	or	t1,t1,a7
    6bd4:	01264883          	lbu	a7,18(a2)
    6bd8:	08c2                	slli	a7,a7,0x10
    6bda:	0068e333          	or	t1,a7,t1
    6bde:	01364883          	lbu	a7,19(a2)
    6be2:	08e2                	slli	a7,a7,0x18
    6be4:	0068e8b3          	or	a7,a7,t1
    6be8:	00052303          	lw	t1,0(a0)
    6bec:	05131f63          	bne	t1,a7,6c4a <tcp_input+0x3a0>
    6bf0:	00487693          	andi	a3,a6,4
    6bf4:	d00698e3          	bnez	a3,6904 <tcp_input+0x5a>
    6bf8:	00287693          	andi	a3,a6,2
    6bfc:	c68d                	beqz	a3,6c26 <tcp_input+0x37c>
    6bfe:	000aa803          	lw	a6,0(s5)
    6c02:	5514                	lw	a3,40(a0)
    6c04:	40d806b3          	sub	a3,a6,a3
    6c08:	0206c663          	bltz	a3,6c34 <tcp_input+0x38a>
    6c0c:	02c55883          	lhu	a7,44(a0)
    6c10:	411686b3          	sub	a3,a3,a7
    6c14:	02d04063          	bgtz	a3,6c34 <tcp_input+0x38a>
    6c18:	00c60693          	addi	a3,a2,12
    6c1c:	95c2                	add	a1,a1,a6
    6c1e:	0641                	addi	a2,a2,16
    6c20:	00092503          	lw	a0,0(s2)
    6c24:	a8f1                	j	6d00 <tcp_input+0x456>
    6c26:	00187813          	andi	a6,a6,1
    6c2a:	00080563          	beqz	a6,6c34 <tcp_input+0x38a>
    6c2e:	8f81a783          	lw	a5,-1800(gp) # 20000118 <tcp_ticks>
    6c32:	dd1c                	sw	a5,56(a0)
    6c34:	cc0588e3          	beqz	a1,6904 <tcp_input+0x5a>
    6c38:	02654783          	lbu	a5,38(a0)
    6c3c:	0027e793          	ori	a5,a5,2
    6c40:	02f50323          	sb	a5,38(a0)
    6c44:	411000ef          	jal	ra,7854 <tcp_output>
    6c48:	b975                	j	6904 <tcp_input+0x5a>
    6c4a:	4548                	lw	a0,12(a0)
    6c4c:	f905                	bnez	a0,6b7c <tcp_input+0x2d2>
    6c4e:	8f41a303          	lw	t1,-1804(gp) # 20000114 <tcp_listen_pcbs>
    6c52:	8e3e                	mv	t3,a5
    6c54:	8a1a                	mv	s4,t1
    6c56:	040a1363          	bnez	s4,6c9c <tcp_input+0x3f2>
    6c5a:	36dc                	lbu	a5,13(a3)
    6c5c:	26c8                	lbu	a0,12(a3)
    6c5e:	07a2                	slli	a5,a5,0x8
    6c60:	8d5d                	or	a0,a0,a5
    6c62:	f61fc0ef          	jal	ra,3bc2 <ntohs>
    6c66:	8911                	andi	a0,a0,4
    6c68:	c8051ee3          	bnez	a0,6904 <tcp_input+0x5a>
    6c6c:	4094                	lw	a3,0(s1)
    6c6e:	000b2603          	lw	a2,0(s6)
    6c72:	000c5503          	lhu	a0,0(s8)
    6c76:	329c                	lbu	a5,1(a3)
    6c78:	32b8                	lbu	a4,3(a3)
    6c7a:	0006c883          	lbu	a7,0(a3)
    6c7e:	0026c803          	lbu	a6,2(a3)
    6c82:	000aa583          	lw	a1,0(s5)
    6c86:	07a2                	slli	a5,a5,0x8
    6c88:	0722                	slli	a4,a4,0x8
    6c8a:	00c60693          	addi	a3,a2,12
    6c8e:	0117e7b3          	or	a5,a5,a7
    6c92:	01076733          	or	a4,a4,a6
    6c96:	0641                	addi	a2,a2,16
    6c98:	95aa                	add	a1,a1,a0
    6c9a:	b759                	j	6c20 <tcp_input+0x376>
    6c9c:	000a2883          	lw	a7,0(s4)
    6ca0:	00088e63          	beqz	a7,6cbc <tcp_input+0x412>
    6ca4:	3a18                	lbu	a4,17(a2)
    6ca6:	2a1c                	lbu	a5,16(a2)
    6ca8:	0722                	slli	a4,a4,0x8
    6caa:	8f5d                	or	a4,a4,a5
    6cac:	2a3c                	lbu	a5,18(a2)
    6cae:	07c2                	slli	a5,a5,0x10
    6cb0:	8f5d                	or	a4,a4,a5
    6cb2:	3a3c                	lbu	a5,19(a2)
    6cb4:	07e2                	slli	a5,a5,0x18
    6cb6:	8fd9                	or	a5,a5,a4
    6cb8:	12f89e63          	bne	a7,a5,6df4 <tcp_input+0x54a>
    6cbc:	32b8                	lbu	a4,3(a3)
    6cbe:	22bc                	lbu	a5,2(a3)
    6cc0:	0722                	slli	a4,a4,0x8
    6cc2:	8f5d                	or	a4,a4,a5
    6cc4:	01ca5783          	lhu	a5,28(s4)
    6cc8:	12e79663          	bne	a5,a4,6df4 <tcp_input+0x54a>
    6ccc:	c901                	beqz	a0,6cdc <tcp_input+0x432>
    6cce:	00ca2783          	lw	a5,12(s4)
    6cd2:	8f41aa23          	sw	s4,-1804(gp) # 20000114 <tcp_listen_pcbs>
    6cd6:	c55c                	sw	a5,12(a0)
    6cd8:	006a2623          	sw	t1,12(s4)
    6cdc:	01087793          	andi	a5,a6,16
    6ce0:	c39d                	beqz	a5,6d06 <tcp_input+0x45c>
    6ce2:	329c                	lbu	a5,1(a3)
    6ce4:	0006c883          	lbu	a7,0(a3)
    6ce8:	000aa803          	lw	a6,0(s5)
    6cec:	00092503          	lw	a0,0(s2)
    6cf0:	07a2                	slli	a5,a5,0x8
    6cf2:	00c60693          	addi	a3,a2,12
    6cf6:	0117e7b3          	or	a5,a5,a7
    6cfa:	0641                	addi	a2,a2,16
    6cfc:	95c2                	add	a1,a1,a6
    6cfe:	0505                	addi	a0,a0,1
    6d00:	6c9000ef          	jal	ra,7bc8 <tcp_rst>
    6d04:	b101                	j	6904 <tcp_input+0x5a>
    6d06:	00287813          	andi	a6,a6,2
    6d0a:	be080de3          	beqz	a6,6904 <tcp_input+0x5a>
    6d0e:	014a4503          	lbu	a0,20(s4)
    6d12:	ea9fe0ef          	jal	ra,5bba <tcp_alloc>
    6d16:	842a                	mv	s0,a0
    6d18:	be0506e3          	beqz	a0,6904 <tcp_input+0x5a>
    6d1c:	000b2783          	lw	a5,0(s6)
    6d20:	4701                	li	a4,0
    6d22:	01078693          	addi	a3,a5,16
    6d26:	ca99                	beqz	a3,6d3c <tcp_input+0x492>
    6d28:	3b94                	lbu	a3,17(a5)
    6d2a:	2b98                	lbu	a4,16(a5)
    6d2c:	06a2                	slli	a3,a3,0x8
    6d2e:	8ed9                	or	a3,a3,a4
    6d30:	2bb8                	lbu	a4,18(a5)
    6d32:	0742                	slli	a4,a4,0x10
    6d34:	8ed9                	or	a3,a3,a4
    6d36:	3bb8                	lbu	a4,19(a5)
    6d38:	0762                	slli	a4,a4,0x18
    6d3a:	8f55                	or	a4,a4,a3
    6d3c:	c018                	sw	a4,0(s0)
    6d3e:	01ca5703          	lhu	a4,28(s4)
    6d42:	00c78693          	addi	a3,a5,12
    6d46:	ac5a                	sh	a4,28(s0)
    6d48:	4701                	li	a4,0
    6d4a:	ca99                	beqz	a3,6d60 <tcp_input+0x4b6>
    6d4c:	37d4                	lbu	a3,13(a5)
    6d4e:	27d8                	lbu	a4,12(a5)
    6d50:	06a2                	slli	a3,a3,0x8
    6d52:	8ed9                	or	a3,a3,a4
    6d54:	27f8                	lbu	a4,14(a5)
    6d56:	0742                	slli	a4,a4,0x10
    6d58:	8ed9                	or	a3,a3,a4
    6d5a:	37f8                	lbu	a4,15(a5)
    6d5c:	0762                	slli	a4,a4,0x18
    6d5e:	8f55                	or	a4,a4,a3
    6d60:	4094                	lw	a3,0(s1)
    6d62:	c058                	sw	a4,4(s0)
    6d64:	04040513          	addi	a0,s0,64
    6d68:	329c                	lbu	a5,1(a3)
    6d6a:	2298                	lbu	a4,0(a3)
    6d6c:	07a2                	slli	a5,a5,0x8
    6d6e:	8fd9                	or	a5,a5,a4
    6d70:	000aa703          	lw	a4,0(s5)
    6d74:	b05e                	sh	a5,36(s0)
    6d76:	478d                	li	a5,3
    6d78:	c81c                	sw	a5,16(s0)
    6d7a:	00170793          	addi	a5,a4,1
    6d7e:	d41c                	sw	a5,40(s0)
    6d80:	d81c                	sw	a5,48(s0)
    6d82:	36fc                	lbu	a5,15(a3)
    6d84:	26f0                	lbu	a2,14(a3)
    6d86:	177d                	addi	a4,a4,-1
    6d88:	07a2                	slli	a5,a5,0x8
    6d8a:	8fd1                	or	a5,a5,a2
    6d8c:	06f41223          	sh	a5,100(s0)
    6d90:	04f41e23          	sh	a5,92(s0)
    6d94:	018a2783          	lw	a5,24(s4)
    6d98:	d438                	sw	a4,104(s0)
    6d9a:	cc1c                	sw	a5,24(s0)
    6d9c:	200067b7          	lui	a5,0x20006
    6da0:	2547d783          	lhu	a5,596(a5) # 20006254 <WCHCfg+0x4>
    6da4:	b45e                	sh	a5,44(s0)
    6da6:	b47e                	sh	a5,46(s0)
    6da8:	020a2783          	lw	a5,32(s4)
    6dac:	d01c                	sw	a5,32(s0)
    6dae:	008a5783          	lhu	a5,8(s4)
    6db2:	1997f793          	andi	a5,a5,409
    6db6:	a41e                	sh	a5,8(s0)
    6db8:	8ec1a783          	lw	a5,-1812(gp) # 2000010c <tcp_active_pcbs>
    6dbc:	8e81a623          	sw	s0,-1812(gp) # 2000010c <tcp_active_pcbs>
    6dc0:	c45c                	sw	a5,12(s0)
    6dc2:	a43ff0ef          	jal	ra,6804 <tcp_parseopt.isra.0>
    6dc6:	04045503          	lhu	a0,64(s0)
    6dca:	00440593          	addi	a1,s0,4
    6dce:	f31fe0ef          	jal	ra,5cfe <tcp_eff_send_mss>
    6dd2:	04a41023          	sh	a0,64(s0)
    6dd6:	4785                	li	a5,1
    6dd8:	4701                	li	a4,0
    6dda:	46c9                	li	a3,18
    6ddc:	4601                	li	a2,0
    6dde:	4581                	li	a1,0
    6de0:	8522                	mv	a0,s0
    6de2:	2b85                	jal	7352 <tcp_enqueue>
    6de4:	c511                	beqz	a0,6df0 <tcp_input+0x546>
    6de6:	4581                	li	a1,0
    6de8:	8522                	mv	a0,s0
    6dea:	d27fe0ef          	jal	ra,5b10 <tcp_abandon>
    6dee:	be19                	j	6904 <tcp_input+0x5a>
    6df0:	8522                	mv	a0,s0
    6df2:	bd89                	j	6c44 <tcp_input+0x39a>
    6df4:	8552                	mv	a0,s4
    6df6:	00ca2a03          	lw	s4,12(s4)
    6dfa:	bdb1                	j	6c56 <tcp_input+0x3ac>
    6dfc:	4501                	li	a0,0
    6dfe:	c5ffe0ef          	jal	ra,5a5c <tcp_recv_null>
    6e02:	b33d                	j	6b30 <tcp_input+0x286>
    6e04:	000aa783          	lw	a5,0(s5)
    6e08:	5418                	lw	a4,40(s0)
    6e0a:	8f99                	sub	a5,a5,a4
    6e0c:	0007c663          	bltz	a5,6e18 <tcp_input+0x56e>
    6e10:	345a                	lhu	a4,44(s0)
    6e12:	8f99                	sub	a5,a5,a4
    6e14:	d4f055e3          	blez	a5,6b5e <tcp_input+0x2b4>
    6e18:	000a4783          	lbu	a5,0(s4)
    6e1c:	0087f713          	andi	a4,a5,8
    6e20:	3c070f63          	beqz	a4,71fe <tcp_input+0x954>
    6e24:	00f10593          	addi	a1,sp,15
    6e28:	8522                	mv	a0,s0
    6e2a:	b59fb0ef          	jal	ra,2982 <WCHFindCorrectTCBPcb>
    6e2e:	4785                	li	a5,1
    6e30:	00f51663          	bne	a0,a5,6e3c <tcp_input+0x592>
    6e34:	4818                	lw	a4,16(s0)
    6e36:	4789                	li	a5,2
    6e38:	1cf70063          	beq	a4,a5,6ff8 <tcp_input+0x74e>
    6e3c:	8522                	mv	a0,s0
    6e3e:	a14fc0ef          	jal	ra,3052 <LwipRemoveTcpPcb>
    6e42:	09c42783          	lw	a5,156(s0)
    6e46:	c781                	beqz	a5,6e4e <tcp_input+0x5a4>
    6e48:	4c08                	lw	a0,24(s0)
    6e4a:	55e9                	li	a1,-6
    6e4c:	9782                	jalr	a5
    6e4e:	85a2                	mv	a1,s0
    6e50:	8ec18513          	addi	a0,gp,-1812 # 2000010c <tcp_active_pcbs>
    6e54:	ae5fe0ef          	jal	ra,5938 <tcp_pcb_remove>
    6e58:	85a2                	mv	a1,s0
    6e5a:	4509                	li	a0,2
    6e5c:	f63fd0ef          	jal	ra,4dbe <memp_free>
    6e60:	aa61                	j	6ff8 <tcp_input+0x74e>
    6e62:	8b89                	andi	a5,a5,2
    6e64:	c385                	beqz	a5,6e84 <tcp_input+0x5da>
    6e66:	481c                	lw	a5,16(s0)
    6e68:	4705                	li	a4,1
    6e6a:	17f9                	addi	a5,a5,-2
    6e6c:	00f77c63          	bgeu	a4,a5,6e84 <tcp_input+0x5da>
    6e70:	02644783          	lbu	a5,38(s0)
    6e74:	8522                	mv	a0,s0
    6e76:	0027e793          	ori	a5,a5,2
    6e7a:	02f40323          	sb	a5,38(s0)
    6e7e:	1d7000ef          	jal	ra,7854 <tcp_output>
    6e82:	bf59                	j	6e18 <tcp_input+0x56e>
    6e84:	8f81a783          	lw	a5,-1800(gp) # 20000118 <tcp_ticks>
    6e88:	0a0408a3          	sb	zero,177(s0)
    6e8c:	04040513          	addi	a0,s0,64
    6e90:	dc1c                	sw	a5,56(s0)
    6e92:	973ff0ef          	jal	ra,6804 <tcp_parseopt.isra.0>
    6e96:	481c                	lw	a5,16(s0)
    6e98:	471d                	li	a4,7
    6e9a:	17f9                	addi	a5,a5,-2
    6e9c:	f6f76ee3          	bltu	a4,a5,6e18 <tcp_input+0x56e>
    6ea0:	6731                	lui	a4,0xc
    6ea2:	078a                	slli	a5,a5,0x2
    6ea4:	c2c70713          	addi	a4,a4,-980 # bc2c <tcp_backoff+0x10>
    6ea8:	97ba                	add	a5,a5,a4
    6eaa:	439c                	lw	a5,0(a5)
    6eac:	8782                	jr	a5
    6eae:	000cc783          	lbu	a5,0(s9)
    6eb2:	4749                	li	a4,18
    6eb4:	8bc9                	andi	a5,a5,18
    6eb6:	0ce79163          	bne	a5,a4,6f78 <tcp_input+0x6ce>
    6eba:	08042783          	lw	a5,128(s0)
    6ebe:	4b98                	lw	a4,16(a5)
    6ec0:	3348                	lbu	a0,5(a4)
    6ec2:	235c                	lbu	a5,4(a4)
    6ec4:	0522                	slli	a0,a0,0x8
    6ec6:	8d5d                	or	a0,a0,a5
    6ec8:	237c                	lbu	a5,6(a4)
    6eca:	07c2                	slli	a5,a5,0x10
    6ecc:	8fc9                	or	a5,a5,a0
    6ece:	3368                	lbu	a0,7(a4)
    6ed0:	0562                	slli	a0,a0,0x18
    6ed2:	8d5d                	or	a0,a0,a5
    6ed4:	d21fc0ef          	jal	ra,3bf4 <ntohl>
    6ed8:	00092783          	lw	a5,0(s2)
    6edc:	0505                	addi	a0,a0,1
    6ede:	08f51d63          	bne	a0,a5,6f78 <tcp_input+0x6ce>
    6ee2:	07645783          	lhu	a5,118(s0)
    6ee6:	000aa703          	lw	a4,0(s5)
    6eea:	4094                	lw	a3,0(s1)
    6eec:	0785                	addi	a5,a5,1
    6eee:	06f41b23          	sh	a5,118(s0)
    6ef2:	00170793          	addi	a5,a4,1
    6ef6:	c868                	sw	a0,84(s0)
    6ef8:	d41c                	sw	a5,40(s0)
    6efa:	d81c                	sw	a5,48(s0)
    6efc:	36fc                	lbu	a5,15(a3)
    6efe:	26f0                	lbu	a2,14(a3)
    6f00:	04045503          	lhu	a0,64(s0)
    6f04:	07a2                	slli	a5,a5,0x8
    6f06:	8fd1                	or	a5,a5,a2
    6f08:	177d                	addi	a4,a4,-1
    6f0a:	06f41223          	sh	a5,100(s0)
    6f0e:	4791                	li	a5,4
    6f10:	d438                	sw	a4,104(s0)
    6f12:	c81c                	sw	a5,16(s0)
    6f14:	00440593          	addi	a1,s0,4
    6f18:	de7fe0ef          	jal	ra,5cfe <tcp_eff_send_mss>
    6f1c:	47a9                	li	a5,10
    6f1e:	02f507b3          	mul	a5,a0,a5
    6f22:	05a45703          	lhu	a4,90(s0)
    6f26:	04a41023          	sh	a0,64(s0)
    6f2a:	04f41e23          	sh	a5,92(s0)
    6f2e:	4785                	li	a5,1
    6f30:	00f71563          	bne	a4,a5,6f3a <tcp_input+0x690>
    6f34:	0506                	slli	a0,a0,0x1
    6f36:	0542                	slli	a0,a0,0x10
    6f38:	8141                	srli	a0,a0,0x10
    6f3a:	07845783          	lhu	a5,120(s0)
    6f3e:	04a41d23          	sh	a0,90(s0)
    6f42:	08042503          	lw	a0,128(s0)
    6f46:	17fd                	addi	a5,a5,-1
    6f48:	06f41c23          	sh	a5,120(s0)
    6f4c:	411c                	lw	a5,0(a0)
    6f4e:	08f42023          	sw	a5,128(s0)
    6f52:	ef91                	bnez	a5,6f6e <tcp_input+0x6c4>
    6f54:	57fd                	li	a5,-1
    6f56:	bc7e                	sh	a5,62(s0)
    6f58:	e64fe0ef          	jal	ra,55bc <tcp_seg_free>
    6f5c:	09442783          	lw	a5,148(s0)
    6f60:	f00788e3          	beqz	a5,6e70 <tcp_input+0x5c6>
    6f64:	4c08                	lw	a0,24(s0)
    6f66:	4601                	li	a2,0
    6f68:	85a2                	mv	a1,s0
    6f6a:	9782                	jalr	a5
    6f6c:	b711                	j	6e70 <tcp_input+0x5c6>
    6f6e:	02041f23          	sh	zero,62(s0)
    6f72:	04040923          	sb	zero,82(s0)
    6f76:	b7cd                	j	6f58 <tcp_input+0x6ae>
    6f78:	000cc783          	lbu	a5,0(s9)
    6f7c:	8bc1                	andi	a5,a5,16
    6f7e:	e8078de3          	beqz	a5,6e18 <tcp_input+0x56e>
    6f82:	4094                	lw	a3,0(s1)
    6f84:	000c5503          	lhu	a0,0(s8)
    6f88:	000aa583          	lw	a1,0(s5)
    6f8c:	329c                	lbu	a5,1(a3)
    6f8e:	32b8                	lbu	a4,3(a3)
    6f90:	000b2603          	lw	a2,0(s6)
    6f94:	0006c883          	lbu	a7,0(a3)
    6f98:	0026c803          	lbu	a6,2(a3)
    6f9c:	95aa                	add	a1,a1,a0
    6f9e:	00092503          	lw	a0,0(s2)
    6fa2:	07a2                	slli	a5,a5,0x8
    6fa4:	0722                	slli	a4,a4,0x8
    6fa6:	00c60693          	addi	a3,a2,12
    6faa:	0117e7b3          	or	a5,a5,a7
    6fae:	01076733          	or	a4,a4,a6
    6fb2:	0641                	addi	a2,a2,16
    6fb4:	415000ef          	jal	ra,7bc8 <tcp_rst>
    6fb8:	b585                	j	6e18 <tcp_input+0x56e>
    6fba:	000cc783          	lbu	a5,0(s9)
    6fbe:	0107f713          	andi	a4,a5,16
    6fc2:	c769                	beqz	a4,708c <tcp_input+0x7e2>
    6fc4:	00092503          	lw	a0,0(s2)
    6fc8:	4878                	lw	a4,84(s0)
    6fca:	fff50793          	addi	a5,a0,-1
    6fce:	8f99                	sub	a5,a5,a4
    6fd0:	0807c663          	bltz	a5,705c <tcp_input+0x7b2>
    6fd4:	503c                	lw	a5,96(s0)
    6fd6:	40f507b3          	sub	a5,a0,a5
    6fda:	08f04163          	bgtz	a5,705c <tcp_input+0x7b2>
    6fde:	4791                	li	a5,4
    6fe0:	c81c                	sw	a5,16(s0)
    6fe2:	501c                	lw	a5,32(s0)
    6fe4:	c78d                	beqz	a5,700e <tcp_input+0x764>
    6fe6:	4c08                	lw	a0,24(s0)
    6fe8:	4601                	li	a2,0
    6fea:	85a2                	mv	a1,s0
    6fec:	9782                	jalr	a5
    6fee:	c105                	beqz	a0,700e <tcp_input+0x764>
    6ff0:	4585                	li	a1,1
    6ff2:	8522                	mv	a0,s0
    6ff4:	b1dfe0ef          	jal	ra,5b10 <tcp_abandon>
    6ff8:	004da503          	lw	a0,4(s11)
    6ffc:	000ba023          	sw	zero,0(s7)
    7000:	900505e3          	beqz	a0,690a <tcp_input+0x60>
    7004:	f8dfd0ef          	jal	ra,4f90 <pbuf_free>
    7008:	000da223          	sw	zero,4(s11)
    700c:	b8fd                	j	690a <tcp_input+0x60>
    700e:	8522                	mv	a0,s0
    7010:	05a45483          	lhu	s1,90(s0)
    7014:	f01fe0ef          	jal	ra,5f14 <tcp_receive>
    7018:	07445783          	lhu	a5,116(s0)
    701c:	c781                	beqz	a5,7024 <tcp_input+0x77a>
    701e:	17fd                	addi	a5,a5,-1
    7020:	06f41a23          	sh	a5,116(s0)
    7024:	4705                	li	a4,1
    7026:	04045783          	lhu	a5,64(s0)
    702a:	00e49563          	bne	s1,a4,7034 <tcp_input+0x78a>
    702e:	0786                	slli	a5,a5,0x1
    7030:	07c2                	slli	a5,a5,0x10
    7032:	83c1                	srli	a5,a5,0x10
    7034:	04f41d23          	sh	a5,90(s0)
    7038:	000a4783          	lbu	a5,0(s4)
    703c:	0207f793          	andi	a5,a5,32
    7040:	dc078ce3          	beqz	a5,6e18 <tcp_input+0x56e>
    7044:	02644783          	lbu	a5,38(s0)
    7048:	8522                	mv	a0,s0
    704a:	0027e793          	ori	a5,a5,2
    704e:	02f40323          	sb	a5,38(s0)
    7052:	003000ef          	jal	ra,7854 <tcp_output>
    7056:	479d                	li	a5,7
    7058:	c81c                	sw	a5,16(s0)
    705a:	bb7d                	j	6e18 <tcp_input+0x56e>
    705c:	4094                	lw	a3,0(s1)
    705e:	000b2603          	lw	a2,0(s6)
    7062:	000c5803          	lhu	a6,0(s8)
    7066:	329c                	lbu	a5,1(a3)
    7068:	32b8                	lbu	a4,3(a3)
    706a:	0006c303          	lbu	t1,0(a3)
    706e:	0026c883          	lbu	a7,2(a3)
    7072:	000aa583          	lw	a1,0(s5)
    7076:	07a2                	slli	a5,a5,0x8
    7078:	0722                	slli	a4,a4,0x8
    707a:	00c60693          	addi	a3,a2,12
    707e:	0067e7b3          	or	a5,a5,t1
    7082:	01176733          	or	a4,a4,a7
    7086:	0641                	addi	a2,a2,16
    7088:	95c2                	add	a1,a1,a6
    708a:	b72d                	j	6fb4 <tcp_input+0x70a>
    708c:	8b89                	andi	a5,a5,2
    708e:	d80785e3          	beqz	a5,6e18 <tcp_input+0x56e>
    7092:	541c                	lw	a5,40(s0)
    7094:	000aa703          	lw	a4,0(s5)
    7098:	17fd                	addi	a5,a5,-1
    709a:	d6e79fe3          	bne	a5,a4,6e18 <tcp_input+0x56e>
    709e:	8522                	mv	a0,s0
    70a0:	467000ef          	jal	ra,7d06 <tcp_rexmit>
    70a4:	bb95                	j	6e18 <tcp_input+0x56e>
    70a6:	8522                	mv	a0,s0
    70a8:	e6dfe0ef          	jal	ra,5f14 <tcp_receive>
    70ac:	b771                	j	7038 <tcp_input+0x78e>
    70ae:	8522                	mv	a0,s0
    70b0:	e65fe0ef          	jal	ra,5f14 <tcp_receive>
    70b4:	000a4783          	lbu	a5,0(s4)
    70b8:	0207f793          	andi	a5,a5,32
    70bc:	c3c1                	beqz	a5,713c <tcp_input+0x892>
    70be:	000cc703          	lbu	a4,0(s9)
    70c2:	02644783          	lbu	a5,38(s0)
    70c6:	8b41                	andi	a4,a4,16
    70c8:	0027e793          	ori	a5,a5,2
    70cc:	c32d                	beqz	a4,712e <tcp_input+0x884>
    70ce:	5034                	lw	a3,96(s0)
    70d0:	00092703          	lw	a4,0(s2)
    70d4:	04e69d63          	bne	a3,a4,712e <tcp_input+0x884>
    70d8:	02f40323          	sb	a5,38(s0)
    70dc:	8522                	mv	a0,s0
    70de:	776000ef          	jal	ra,7854 <tcp_output>
    70e2:	8522                	mv	a0,s0
    70e4:	d68fe0ef          	jal	ra,564c <tcp_pcb_purge>
    70e8:	8ec1a783          	lw	a5,-1812(gp) # 2000010c <tcp_active_pcbs>
    70ec:	00f41d63          	bne	s0,a5,7106 <tcp_input+0x85c>
    70f0:	445c                	lw	a5,12(s0)
    70f2:	8ef1a623          	sw	a5,-1812(gp) # 2000010c <tcp_active_pcbs>
    70f6:	47a9                	li	a5,10
    70f8:	c81c                	sw	a5,16(s0)
    70fa:	9041a703          	lw	a4,-1788(gp) # 20000124 <tcp_tw_pcbs>
    70fe:	9081a223          	sw	s0,-1788(gp) # 20000124 <tcp_tw_pcbs>
    7102:	c458                	sw	a4,12(s0)
    7104:	bb11                	j	6e18 <tcp_input+0x56e>
    7106:	90f1a023          	sw	a5,-1792(gp) # 20000120 <tcp_tmp_pcb>
    710a:	4681                	li	a3,0
    710c:	e789                	bnez	a5,7116 <tcp_input+0x86c>
    710e:	d6e5                	beqz	a3,70f6 <tcp_input+0x84c>
    7110:	9001a023          	sw	zero,-1792(gp) # 20000120 <tcp_tmp_pcb>
    7114:	b7cd                	j	70f6 <tcp_input+0x84c>
    7116:	47d0                	lw	a2,12(a5)
    7118:	00c41863          	bne	s0,a2,7128 <tcp_input+0x87e>
    711c:	c299                	beqz	a3,7122 <tcp_input+0x878>
    711e:	90f1a023          	sw	a5,-1792(gp) # 20000120 <tcp_tmp_pcb>
    7122:	4458                	lw	a4,12(s0)
    7124:	c7d8                	sw	a4,12(a5)
    7126:	bfc1                	j	70f6 <tcp_input+0x84c>
    7128:	4685                	li	a3,1
    712a:	87b2                	mv	a5,a2
    712c:	b7c5                	j	710c <tcp_input+0x862>
    712e:	02f40323          	sb	a5,38(s0)
    7132:	8522                	mv	a0,s0
    7134:	720000ef          	jal	ra,7854 <tcp_output>
    7138:	47a1                	li	a5,8
    713a:	bf39                	j	7058 <tcp_input+0x7ae>
    713c:	000cc783          	lbu	a5,0(s9)
    7140:	8bc1                	andi	a5,a5,16
    7142:	cc078be3          	beqz	a5,6e18 <tcp_input+0x56e>
    7146:	5038                	lw	a4,96(s0)
    7148:	00092783          	lw	a5,0(s2)
    714c:	ccf716e3          	bne	a4,a5,6e18 <tcp_input+0x56e>
    7150:	4799                	li	a5,6
    7152:	b719                	j	7058 <tcp_input+0x7ae>
    7154:	8522                	mv	a0,s0
    7156:	dbffe0ef          	jal	ra,5f14 <tcp_receive>
    715a:	000a4783          	lbu	a5,0(s4)
    715e:	0207f793          	andi	a5,a5,32
    7162:	ca078be3          	beqz	a5,6e18 <tcp_input+0x56e>
    7166:	02644783          	lbu	a5,38(s0)
    716a:	8522                	mv	a0,s0
    716c:	0027e793          	ori	a5,a5,2
    7170:	02f40323          	sb	a5,38(s0)
    7174:	6e0000ef          	jal	ra,7854 <tcp_output>
    7178:	8522                	mv	a0,s0
    717a:	cd2fe0ef          	jal	ra,564c <tcp_pcb_purge>
    717e:	8ec1a783          	lw	a5,-1812(gp) # 2000010c <tcp_active_pcbs>
    7182:	f6f407e3          	beq	s0,a5,70f0 <tcp_input+0x846>
    7186:	90f1a023          	sw	a5,-1792(gp) # 20000120 <tcp_tmp_pcb>
    718a:	4681                	li	a3,0
    718c:	d3c9                	beqz	a5,710e <tcp_input+0x864>
    718e:	47d0                	lw	a2,12(a5)
    7190:	f8c406e3          	beq	s0,a2,711c <tcp_input+0x872>
    7194:	4685                	li	a3,1
    7196:	87b2                	mv	a5,a2
    7198:	bfd5                	j	718c <tcp_input+0x8e2>
    719a:	8522                	mv	a0,s0
    719c:	d79fe0ef          	jal	ra,5f14 <tcp_receive>
    71a0:	000cc783          	lbu	a5,0(s9)
    71a4:	8bc1                	andi	a5,a5,16
    71a6:	c60789e3          	beqz	a5,6e18 <tcp_input+0x56e>
    71aa:	5038                	lw	a4,96(s0)
    71ac:	00092783          	lw	a5,0(s2)
    71b0:	c6f714e3          	bne	a4,a5,6e18 <tcp_input+0x56e>
    71b4:	8522                	mv	a0,s0
    71b6:	c96fe0ef          	jal	ra,564c <tcp_pcb_purge>
    71ba:	8ec1a783          	lw	a5,-1812(gp) # 2000010c <tcp_active_pcbs>
    71be:	f2f409e3          	beq	s0,a5,70f0 <tcp_input+0x846>
    71c2:	90f1a023          	sw	a5,-1792(gp) # 20000120 <tcp_tmp_pcb>
    71c6:	4681                	li	a3,0
    71c8:	d3b9                	beqz	a5,710e <tcp_input+0x864>
    71ca:	47d0                	lw	a2,12(a5)
    71cc:	f4c408e3          	beq	s0,a2,711c <tcp_input+0x872>
    71d0:	4685                	li	a3,1
    71d2:	87b2                	mv	a5,a2
    71d4:	bfd5                	j	71c8 <tcp_input+0x91e>
    71d6:	8522                	mv	a0,s0
    71d8:	d3dfe0ef          	jal	ra,5f14 <tcp_receive>
    71dc:	000cc783          	lbu	a5,0(s9)
    71e0:	8bc1                	andi	a5,a5,16
    71e2:	c2078be3          	beqz	a5,6e18 <tcp_input+0x56e>
    71e6:	5038                	lw	a4,96(s0)
    71e8:	00092783          	lw	a5,0(s2)
    71ec:	c2f716e3          	bne	a4,a5,6e18 <tcp_input+0x56e>
    71f0:	000a4783          	lbu	a5,0(s4)
    71f4:	0107e793          	ori	a5,a5,16
    71f8:	00fa0023          	sb	a5,0(s4)
    71fc:	b931                	j	6e18 <tcp_input+0x56e>
    71fe:	8bc1                	andi	a5,a5,16
    7200:	c789                	beqz	a5,720a <tcp_input+0x960>
    7202:	8522                	mv	a0,s0
    7204:	e4ffb0ef          	jal	ra,3052 <LwipRemoveTcpPcb>
    7208:	b199                	j	6e4e <tcp_input+0x5a4>
    720a:	07445603          	lhu	a2,116(s0)
    720e:	c619                	beqz	a2,721c <tcp_input+0x972>
    7210:	08c42783          	lw	a5,140(s0)
    7214:	c781                	beqz	a5,721c <tcp_input+0x972>
    7216:	4c08                	lw	a0,24(s0)
    7218:	85a2                	mv	a1,s0
    721a:	9782                	jalr	a5
    721c:	000d2603          	lw	a2,0(s10)
    7220:	c60d                	beqz	a2,724a <tcp_input+0x9a0>
    7222:	000cc783          	lbu	a5,0(s9)
    7226:	8ba1                	andi	a5,a5,8
    7228:	c789                	beqz	a5,7232 <tcp_input+0x988>
    722a:	365c                	lbu	a5,13(a2)
    722c:	0017e793          	ori	a5,a5,1
    7230:	b65c                	sb	a5,13(a2)
    7232:	09042783          	lw	a5,144(s0)
    7236:	4681                	li	a3,0
    7238:	85a2                	mv	a1,s0
    723a:	cb95                	beqz	a5,726e <tcp_input+0x9c4>
    723c:	4c08                	lw	a0,24(s0)
    723e:	9782                	jalr	a5
    7240:	c509                	beqz	a0,724a <tcp_input+0x9a0>
    7242:	000d2783          	lw	a5,0(s10)
    7246:	08f42423          	sw	a5,136(s0)
    724a:	000a4783          	lbu	a5,0(s4)
    724e:	0207f793          	andi	a5,a5,32
    7252:	cb89                	beqz	a5,7264 <tcp_input+0x9ba>
    7254:	09042783          	lw	a5,144(s0)
    7258:	4681                	li	a3,0
    725a:	4601                	li	a2,0
    725c:	85a2                	mv	a1,s0
    725e:	cf81                	beqz	a5,7276 <tcp_input+0x9cc>
    7260:	4c08                	lw	a0,24(s0)
    7262:	9782                	jalr	a5
    7264:	8522                	mv	a0,s0
    7266:	000ba023          	sw	zero,0(s7)
    726a:	23ed                	jal	7854 <tcp_output>
    726c:	b371                	j	6ff8 <tcp_input+0x74e>
    726e:	4501                	li	a0,0
    7270:	fecfe0ef          	jal	ra,5a5c <tcp_recv_null>
    7274:	b7f1                	j	7240 <tcp_input+0x996>
    7276:	4501                	li	a0,0
    7278:	fe4fe0ef          	jal	ra,5a5c <tcp_recv_null>
    727c:	b7e5                	j	7264 <tcp_input+0x9ba>

0000727e <tcp_output_set_header.isra.0.constprop.1>:
tcp_output_set_header.isra.0.constprop.1():
    727e:	fb3f82ef          	jal	t0,230 <__riscv_save_0>
    7282:	892a                	mv	s2,a0
    7284:	2d4a                	lhu	a0,28(a0)
    7286:	1141                	addi	sp,sp,-16
    7288:	842e                	mv	s0,a1
    728a:	c632                	sw	a2,12(sp)
    728c:	929fc0ef          	jal	ra,3bb4 <htons>
    7290:	a008                	sb	a0,0(s0)
    7292:	8121                	srli	a0,a0,0x8
    7294:	b008                	sb	a0,1(s0)
    7296:	02495503          	lhu	a0,36(s2)
    729a:	91bfc0ef          	jal	ra,3bb4 <htons>
    729e:	4632                	lw	a2,12(sp)
    72a0:	a028                	sb	a0,2(s0)
    72a2:	8121                	srli	a0,a0,0x8
    72a4:	b028                	sb	a0,3(s0)
    72a6:	00865793          	srli	a5,a2,0x8
    72aa:	02892503          	lw	a0,40(s2)
    72ae:	a050                	sb	a2,4(s0)
    72b0:	b05c                	sb	a5,5(s0)
    72b2:	01065793          	srli	a5,a2,0x10
    72b6:	8261                	srli	a2,a2,0x18
    72b8:	b070                	sb	a2,7(s0)
    72ba:	a07c                	sb	a5,6(s0)
    72bc:	915fc0ef          	jal	ra,3bd0 <htonl>
    72c0:	00855793          	srli	a5,a0,0x8
    72c4:	a408                	sb	a0,8(s0)
    72c6:	b41c                	sb	a5,9(s0)
    72c8:	3444                	lbu	s1,13(s0)
    72ca:	01055793          	srli	a5,a0,0x10
    72ce:	8161                	srli	a0,a0,0x18
    72d0:	b428                	sb	a0,11(s0)
    72d2:	2448                	lbu	a0,12(s0)
    72d4:	04a2                	slli	s1,s1,0x8
    72d6:	a43c                	sb	a5,10(s0)
    72d8:	8cc9                	or	s1,s1,a0
    72da:	6541                	lui	a0,0x10
    72dc:	fc050513          	addi	a0,a0,-64 # ffc0 <_data_lma+0x436c>
    72e0:	8d5fc0ef          	jal	ra,3bb4 <htons>
    72e4:	8ce9                	and	s1,s1,a0
    72e6:	4541                	li	a0,16
    72e8:	8cdfc0ef          	jal	ra,3bb4 <htons>
    72ec:	8d45                	or	a0,a0,s1
    72ee:	0542                	slli	a0,a0,0x10
    72f0:	8141                	srli	a0,a0,0x10
    72f2:	a448                	sb	a0,12(s0)
    72f4:	8121                	srli	a0,a0,0x8
    72f6:	b448                	sb	a0,13(s0)
    72f8:	02e95503          	lhu	a0,46(s2)
    72fc:	8b9fc0ef          	jal	ra,3bb4 <htons>
    7300:	02e95783          	lhu	a5,46(s2)
    7304:	a468                	sb	a0,14(s0)
    7306:	8121                	srli	a0,a0,0x8
    7308:	b468                	sb	a0,15(s0)
    730a:	02f91b23          	sh	a5,54(s2)
    730e:	345c                	lbu	a5,13(s0)
    7310:	2448                	lbu	a0,12(s0)
    7312:	00040923          	sb	zero,18(s0)
    7316:	07a2                	slli	a5,a5,0x8
    7318:	000409a3          	sb	zero,19(s0)
    731c:	8d5d                	or	a0,a0,a5
    731e:	8a5fc0ef          	jal	ra,3bc2 <ntohs>
    7322:	6795                	lui	a5,0x5
    7324:	03f57513          	andi	a0,a0,63
    7328:	8d5d                	or	a0,a0,a5
    732a:	88bfc0ef          	jal	ra,3bb4 <htons>
    732e:	02e95703          	lhu	a4,46(s2)
    7332:	02892783          	lw	a5,40(s2)
    7336:	a448                	sb	a0,12(s0)
    7338:	8121                	srli	a0,a0,0x8
    733a:	b448                	sb	a0,13(s0)
    733c:	00040823          	sb	zero,16(s0)
    7340:	000408a3          	sb	zero,17(s0)
    7344:	97ba                	add	a5,a5,a4
    7346:	02f92823          	sw	a5,48(s2)
    734a:	8522                	mv	a0,s0
    734c:	0141                	addi	sp,sp,16
    734e:	f07f806f          	j	254 <__riscv_restore_0>

00007352 <tcp_enqueue>:
tcp_enqueue():
    7352:	eaff82ef          	jal	t0,200 <__riscv_save_12>
    7356:	7179                	addi	sp,sp,-48
    7358:	c62e                	sw	a1,12(sp)
    735a:	ca3a                	sw	a4,20(sp)
    735c:	892a                	mv	s2,a0
    735e:	8ab2                	mv	s5,a2
    7360:	8b36                	mv	s6,a3
    7362:	8dbe                	mv	s11,a5
    7364:	ee01                	bnez	a2,737c <tcp_enqueue+0x2a>
    7366:	0036f793          	andi	a5,a3,3
    736a:	00fde7b3          	or	a5,s11,a5
    736e:	5a59                	li	s4,-10
    7370:	c391                	beqz	a5,7374 <tcp_enqueue+0x22>
    7372:	c18d                	beqz	a1,7394 <tcp_enqueue+0x42>
    7374:	8552                	mv	a0,s4
    7376:	6145                	addi	sp,sp,48
    7378:	ec5f806f          	j	23c <__riscv_restore_12>
    737c:	07655783          	lhu	a5,118(a0)
    7380:	00c7fa63          	bgeu	a5,a2,7394 <tcp_enqueue+0x42>
    7384:	02694783          	lbu	a5,38(s2)
    7388:	5a7d                	li	s4,-1
    738a:	f807e793          	ori	a5,a5,-128
    738e:	02f90323          	sb	a5,38(s2)
    7392:	b7cd                	j	7374 <tcp_enqueue+0x22>
    7394:	002d9793          	slli	a5,s11,0x2
    7398:	002df713          	andi	a4,s11,2
    739c:	8b91                	andi	a5,a5,4
    739e:	46b1                	li	a3,12
    73a0:	e311                	bnez	a4,73a4 <tcp_enqueue+0x52>
    73a2:	4681                	li	a3,0
    73a4:	97b6                	add	a5,a5,a3
    73a6:	c23e                	sw	a5,4(sp)
    73a8:	07092783          	lw	a5,112(s2)
    73ac:	20006d37          	lui	s10,0x20006
    73b0:	250d0713          	addi	a4,s10,592 # 20006250 <WCHCfg>
    73b4:	c43e                	sw	a5,8(sp)
    73b6:	471c                	lw	a5,8(a4)
    73b8:	4358                	lw	a4,4(a4)
    73ba:	07895483          	lhu	s1,120(s2)
    73be:	078a                	slli	a5,a5,0x2
    73c0:	02e7d7b3          	divu	a5,a5,a4
    73c4:	250d0d13          	addi	s10,s10,592
    73c8:	faf4fee3          	bgeu	s1,a5,7384 <tcp_enqueue+0x32>
    73cc:	6741                	lui	a4,0x10
    73ce:	ffc70693          	addi	a3,a4,-4 # fffc <_data_lma+0x43a8>
    73d2:	fa96e9e3          	bltu	a3,s1,7384 <tcp_enqueue+0x32>
    73d6:	4792                	lw	a5,4(sp)
    73d8:	8230                	lhu	a2,4(sp)
    73da:	fc070713          	addi	a4,a4,-64
    73de:	8389                	srli	a5,a5,0x2
    73e0:	0ff7f793          	andi	a5,a5,255
    73e4:	0795                	addi	a5,a5,5
    73e6:	c832                	sw	a2,16(sp)
    73e8:	4652                	lw	a2,20(sp)
    73ea:	07b2                	slli	a5,a5,0xc
    73ec:	07c2                	slli	a5,a5,0x10
    73ee:	d23a                	sw	a4,36(sp)
    73f0:	4cb2                	lw	s9,12(sp)
    73f2:	010b1713          	slli	a4,s6,0x10
    73f6:	83c1                	srli	a5,a5,0x10
    73f8:	8a05                	andi	a2,a2,1
    73fa:	8341                	srli	a4,a4,0x10
    73fc:	cc3e                	sw	a5,24(sp)
    73fe:	8bd6                	mv	s7,s5
    7400:	4981                	li	s3,0
    7402:	4781                	li	a5,0
    7404:	ce32                	sw	a2,28(sp)
    7406:	d036                	sw	a3,32(sp)
    7408:	d43a                	sw	a4,40(sp)
    740a:	04095a03          	lhu	s4,64(s2)
    740e:	4712                	lw	a4,4(sp)
    7410:	40ea0a33          	sub	s4,s4,a4
    7414:	014bd363          	bge	s7,s4,741a <tcp_enqueue+0xc8>
    7418:	8a5e                	mv	s4,s7
    741a:	4511                	li	a0,4
    741c:	d63e                	sw	a5,44(sp)
    741e:	010a1c13          	slli	s8,s4,0x10
    7422:	97dfd0ef          	jal	ra,4d9e <memp_malloc>
    7426:	010c5c13          	srli	s8,s8,0x10
    742a:	842a                	mv	s0,a0
    742c:	18050663          	beqz	a0,75b8 <tcp_enqueue+0x266>
    7430:	00052023          	sw	zero,0(a0)
    7434:	00052223          	sw	zero,4(a0)
    7438:	14098463          	beqz	s3,7580 <tcp_enqueue+0x22e>
    743c:	57b2                	lw	a5,44(sp)
    743e:	c388                	sw	a0,0(a5)
    7440:	47f2                	lw	a5,28(sp)
    7442:	14078163          	beqz	a5,7584 <tcp_enqueue+0x232>
    7446:	47c2                	lw	a5,16(sp)
    7448:	4601                	li	a2,0
    744a:	4501                	li	a0,0
    744c:	00fc05b3          	add	a1,s8,a5
    7450:	05c2                	slli	a1,a1,0x10
    7452:	81c1                	srli	a1,a1,0x10
    7454:	b8bfd0ef          	jal	ra,4fde <pbuf_alloc>
    7458:	c048                	sw	a0,4(s0)
    745a:	14050f63          	beqz	a0,75b8 <tcp_enqueue+0x266>
    745e:	d19fd0ef          	jal	ra,5176 <pbuf_clen>
    7462:	47b2                	lw	a5,12(sp)
    7464:	94aa                	add	s1,s1,a0
    7466:	04c2                	slli	s1,s1,0x10
    7468:	80c1                	srli	s1,s1,0x10
    746a:	cf81                	beqz	a5,7482 <tcp_enqueue+0x130>
    746c:	405c                	lw	a5,4(s0)
    746e:	85e6                	mv	a1,s9
    7470:	43c8                	lw	a0,4(a5)
    7472:	67c1                	lui	a5,0x10
    7474:	17fd                	addi	a5,a5,-1
    7476:	00fa7633          	and	a2,s4,a5
    747a:	4792                	lw	a5,4(sp)
    747c:	953e                	add	a0,a0,a5
    747e:	1e5010ef          	jal	ra,8e62 <memcpy>
    7482:	405c                	lw	a5,4(s0)
    7484:	43dc                	lw	a5,4(a5)
    7486:	c41c                	sw	a5,8(s0)
    7488:	008d2783          	lw	a5,8(s10)
    748c:	004d2703          	lw	a4,4(s10)
    7490:	078a                	slli	a5,a5,0x2
    7492:	02e7d7b3          	divu	a5,a5,a4
    7496:	1297e163          	bltu	a5,s1,75b8 <tcp_enqueue+0x266>
    749a:	5782                	lw	a5,32(sp)
    749c:	1097ee63          	bltu	a5,s1,75b8 <tcp_enqueue+0x266>
    74a0:	4048                	lw	a0,4(s0)
    74a2:	01841623          	sh	s8,12(s0)
    74a6:	45d1                	li	a1,20
    74a8:	a7bfd0ef          	jal	ra,4f22 <pbuf_header>
    74ac:	10051663          	bnez	a0,75b8 <tcp_enqueue+0x266>
    74b0:	405c                	lw	a5,4(s0)
    74b2:	01c95503          	lhu	a0,28(s2)
    74b6:	418b8bb3          	sub	s7,s7,s8
    74ba:	43dc                	lw	a5,4(a5)
    74bc:	0bc2                	slli	s7,s7,0x10
    74be:	010bdb93          	srli	s7,s7,0x10
    74c2:	c81c                	sw	a5,16(s0)
    74c4:	d63e                	sw	a5,44(sp)
    74c6:	eeefc0ef          	jal	ra,3bb4 <htons>
    74ca:	57b2                	lw	a5,44(sp)
    74cc:	a388                	sb	a0,0(a5)
    74ce:	8121                	srli	a0,a0,0x8
    74d0:	b388                	sb	a0,1(a5)
    74d2:	481c                	lw	a5,16(s0)
    74d4:	02495503          	lhu	a0,36(s2)
    74d8:	d63e                	sw	a5,44(sp)
    74da:	edafc0ef          	jal	ra,3bb4 <htons>
    74de:	57b2                	lw	a5,44(sp)
    74e0:	a3a8                	sb	a0,2(a5)
    74e2:	8121                	srli	a0,a0,0x8
    74e4:	b3a8                	sb	a0,3(a5)
    74e6:	481c                	lw	a5,16(s0)
    74e8:	4522                	lw	a0,8(sp)
    74ea:	d63e                	sw	a5,44(sp)
    74ec:	ee4fc0ef          	jal	ra,3bd0 <htonl>
    74f0:	57b2                	lw	a5,44(sp)
    74f2:	00855713          	srli	a4,a0,0x8
    74f6:	b3d8                	sb	a4,5(a5)
    74f8:	01055713          	srli	a4,a0,0x10
    74fc:	a3f8                	sb	a4,6(a5)
    74fe:	4818                	lw	a4,16(s0)
    7500:	a3c8                	sb	a0,4(a5)
    7502:	8161                	srli	a0,a0,0x18
    7504:	b3e8                	sb	a0,7(a5)
    7506:	375c                	lbu	a5,13(a4)
    7508:	2748                	lbu	a0,12(a4)
    750a:	00070923          	sb	zero,18(a4)
    750e:	07a2                	slli	a5,a5,0x8
    7510:	8fc9                	or	a5,a5,a0
    7512:	5512                	lw	a0,36(sp)
    7514:	000709a3          	sb	zero,19(a4)
    7518:	d63e                	sw	a5,44(sp)
    751a:	e9afc0ef          	jal	ra,3bb4 <htons>
    751e:	57b2                	lw	a5,44(sp)
    7520:	8fe9                	and	a5,a5,a0
    7522:	5522                	lw	a0,40(sp)
    7524:	d63e                	sw	a5,44(sp)
    7526:	e8efc0ef          	jal	ra,3bb4 <htons>
    752a:	57b2                	lw	a5,44(sp)
    752c:	8d5d                	or	a0,a0,a5
    752e:	0542                	slli	a0,a0,0x10
    7530:	481c                	lw	a5,16(s0)
    7532:	8141                	srli	a0,a0,0x10
    7534:	00855713          	srli	a4,a0,0x8
    7538:	b7d8                	sb	a4,13(a5)
    753a:	a7c8                	sb	a0,12(a5)
    753c:	01b40723          	sb	s11,14(s0)
    7540:	e82fc0ef          	jal	ra,3bc2 <ntohs>
    7544:	481c                	lw	a5,16(s0)
    7546:	03f57513          	andi	a0,a0,63
    754a:	d63e                	sw	a5,44(sp)
    754c:	47e2                	lw	a5,24(sp)
    754e:	8d5d                	or	a0,a0,a5
    7550:	e64fc0ef          	jal	ra,3bb4 <htons>
    7554:	57b2                	lw	a5,44(sp)
    7556:	a7c8                	sb	a0,12(a5)
    7558:	8121                	srli	a0,a0,0x8
    755a:	b7c8                	sb	a0,13(a5)
    755c:	67c1                	lui	a5,0x10
    755e:	17fd                	addi	a5,a5,-1
    7560:	00fa7a33          	and	s4,s4,a5
    7564:	47a2                	lw	a5,8(sp)
    7566:	9cd2                	add	s9,s9,s4
    7568:	97d2                	add	a5,a5,s4
    756a:	c43e                	sw	a5,8(sp)
    756c:	87a2                	mv	a5,s0
    756e:	e80b9ee3          	bnez	s7,740a <tcp_enqueue+0xb8>
    7572:	07c92a03          	lw	s4,124(s2)
    7576:	060a1963          	bnez	s4,75e8 <tcp_enqueue+0x296>
    757a:	07392e23          	sw	s3,124(s2)
    757e:	a251                	j	7702 <tcp_enqueue+0x3b0>
    7580:	89aa                	mv	s3,a0
    7582:	bd7d                	j	7440 <tcp_enqueue+0xee>
    7584:	45c2                	lw	a1,16(sp)
    7586:	4601                	li	a2,0
    7588:	4501                	li	a0,0
    758a:	a55fd0ef          	jal	ra,4fde <pbuf_alloc>
    758e:	c048                	sw	a0,4(s0)
    7590:	c505                	beqz	a0,75b8 <tcp_enqueue+0x266>
    7592:	be5fd0ef          	jal	ra,5176 <pbuf_clen>
    7596:	94aa                	add	s1,s1,a0
    7598:	04c2                	slli	s1,s1,0x10
    759a:	80c1                	srli	s1,s1,0x10
    759c:	ee0b86e3          	beqz	s7,7488 <tcp_enqueue+0x136>
    75a0:	85e2                	mv	a1,s8
    75a2:	4605                	li	a2,1
    75a4:	450d                	li	a0,3
    75a6:	a39fd0ef          	jal	ra,4fde <pbuf_alloc>
    75aa:	85aa                	mv	a1,a0
    75ac:	4048                	lw	a0,4(s0)
    75ae:	e195                	bnez	a1,75d2 <tcp_enqueue+0x280>
    75b0:	9e1fd0ef          	jal	ra,4f90 <pbuf_free>
    75b4:	00042223          	sw	zero,4(s0)
    75b8:	02694783          	lbu	a5,38(s2)
    75bc:	5a7d                	li	s4,-1
    75be:	f807e793          	ori	a5,a5,-128
    75c2:	02f90323          	sb	a5,38(s2)
    75c6:	da0987e3          	beqz	s3,7374 <tcp_enqueue+0x22>
    75ca:	854e                	mv	a0,s3
    75cc:	81afe0ef          	jal	ra,55e6 <tcp_segs_free>
    75d0:	b355                	j	7374 <tcp_enqueue+0x22>
    75d2:	0195a223          	sw	s9,4(a1)
    75d6:	0485                	addi	s1,s1,1
    75d8:	04c2                	slli	s1,s1,0x10
    75da:	01942423          	sw	s9,8(s0)
    75de:	80c1                	srli	s1,s1,0x10
    75e0:	bb3fd0ef          	jal	ra,5192 <pbuf_cat>
    75e4:	b555                	j	7488 <tcp_enqueue+0x136>
    75e6:	8a3e                	mv	s4,a5
    75e8:	000a2783          	lw	a5,0(s4)
    75ec:	ffed                	bnez	a5,75e6 <tcp_enqueue+0x294>
    75ee:	010a2783          	lw	a5,16(s4)
    75f2:	00ca5b83          	lhu	s7,12(s4)
    75f6:	27c8                	lbu	a0,12(a5)
    75f8:	37dc                	lbu	a5,13(a5)
    75fa:	07a2                	slli	a5,a5,0x8
    75fc:	8d5d                	or	a0,a0,a5
    75fe:	dc4fc0ef          	jal	ra,3bc2 <ntohs>
    7602:	890d                	andi	a0,a0,3
    7604:	00a03533          	snez	a0,a0
    7608:	955e                	add	a0,a0,s7
    760a:	18050563          	beqz	a0,7794 <tcp_enqueue+0x442>
    760e:	010a2783          	lw	a5,16(s4)
    7612:	27c8                	lbu	a0,12(a5)
    7614:	37dc                	lbu	a5,13(a5)
    7616:	07a2                	slli	a5,a5,0x8
    7618:	8d5d                	or	a0,a0,a5
    761a:	da8fc0ef          	jal	ra,3bc2 <ntohs>
    761e:	890d                	andi	a0,a0,3
    7620:	16051a63          	bnez	a0,7794 <tcp_enqueue+0x442>
    7624:	003b7793          	andi	a5,s6,3
    7628:	c781                	beqz	a5,7630 <tcp_enqueue+0x2de>
    762a:	4785                	li	a5,1
    762c:	16fb1463          	bne	s6,a5,7794 <tcp_enqueue+0x442>
    7630:	00c9d703          	lhu	a4,12(s3)
    7634:	00ca5783          	lhu	a5,12(s4)
    7638:	97ba                	add	a5,a5,a4
    763a:	04095703          	lhu	a4,64(s2)
    763e:	14f74b63          	blt	a4,a5,7794 <tcp_enqueue+0x442>
    7642:	00ea4703          	lbu	a4,14(s4)
    7646:	00e9c783          	lbu	a5,14(s3)
    764a:	14f71563          	bne	a4,a5,7794 <tcp_enqueue+0x442>
    764e:	010a2703          	lw	a4,16(s4)
    7652:	3348                	lbu	a0,5(a4)
    7654:	235c                	lbu	a5,4(a4)
    7656:	0522                	slli	a0,a0,0x8
    7658:	8d5d                	or	a0,a0,a5
    765a:	237c                	lbu	a5,6(a4)
    765c:	07c2                	slli	a5,a5,0x10
    765e:	8fc9                	or	a5,a5,a0
    7660:	3368                	lbu	a0,7(a4)
    7662:	0562                	slli	a0,a0,0x18
    7664:	8d5d                	or	a0,a0,a5
    7666:	d8efc0ef          	jal	ra,3bf4 <ntohl>
    766a:	0109a703          	lw	a4,16(s3)
    766e:	00ca5b83          	lhu	s7,12(s4)
    7672:	235c                	lbu	a5,4(a4)
    7674:	9baa                	add	s7,s7,a0
    7676:	3348                	lbu	a0,5(a4)
    7678:	0522                	slli	a0,a0,0x8
    767a:	8d5d                	or	a0,a0,a5
    767c:	237c                	lbu	a5,6(a4)
    767e:	07c2                	slli	a5,a5,0x10
    7680:	8fc9                	or	a5,a5,a0
    7682:	3368                	lbu	a0,7(a4)
    7684:	0562                	slli	a0,a0,0x18
    7686:	8d5d                	or	a0,a0,a5
    7688:	d6cfc0ef          	jal	ra,3bf4 <ntohl>
    768c:	10ab9463          	bne	s7,a0,7794 <tcp_enqueue+0x442>
    7690:	47c2                	lw	a5,16(sp)
    7692:	55b1                	li	a1,-20
    7694:	0049a503          	lw	a0,4(s3)
    7698:	8d9d                	sub	a1,a1,a5
    769a:	05c2                	slli	a1,a1,0x10
    769c:	85c1                	srai	a1,a1,0x10
    769e:	885fd0ef          	jal	ra,4f22 <pbuf_header>
    76a2:	f0051be3          	bnez	a0,75b8 <tcp_enqueue+0x266>
    76a6:	0049a503          	lw	a0,4(s3)
    76aa:	253e                	lhu	a5,10(a0)
    76ac:	eb99                	bnez	a5,76c2 <tcp_enqueue+0x370>
    76ae:	411c                	lw	a5,0(a0)
    76b0:	14fd                	addi	s1,s1,-1
    76b2:	04c2                	slli	s1,s1,0x10
    76b4:	00f9a223          	sw	a5,4(s3)
    76b8:	00052023          	sw	zero,0(a0)
    76bc:	80c1                	srli	s1,s1,0x10
    76be:	8d3fd0ef          	jal	ra,4f90 <pbuf_free>
    76c2:	001b7793          	andi	a5,s6,1
    76c6:	c7cd                	beqz	a5,7770 <tcp_enqueue+0x41e>
    76c8:	010a2783          	lw	a5,16(s4)
    76cc:	00d7cb83          	lbu	s7,13(a5) # 1000d <_data_lma+0x43b9>
    76d0:	27c8                	lbu	a0,12(a5)
    76d2:	0ba2                	slli	s7,s7,0x8
    76d4:	00abebb3          	or	s7,s7,a0
    76d8:	4505                	li	a0,1
    76da:	cdafc0ef          	jal	ra,3bb4 <htons>
    76de:	010a2783          	lw	a5,16(s4)
    76e2:	00abe533          	or	a0,s7,a0
    76e6:	0542                	slli	a0,a0,0x10
    76e8:	8141                	srli	a0,a0,0x10
    76ea:	a7c8                	sb	a0,12(a5)
    76ec:	8121                	srli	a0,a0,0x8
    76ee:	b7c8                	sb	a0,13(a5)
    76f0:	00899563          	bne	s3,s0,76fa <tcp_enqueue+0x3a8>
    76f4:	00ca5c03          	lhu	s8,12(s4)
    76f8:	8452                	mv	s0,s4
    76fa:	85ce                	mv	a1,s3
    76fc:	4511                	li	a0,4
    76fe:	ec0fd0ef          	jal	ra,4dbe <memp_free>
    7702:	003b7793          	andi	a5,s6,3
    7706:	c789                	beqz	a5,7710 <tcp_enqueue+0x3be>
    7708:	0a85                	addi	s5,s5,1
    770a:	0ac2                	slli	s5,s5,0x10
    770c:	010ada93          	srli	s5,s5,0x10
    7710:	001b7b13          	andi	s6,s6,1
    7714:	000b0863          	beqz	s6,7724 <tcp_enqueue+0x3d2>
    7718:	02694783          	lbu	a5,38(s2)
    771c:	0207e793          	ori	a5,a5,32
    7720:	02f90323          	sb	a5,38(s2)
    7724:	07092783          	lw	a5,112(s2)
    7728:	06991c23          	sh	s1,120(s2)
    772c:	4a01                	li	s4,0
    772e:	97d6                	add	a5,a5,s5
    7730:	06f92823          	sw	a5,112(s2)
    7734:	07695783          	lhu	a5,118(s2)
    7738:	41578ab3          	sub	s5,a5,s5
    773c:	07591b23          	sh	s5,118(s2)
    7740:	c20c0ae3          	beqz	s8,7374 <tcp_enqueue+0x22>
    7744:	481c                	lw	a5,16(s0)
    7746:	c20787e3          	beqz	a5,7374 <tcp_enqueue+0x22>
    774a:	4752                	lw	a4,20(sp)
    774c:	8b09                	andi	a4,a4,2
    774e:	c20713e3          	bnez	a4,7374 <tcp_enqueue+0x22>
    7752:	37c4                	lbu	s1,13(a5)
    7754:	27c8                	lbu	a0,12(a5)
    7756:	04a2                	slli	s1,s1,0x8
    7758:	8cc9                	or	s1,s1,a0
    775a:	4521                	li	a0,8
    775c:	c58fc0ef          	jal	ra,3bb4 <htons>
    7760:	481c                	lw	a5,16(s0)
    7762:	8d45                	or	a0,a0,s1
    7764:	0542                	slli	a0,a0,0x10
    7766:	8141                	srli	a0,a0,0x10
    7768:	a7c8                	sb	a0,12(a5)
    776a:	8121                	srli	a0,a0,0x8
    776c:	b7c8                	sb	a0,13(a5)
    776e:	b119                	j	7374 <tcp_enqueue+0x22>
    7770:	0049a583          	lw	a1,4(s3)
    7774:	004a2503          	lw	a0,4(s4)
    7778:	a1bfd0ef          	jal	ra,5192 <pbuf_cat>
    777c:	00c9d703          	lhu	a4,12(s3)
    7780:	00ca5783          	lhu	a5,12(s4)
    7784:	97ba                	add	a5,a5,a4
    7786:	00fa1623          	sh	a5,12(s4)
    778a:	0009a783          	lw	a5,0(s3)
    778e:	00fa2023          	sw	a5,0(s4)
    7792:	bfb9                	j	76f0 <tcp_enqueue+0x39e>
    7794:	013a2023          	sw	s3,0(s4)
    7798:	b7ad                	j	7702 <tcp_enqueue+0x3b0>

0000779a <tcp_send_ctrl>:
tcp_send_ctrl():
    779a:	a97f82ef          	jal	t0,230 <__riscv_save_0>
    779e:	86ae                	mv	a3,a1
    77a0:	4781                	li	a5,0
    77a2:	4705                	li	a4,1
    77a4:	4601                	li	a2,0
    77a6:	4581                	li	a1,0
    77a8:	babff0ef          	jal	ra,7352 <tcp_enqueue>
    77ac:	aa9f806f          	j	254 <__riscv_restore_0>

000077b0 <tcp_write>:
tcp_write():
    77b0:	87aa                	mv	a5,a0
    77b2:	4908                	lw	a0,16(a0)
    77b4:	471d                	li	a4,7
    77b6:	00e50863          	beq	a0,a4,77c6 <tcp_write+0x16>
    77ba:	ffe50813          	addi	a6,a0,-2
    77be:	4709                	li	a4,2
    77c0:	5561                	li	a0,-8
    77c2:	01076e63          	bltu	a4,a6,77de <tcp_write+0x2e>
    77c6:	4501                	li	a0,0
    77c8:	ca19                	beqz	a2,77de <tcp_write+0x2e>
    77ca:	a67f82ef          	jal	t0,230 <__riscv_save_0>
    77ce:	8736                	mv	a4,a3
    77d0:	853e                	mv	a0,a5
    77d2:	4681                	li	a3,0
    77d4:	4781                	li	a5,0
    77d6:	b7dff0ef          	jal	ra,7352 <tcp_enqueue>
    77da:	a7bf806f          	j	254 <__riscv_restore_0>
    77de:	8082                	ret

000077e0 <tcp_send_empty_ack>:
tcp_send_empty_ack():
    77e0:	a37f82ef          	jal	t0,216 <__riscv_save_4>
    77e4:	842a                	mv	s0,a0
    77e6:	4601                	li	a2,0
    77e8:	45d1                	li	a1,20
    77ea:	4505                	li	a0,1
    77ec:	ff2fd0ef          	jal	ra,4fde <pbuf_alloc>
    77f0:	c125                	beqz	a0,7850 <tcp_send_empty_ack+0x70>
    77f2:	02644783          	lbu	a5,38(s0)
    77f6:	84aa                	mv	s1,a0
    77f8:	5028                	lw	a0,96(s0)
    77fa:	9bf1                	andi	a5,a5,-4
    77fc:	02f40323          	sb	a5,38(s0)
    7800:	bd0fc0ef          	jal	ra,3bd0 <htonl>
    7804:	40cc                	lw	a1,4(s1)
    7806:	862a                	mv	a2,a0
    7808:	8522                	mv	a0,s0
    780a:	a75ff0ef          	jal	ra,727e <tcp_output_set_header.isra.0.constprop.1>
    780e:	249a                	lhu	a4,8(s1)
    7810:	00440913          	addi	s2,s0,4
    7814:	89aa                	mv	s3,a0
    7816:	4699                	li	a3,6
    7818:	864a                	mv	a2,s2
    781a:	85a2                	mv	a1,s0
    781c:	8526                	mv	a0,s1
    781e:	6f3000ef          	jal	ra,8710 <inet_chksum_pseudo>
    7822:	00a98823          	sb	a0,16(s3)
    7826:	8121                	srli	a0,a0,0x8
    7828:	00a988a3          	sb	a0,17(s3)
    782c:	2438                	lbu	a4,10(s0)
    782e:	3434                	lbu	a3,11(s0)
    7830:	4799                	li	a5,6
    7832:	864a                	mv	a2,s2
    7834:	85a2                	mv	a1,s0
    7836:	8526                	mv	a0,s1
    7838:	809fc0ef          	jal	ra,4040 <ip_output>
    783c:	8526                	mv	a0,s1
    783e:	f52fd0ef          	jal	ra,4f90 <pbuf_free>
    7842:	86c1a703          	lw	a4,-1940(gp) # 2000008c <LocalTime>
    7846:	4501                	li	a0,0
    7848:	8ae1ac23          	sw	a4,-1864(gp) # 200000d8 <tcpSendDataTime>
    784c:	9fff806f          	j	24a <__riscv_restore_4>
    7850:	5579                	li	a0,-2
    7852:	bfed                	j	784c <tcp_send_empty_ack+0x6c>

00007854 <tcp_output>:
tcp_output():
    7854:	9201a783          	lw	a5,-1760(gp) # 20000140 <tcp_input_pcb>
    7858:	36a78663          	beq	a5,a0,7bc4 <tcp_output+0x370>
    785c:	9a5f82ef          	jal	t0,200 <__riscv_save_12>
    7860:	06455783          	lhu	a5,100(a0)
    7864:	05a55983          	lhu	s3,90(a0)
    7868:	1141                	addi	sp,sp,-16
    786a:	0137f363          	bgeu	a5,s3,7870 <tcp_output+0x1c>
    786e:	89be                	mv	s3,a5
    7870:	02654783          	lbu	a5,38(a0)
    7874:	09c2                	slli	s3,s3,0x10
    7876:	842a                	mv	s0,a0
    7878:	8b89                	andi	a5,a5,2
    787a:	0109d993          	srli	s3,s3,0x10
    787e:	5d64                	lw	s1,124(a0)
    7880:	cb9d                	beqz	a5,78b6 <tcp_output+0x62>
    7882:	e499                	bnez	s1,7890 <tcp_output+0x3c>
    7884:	8522                	mv	a0,s0
    7886:	f5bff0ef          	jal	ra,77e0 <tcp_send_empty_ack>
    788a:	0141                	addi	sp,sp,16
    788c:	9b1f806f          	j	23c <__riscv_restore_12>
    7890:	4898                	lw	a4,16(s1)
    7892:	3348                	lbu	a0,5(a4)
    7894:	235c                	lbu	a5,4(a4)
    7896:	0522                	slli	a0,a0,0x8
    7898:	8d5d                	or	a0,a0,a5
    789a:	237c                	lbu	a5,6(a4)
    789c:	07c2                	slli	a5,a5,0x10
    789e:	8fc9                	or	a5,a5,a0
    78a0:	3368                	lbu	a0,7(a4)
    78a2:	0562                	slli	a0,a0,0x18
    78a4:	8d5d                	or	a0,a0,a5
    78a6:	b4efc0ef          	jal	ra,3bf4 <ntohl>
    78aa:	24de                	lhu	a5,12(s1)
    78ac:	4878                	lw	a4,84(s0)
    78ae:	8f99                	sub	a5,a5,a4
    78b0:	953e                	add	a0,a0,a5
    78b2:	fca9e9e3          	bltu	s3,a0,7884 <tcp_output+0x30>
    78b6:	08042903          	lw	s2,128(s0)
    78ba:	08091563          	bnez	s2,7944 <tcp_output+0xf0>
    78be:	20006a37          	lui	s4,0x20006
    78c2:	4b09                	li	s6,2
    78c4:	250a0a13          	addi	s4,s4,592 # 20006250 <WCHCfg>
    78c8:	02040bb7          	lui	s7,0x2040
    78cc:	00440a93          	addi	s5,s0,4
    78d0:	c0ad                	beqz	s1,7932 <tcp_output+0xde>
    78d2:	4898                	lw	a4,16(s1)
    78d4:	3348                	lbu	a0,5(a4)
    78d6:	235c                	lbu	a5,4(a4)
    78d8:	0522                	slli	a0,a0,0x8
    78da:	8d5d                	or	a0,a0,a5
    78dc:	237c                	lbu	a5,6(a4)
    78de:	07c2                	slli	a5,a5,0x10
    78e0:	8fc9                	or	a5,a5,a0
    78e2:	3368                	lbu	a0,7(a4)
    78e4:	0562                	slli	a0,a0,0x18
    78e6:	8d5d                	or	a0,a0,a5
    78e8:	b0cfc0ef          	jal	ra,3bf4 <ntohl>
    78ec:	24de                	lhu	a5,12(s1)
    78ee:	4878                	lw	a4,84(s0)
    78f0:	8f99                	sub	a5,a5,a4
    78f2:	953e                	add	a0,a0,a5
    78f4:	04a9fc63          	bgeu	s3,a0,794c <tcp_output+0xf8>
    78f8:	0b044783          	lbu	a5,176(s0)
    78fc:	eb9d                	bnez	a5,7932 <tcp_output+0xde>
    78fe:	4898                	lw	a4,16(s1)
    7900:	3348                	lbu	a0,5(a4)
    7902:	235c                	lbu	a5,4(a4)
    7904:	0522                	slli	a0,a0,0x8
    7906:	8d5d                	or	a0,a0,a5
    7908:	237c                	lbu	a5,6(a4)
    790a:	07c2                	slli	a5,a5,0x10
    790c:	8fc9                	or	a5,a5,a0
    790e:	3368                	lbu	a0,7(a4)
    7910:	0562                	slli	a0,a0,0x18
    7912:	8d5d                	or	a0,a0,a5
    7914:	ae0fc0ef          	jal	ra,3bf4 <ntohl>
    7918:	24de                	lhu	a5,12(s1)
    791a:	4878                	lw	a4,84(s0)
    791c:	8f99                	sub	a5,a5,a4
    791e:	953e                	add	a0,a0,a5
    7920:	06445783          	lhu	a5,100(s0)
    7924:	00a7f763          	bgeu	a5,a0,7932 <tcp_output+0xde>
    7928:	4785                	li	a5,1
    792a:	0a042623          	sw	zero,172(s0)
    792e:	0af40823          	sb	a5,176(s0)
    7932:	02644783          	lbu	a5,38(s0)
    7936:	4501                	li	a0,0
    7938:	07f7f793          	andi	a5,a5,127
    793c:	02f40323          	sb	a5,38(s0)
    7940:	b7a9                	j	788a <tcp_output+0x36>
    7942:	893e                	mv	s2,a5
    7944:	00092783          	lw	a5,0(s2)
    7948:	ffed                	bnez	a5,7942 <tcp_output+0xee>
    794a:	bf95                	j	78be <tcp_output+0x6a>
    794c:	08042783          	lw	a5,128(s0)
    7950:	c395                	beqz	a5,7974 <tcp_output+0x120>
    7952:	02644783          	lbu	a5,38(s0)
    7956:	0447f713          	andi	a4,a5,68
    795a:	ef09                	bnez	a4,7974 <tcp_output+0x120>
    795c:	5c78                	lw	a4,124(s0)
    795e:	cb01                	beqz	a4,796e <tcp_output+0x11a>
    7960:	4314                	lw	a3,0(a4)
    7962:	ea89                	bnez	a3,7974 <tcp_output+0x120>
    7964:	2756                	lhu	a3,12(a4)
    7966:	04045703          	lhu	a4,64(s0)
    796a:	00e6f563          	bgeu	a3,a4,7974 <tcp_output+0x120>
    796e:	0a07f793          	andi	a5,a5,160
    7972:	d3d9                	beqz	a5,78f8 <tcp_output+0xa4>
    7974:	409c                	lw	a5,0(s1)
    7976:	dc7c                	sw	a5,124(s0)
    7978:	481c                	lw	a5,16(s0)
    797a:	03678963          	beq	a5,s6,79ac <tcp_output+0x158>
    797e:	489c                	lw	a5,16(s1)
    7980:	00d7cd83          	lbu	s11,13(a5)
    7984:	27c8                	lbu	a0,12(a5)
    7986:	0da2                	slli	s11,s11,0x8
    7988:	00adedb3          	or	s11,s11,a0
    798c:	4541                	li	a0,16
    798e:	a26fc0ef          	jal	ra,3bb4 <htons>
    7992:	489c                	lw	a5,16(s1)
    7994:	00ade533          	or	a0,s11,a0
    7998:	0542                	slli	a0,a0,0x10
    799a:	8141                	srli	a0,a0,0x10
    799c:	a7c8                	sb	a0,12(a5)
    799e:	8121                	srli	a0,a0,0x8
    79a0:	b7c8                	sb	a0,13(a5)
    79a2:	02644783          	lbu	a5,38(s0)
    79a6:	9bf1                	andi	a5,a5,-4
    79a8:	02f40323          	sb	a5,38(s0)
    79ac:	5408                	lw	a0,40(s0)
    79ae:	0104ad83          	lw	s11,16(s1)
    79b2:	a1efc0ef          	jal	ra,3bd0 <htonl>
    79b6:	00855793          	srli	a5,a0,0x8
    79ba:	00ad8423          	sb	a0,8(s11)
    79be:	00fd84a3          	sb	a5,9(s11)
    79c2:	01055793          	srli	a5,a0,0x10
    79c6:	8161                	srli	a0,a0,0x18
    79c8:	00ad85a3          	sb	a0,11(s11)
    79cc:	346a                	lhu	a0,46(s0)
    79ce:	00fd8523          	sb	a5,10(s11)
    79d2:	0104ad83          	lw	s11,16(s1)
    79d6:	9defc0ef          	jal	ra,3bb4 <htons>
    79da:	347a                	lhu	a4,46(s0)
    79dc:	541c                	lw	a5,40(s0)
    79de:	00ad8723          	sb	a0,14(s11)
    79e2:	8121                	srli	a0,a0,0x8
    79e4:	00ad87a3          	sb	a0,15(s11)
    79e8:	97ba                	add	a5,a5,a4
    79ea:	b87a                	sh	a4,54(s0)
    79ec:	d81c                	sw	a5,48(s0)
    79ee:	24fc                	lbu	a5,14(s1)
    79f0:	8b85                	andi	a5,a5,1
    79f2:	cb99                	beqz	a5,7a08 <tcp_output+0x1b4>
    79f4:	004a2503          	lw	a0,4(s4)
    79f8:	0104ad83          	lw	s11,16(s1)
    79fc:	00abe533          	or	a0,s7,a0
    7a00:	9d0fc0ef          	jal	ra,3bd0 <htonl>
    7a04:	00adaa23          	sw	a0,20(s11)
    7a08:	401c                	lw	a5,0(s0)
    7a0a:	e799                	bnez	a5,7a18 <tcp_output+0x1c4>
    7a0c:	8556                	mv	a0,s5
    7a0e:	9f2fc0ef          	jal	ra,3c00 <ip_route>
    7a12:	c951                	beqz	a0,7aa6 <tcp_output+0x252>
    7a14:	415c                	lw	a5,4(a0)
    7a16:	c01c                	sw	a5,0(s0)
    7a18:	03e41703          	lh	a4,62(s0)
    7a1c:	57fd                	li	a5,-1
    7a1e:	00f71463          	bne	a4,a5,7a26 <tcp_output+0x1d2>
    7a22:	02041f23          	sh	zero,62(s0)
    7a26:	407c                	lw	a5,68(s0)
    7a28:	e395                	bnez	a5,7a4c <tcp_output+0x1f8>
    7a2a:	8f81a783          	lw	a5,-1800(gp) # 20000118 <tcp_ticks>
    7a2e:	4898                	lw	a4,16(s1)
    7a30:	c07c                	sw	a5,68(s0)
    7a32:	3348                	lbu	a0,5(a4)
    7a34:	235c                	lbu	a5,4(a4)
    7a36:	0522                	slli	a0,a0,0x8
    7a38:	8d5d                	or	a0,a0,a5
    7a3a:	237c                	lbu	a5,6(a4)
    7a3c:	07c2                	slli	a5,a5,0x10
    7a3e:	8fc9                	or	a5,a5,a0
    7a40:	3368                	lbu	a0,7(a4)
    7a42:	0562                	slli	a0,a0,0x18
    7a44:	8d5d                	or	a0,a0,a5
    7a46:	9aefc0ef          	jal	ra,3bf4 <ntohl>
    7a4a:	c428                	sw	a0,72(s0)
    7a4c:	40c8                	lw	a0,4(s1)
    7a4e:	0104ad83          	lw	s11,16(s1)
    7a52:	4699                	li	a3,6
    7a54:	4158                	lw	a4,4(a0)
    7a56:	01b52223          	sw	s11,4(a0)
    7a5a:	8656                	mv	a2,s5
    7a5c:	40ed8733          	sub	a4,s11,a4
    7a60:	01071793          	slli	a5,a4,0x10
    7a64:	253a                	lhu	a4,10(a0)
    7a66:	83c1                	srli	a5,a5,0x10
    7a68:	85a2                	mv	a1,s0
    7a6a:	8f1d                	sub	a4,a4,a5
    7a6c:	a53a                	sh	a4,10(a0)
    7a6e:	251a                	lhu	a4,8(a0)
    7a70:	8f1d                	sub	a4,a4,a5
    7a72:	0742                	slli	a4,a4,0x10
    7a74:	8341                	srli	a4,a4,0x10
    7a76:	a51a                	sh	a4,8(a0)
    7a78:	000d8823          	sb	zero,16(s11)
    7a7c:	000d88a3          	sb	zero,17(s11)
    7a80:	491000ef          	jal	ra,8710 <inet_chksum_pseudo>
    7a84:	00ad8823          	sb	a0,16(s11)
    7a88:	8121                	srli	a0,a0,0x8
    7a8a:	00ad88a3          	sb	a0,17(s11)
    7a8e:	2438                	lbu	a4,10(s0)
    7a90:	3434                	lbu	a3,11(s0)
    7a92:	40c8                	lw	a0,4(s1)
    7a94:	4799                	li	a5,6
    7a96:	8656                	mv	a2,s5
    7a98:	85a2                	mv	a1,s0
    7a9a:	da6fc0ef          	jal	ra,4040 <ip_output>
    7a9e:	86c1a783          	lw	a5,-1940(gp) # 2000008c <LocalTime>
    7aa2:	8af1ac23          	sw	a5,-1864(gp) # 200000d8 <tcpSendDataTime>
    7aa6:	4898                	lw	a4,16(s1)
    7aa8:	3348                	lbu	a0,5(a4)
    7aaa:	235c                	lbu	a5,4(a4)
    7aac:	0522                	slli	a0,a0,0x8
    7aae:	8d5d                	or	a0,a0,a5
    7ab0:	237c                	lbu	a5,6(a4)
    7ab2:	07c2                	slli	a5,a5,0x10
    7ab4:	8fc9                	or	a5,a5,a0
    7ab6:	3368                	lbu	a0,7(a4)
    7ab8:	0562                	slli	a0,a0,0x18
    7aba:	8d5d                	or	a0,a0,a5
    7abc:	938fc0ef          	jal	ra,3bf4 <ntohl>
    7ac0:	24da                	lhu	a4,12(s1)
    7ac2:	489c                	lw	a5,16(s1)
    7ac4:	8daa                	mv	s11,a0
    7ac6:	c63a                	sw	a4,12(sp)
    7ac8:	27c8                	lbu	a0,12(a5)
    7aca:	37dc                	lbu	a5,13(a5)
    7acc:	07a2                	slli	a5,a5,0x8
    7ace:	8d5d                	or	a0,a0,a5
    7ad0:	8f2fc0ef          	jal	ra,3bc2 <ntohs>
    7ad4:	4732                	lw	a4,12(sp)
    7ad6:	890d                	andi	a0,a0,3
    7ad8:	00a03533          	snez	a0,a0
    7adc:	503c                	lw	a5,96(s0)
    7ade:	953a                	add	a0,a0,a4
    7ae0:	956e                	add	a0,a0,s11
    7ae2:	8f89                	sub	a5,a5,a0
    7ae4:	0007d363          	bgez	a5,7aea <tcp_output+0x296>
    7ae8:	d028                	sw	a0,96(s0)
    7aea:	489c                	lw	a5,16(s1)
    7aec:	00c4dd83          	lhu	s11,12(s1)
    7af0:	27c8                	lbu	a0,12(a5)
    7af2:	37dc                	lbu	a5,13(a5)
    7af4:	07a2                	slli	a5,a5,0x8
    7af6:	8d5d                	or	a0,a0,a5
    7af8:	8cafc0ef          	jal	ra,3bc2 <ntohs>
    7afc:	890d                	andi	a0,a0,3
    7afe:	00a03533          	snez	a0,a0
    7b02:	956e                	add	a0,a0,s11
    7b04:	cd45                	beqz	a0,7bbc <tcp_output+0x368>
    7b06:	08042783          	lw	a5,128(s0)
    7b0a:	0004a023          	sw	zero,0(s1)
    7b0e:	e789                	bnez	a5,7b18 <tcp_output+0x2c4>
    7b10:	08942023          	sw	s1,128(s0)
    7b14:	8926                	mv	s2,s1
    7b16:	a899                	j	7b6c <tcp_output+0x318>
    7b18:	4898                	lw	a4,16(s1)
    7b1a:	3348                	lbu	a0,5(a4)
    7b1c:	235c                	lbu	a5,4(a4)
    7b1e:	0522                	slli	a0,a0,0x8
    7b20:	8d5d                	or	a0,a0,a5
    7b22:	237c                	lbu	a5,6(a4)
    7b24:	07c2                	slli	a5,a5,0x10
    7b26:	8fc9                	or	a5,a5,a0
    7b28:	3368                	lbu	a0,7(a4)
    7b2a:	0562                	slli	a0,a0,0x18
    7b2c:	8d5d                	or	a0,a0,a5
    7b2e:	8c6fc0ef          	jal	ra,3bf4 <ntohl>
    7b32:	01092703          	lw	a4,16(s2)
    7b36:	8daa                	mv	s11,a0
    7b38:	3348                	lbu	a0,5(a4)
    7b3a:	235c                	lbu	a5,4(a4)
    7b3c:	0522                	slli	a0,a0,0x8
    7b3e:	8d5d                	or	a0,a0,a5
    7b40:	237c                	lbu	a5,6(a4)
    7b42:	07c2                	slli	a5,a5,0x10
    7b44:	8fc9                	or	a5,a5,a0
    7b46:	3368                	lbu	a0,7(a4)
    7b48:	0562                	slli	a0,a0,0x18
    7b4a:	8d5d                	or	a0,a0,a5
    7b4c:	8a8fc0ef          	jal	ra,3bf4 <ntohl>
    7b50:	40ad8533          	sub	a0,s11,a0
    7b54:	06055163          	bgez	a0,7bb6 <tcp_output+0x362>
    7b58:	08040d93          	addi	s11,s0,128
    7b5c:	000da783          	lw	a5,0(s11)
    7b60:	eb81                	bnez	a5,7b70 <tcp_output+0x31c>
    7b62:	000da783          	lw	a5,0(s11)
    7b66:	c09c                	sw	a5,0(s1)
    7b68:	009da023          	sw	s1,0(s11)
    7b6c:	5c64                	lw	s1,124(s0)
    7b6e:	b38d                	j	78d0 <tcp_output+0x7c>
    7b70:	4b98                	lw	a4,16(a5)
    7b72:	3348                	lbu	a0,5(a4)
    7b74:	235c                	lbu	a5,4(a4)
    7b76:	0522                	slli	a0,a0,0x8
    7b78:	8d5d                	or	a0,a0,a5
    7b7a:	237c                	lbu	a5,6(a4)
    7b7c:	07c2                	slli	a5,a5,0x10
    7b7e:	8fc9                	or	a5,a5,a0
    7b80:	3368                	lbu	a0,7(a4)
    7b82:	0562                	slli	a0,a0,0x18
    7b84:	8d5d                	or	a0,a0,a5
    7b86:	86efc0ef          	jal	ra,3bf4 <ntohl>
    7b8a:	4898                	lw	a4,16(s1)
    7b8c:	c62a                	sw	a0,12(sp)
    7b8e:	3348                	lbu	a0,5(a4)
    7b90:	235c                	lbu	a5,4(a4)
    7b92:	0522                	slli	a0,a0,0x8
    7b94:	8d5d                	or	a0,a0,a5
    7b96:	237c                	lbu	a5,6(a4)
    7b98:	07c2                	slli	a5,a5,0x10
    7b9a:	8fc9                	or	a5,a5,a0
    7b9c:	3368                	lbu	a0,7(a4)
    7b9e:	0562                	slli	a0,a0,0x18
    7ba0:	8d5d                	or	a0,a0,a5
    7ba2:	852fc0ef          	jal	ra,3bf4 <ntohl>
    7ba6:	46b2                	lw	a3,12(sp)
    7ba8:	40a68533          	sub	a0,a3,a0
    7bac:	fa055be3          	bgez	a0,7b62 <tcp_output+0x30e>
    7bb0:	000dad83          	lw	s11,0(s11)
    7bb4:	b765                	j	7b5c <tcp_output+0x308>
    7bb6:	00992023          	sw	s1,0(s2)
    7bba:	bfa9                	j	7b14 <tcp_output+0x2c0>
    7bbc:	8526                	mv	a0,s1
    7bbe:	9fffd0ef          	jal	ra,55bc <tcp_seg_free>
    7bc2:	b76d                	j	7b6c <tcp_output+0x318>
    7bc4:	4501                	li	a0,0
    7bc6:	8082                	ret

00007bc8 <tcp_rst>:
tcp_rst():
    7bc8:	e4ef82ef          	jal	t0,216 <__riscv_save_4>
    7bcc:	1141                	addi	sp,sp,-16
    7bce:	8aaa                	mv	s5,a0
    7bd0:	84ae                	mv	s1,a1
    7bd2:	89b2                	mv	s3,a2
    7bd4:	45d1                	li	a1,20
    7bd6:	4601                	li	a2,0
    7bd8:	4505                	li	a0,1
    7bda:	8a36                	mv	s4,a3
    7bdc:	c63a                	sw	a4,12(sp)
    7bde:	8b3e                	mv	s6,a5
    7be0:	bfefd0ef          	jal	ra,4fde <pbuf_alloc>
    7be4:	0e050363          	beqz	a0,7cca <tcp_rst+0x102>
    7be8:	4732                	lw	a4,12(sp)
    7bea:	4140                	lw	s0,4(a0)
    7bec:	892a                	mv	s2,a0
    7bee:	853a                	mv	a0,a4
    7bf0:	fc5fb0ef          	jal	ra,3bb4 <htons>
    7bf4:	a008                	sb	a0,0(s0)
    7bf6:	8121                	srli	a0,a0,0x8
    7bf8:	b008                	sb	a0,1(s0)
    7bfa:	855a                	mv	a0,s6
    7bfc:	fb9fb0ef          	jal	ra,3bb4 <htons>
    7c00:	a028                	sb	a0,2(s0)
    7c02:	8121                	srli	a0,a0,0x8
    7c04:	b028                	sb	a0,3(s0)
    7c06:	8556                	mv	a0,s5
    7c08:	fc9fb0ef          	jal	ra,3bd0 <htonl>
    7c0c:	00855793          	srli	a5,a0,0x8
    7c10:	a048                	sb	a0,4(s0)
    7c12:	b05c                	sb	a5,5(s0)
    7c14:	01055793          	srli	a5,a0,0x10
    7c18:	8161                	srli	a0,a0,0x18
    7c1a:	a07c                	sb	a5,6(s0)
    7c1c:	b068                	sb	a0,7(s0)
    7c1e:	8526                	mv	a0,s1
    7c20:	fb1fb0ef          	jal	ra,3bd0 <htonl>
    7c24:	00855793          	srli	a5,a0,0x8
    7c28:	a408                	sb	a0,8(s0)
    7c2a:	b41c                	sb	a5,9(s0)
    7c2c:	3444                	lbu	s1,13(s0)
    7c2e:	01055793          	srli	a5,a0,0x10
    7c32:	8161                	srli	a0,a0,0x18
    7c34:	b428                	sb	a0,11(s0)
    7c36:	2448                	lbu	a0,12(s0)
    7c38:	04a2                	slli	s1,s1,0x8
    7c3a:	a43c                	sb	a5,10(s0)
    7c3c:	8cc9                	or	s1,s1,a0
    7c3e:	6541                	lui	a0,0x10
    7c40:	fc050513          	addi	a0,a0,-64 # ffc0 <_data_lma+0x436c>
    7c44:	f71fb0ef          	jal	ra,3bb4 <htons>
    7c48:	8ce9                	and	s1,s1,a0
    7c4a:	4551                	li	a0,20
    7c4c:	f69fb0ef          	jal	ra,3bb4 <htons>
    7c50:	8d45                	or	a0,a0,s1
    7c52:	0542                	slli	a0,a0,0x10
    7c54:	8141                	srli	a0,a0,0x10
    7c56:	200067b7          	lui	a5,0x20006
    7c5a:	a448                	sb	a0,12(s0)
    7c5c:	8121                	srli	a0,a0,0x8
    7c5e:	b448                	sb	a0,13(s0)
    7c60:	2547d503          	lhu	a0,596(a5) # 20006254 <WCHCfg+0x4>
    7c64:	f51fb0ef          	jal	ra,3bb4 <htons>
    7c68:	a468                	sb	a0,14(s0)
    7c6a:	345c                	lbu	a5,13(s0)
    7c6c:	8121                	srli	a0,a0,0x8
    7c6e:	b468                	sb	a0,15(s0)
    7c70:	2448                	lbu	a0,12(s0)
    7c72:	07a2                	slli	a5,a5,0x8
    7c74:	00040923          	sb	zero,18(s0)
    7c78:	8d5d                	or	a0,a0,a5
    7c7a:	000409a3          	sb	zero,19(s0)
    7c7e:	f45fb0ef          	jal	ra,3bc2 <ntohs>
    7c82:	6795                	lui	a5,0x5
    7c84:	03f57513          	andi	a0,a0,63
    7c88:	8d5d                	or	a0,a0,a5
    7c8a:	f2bfb0ef          	jal	ra,3bb4 <htons>
    7c8e:	00895703          	lhu	a4,8(s2)
    7c92:	a448                	sb	a0,12(s0)
    7c94:	8121                	srli	a0,a0,0x8
    7c96:	b448                	sb	a0,13(s0)
    7c98:	4699                	li	a3,6
    7c9a:	8652                	mv	a2,s4
    7c9c:	85ce                	mv	a1,s3
    7c9e:	00040823          	sb	zero,16(s0)
    7ca2:	000408a3          	sb	zero,17(s0)
    7ca6:	854a                	mv	a0,s2
    7ca8:	269000ef          	jal	ra,8710 <inet_chksum_pseudo>
    7cac:	a808                	sb	a0,16(s0)
    7cae:	8121                	srli	a0,a0,0x8
    7cb0:	b808                	sb	a0,17(s0)
    7cb2:	4799                	li	a5,6
    7cb4:	4701                	li	a4,0
    7cb6:	08000693          	li	a3,128
    7cba:	8652                	mv	a2,s4
    7cbc:	85ce                	mv	a1,s3
    7cbe:	854a                	mv	a0,s2
    7cc0:	b80fc0ef          	jal	ra,4040 <ip_output>
    7cc4:	854a                	mv	a0,s2
    7cc6:	acafd0ef          	jal	ra,4f90 <pbuf_free>
    7cca:	0141                	addi	sp,sp,16
    7ccc:	d7ef806f          	j	24a <__riscv_restore_4>

00007cd0 <tcp_rexmit_rto>:
tcp_rexmit_rto():
    7cd0:	08052783          	lw	a5,128(a0)
    7cd4:	cb85                	beqz	a5,7d04 <tcp_rexmit_rto+0x34>
    7cd6:	d5af82ef          	jal	t0,230 <__riscv_save_0>
    7cda:	873e                	mv	a4,a5
    7cdc:	4314                	lw	a3,0(a4)
    7cde:	e28d                	bnez	a3,7d00 <tcp_rexmit_rto+0x30>
    7ce0:	5d74                	lw	a3,124(a0)
    7ce2:	c314                	sw	a3,0(a4)
    7ce4:	dd7c                	sw	a5,124(a0)
    7ce6:	05254783          	lbu	a5,82(a0)
    7cea:	08052023          	sw	zero,128(a0)
    7cee:	04052223          	sw	zero,68(a0)
    7cf2:	0785                	addi	a5,a5,1
    7cf4:	04f50923          	sb	a5,82(a0)
    7cf8:	b5dff0ef          	jal	ra,7854 <tcp_output>
    7cfc:	d58f806f          	j	254 <__riscv_restore_0>
    7d00:	8736                	mv	a4,a3
    7d02:	bfe9                	j	7cdc <tcp_rexmit_rto+0xc>
    7d04:	8082                	ret

00007d06 <tcp_rexmit>:
tcp_rexmit():
    7d06:	d10f82ef          	jal	t0,216 <__riscv_save_4>
    7d0a:	08052483          	lw	s1,128(a0)
    7d0e:	c495                	beqz	s1,7d3a <tcp_rexmit+0x34>
    7d10:	409c                	lw	a5,0(s1)
    7d12:	842a                	mv	s0,a0
    7d14:	07c50913          	addi	s2,a0,124
    7d18:	08f52023          	sw	a5,128(a0)
    7d1c:	00092783          	lw	a5,0(s2)
    7d20:	ef99                	bnez	a5,7d3e <tcp_rexmit+0x38>
    7d22:	00092783          	lw	a5,0(s2)
    7d26:	c09c                	sw	a5,0(s1)
    7d28:	00992023          	sw	s1,0(s2)
    7d2c:	05244783          	lbu	a5,82(s0)
    7d30:	04042223          	sw	zero,68(s0)
    7d34:	0785                	addi	a5,a5,1
    7d36:	04f40923          	sb	a5,82(s0)
    7d3a:	d10f806f          	j	24a <__riscv_restore_4>
    7d3e:	4b98                	lw	a4,16(a5)
    7d40:	3348                	lbu	a0,5(a4)
    7d42:	235c                	lbu	a5,4(a4)
    7d44:	0522                	slli	a0,a0,0x8
    7d46:	8d5d                	or	a0,a0,a5
    7d48:	237c                	lbu	a5,6(a4)
    7d4a:	07c2                	slli	a5,a5,0x10
    7d4c:	8fc9                	or	a5,a5,a0
    7d4e:	3368                	lbu	a0,7(a4)
    7d50:	0562                	slli	a0,a0,0x18
    7d52:	8d5d                	or	a0,a0,a5
    7d54:	ea1fb0ef          	jal	ra,3bf4 <ntohl>
    7d58:	4898                	lw	a4,16(s1)
    7d5a:	89aa                	mv	s3,a0
    7d5c:	3348                	lbu	a0,5(a4)
    7d5e:	235c                	lbu	a5,4(a4)
    7d60:	0522                	slli	a0,a0,0x8
    7d62:	8d5d                	or	a0,a0,a5
    7d64:	237c                	lbu	a5,6(a4)
    7d66:	07c2                	slli	a5,a5,0x10
    7d68:	8fc9                	or	a5,a5,a0
    7d6a:	3368                	lbu	a0,7(a4)
    7d6c:	0562                	slli	a0,a0,0x18
    7d6e:	8d5d                	or	a0,a0,a5
    7d70:	e85fb0ef          	jal	ra,3bf4 <ntohl>
    7d74:	40a98533          	sub	a0,s3,a0
    7d78:	fa0555e3          	bgez	a0,7d22 <tcp_rexmit+0x1c>
    7d7c:	00092903          	lw	s2,0(s2)
    7d80:	bf71                	j	7d1c <tcp_rexmit+0x16>

00007d82 <tcp_rexmit_fast>:
tcp_rexmit_fast():
    7d82:	08052783          	lw	a5,128(a0)
    7d86:	cfb1                	beqz	a5,7de2 <tcp_rexmit_fast+0x60>
    7d88:	ca8f82ef          	jal	t0,230 <__riscv_save_0>
    7d8c:	02654783          	lbu	a5,38(a0)
    7d90:	842a                	mv	s0,a0
    7d92:	8b91                	andi	a5,a5,4
    7d94:	e7a9                	bnez	a5,7dde <tcp_rexmit_fast+0x5c>
    7d96:	f71ff0ef          	jal	ra,7d06 <tcp_rexmit>
    7d9a:	05a45683          	lhu	a3,90(s0)
    7d9e:	06445783          	lhu	a5,100(s0)
    7da2:	0016d713          	srli	a4,a3,0x1
    7da6:	00d7f463          	bgeu	a5,a3,7dae <tcp_rexmit_fast+0x2c>
    7daa:	0017d713          	srli	a4,a5,0x1
    7dae:	04045783          	lhu	a5,64(s0)
    7db2:	04e41e23          	sh	a4,92(s0)
    7db6:	00179693          	slli	a3,a5,0x1
    7dba:	00d75463          	bge	a4,a3,7dc2 <tcp_rexmit_fast+0x40>
    7dbe:	04d41e23          	sh	a3,92(s0)
    7dc2:	470d                	li	a4,3
    7dc4:	02e787b3          	mul	a5,a5,a4
    7dc8:	05c45703          	lhu	a4,92(s0)
    7dcc:	97ba                	add	a5,a5,a4
    7dce:	04f41d23          	sh	a5,90(s0)
    7dd2:	02644783          	lbu	a5,38(s0)
    7dd6:	0047e793          	ori	a5,a5,4
    7dda:	02f40323          	sb	a5,38(s0)
    7dde:	c76f806f          	j	254 <__riscv_restore_0>
    7de2:	8082                	ret

00007de4 <tcp_keepalive>:
tcp_keepalive():
    7de4:	c32f82ef          	jal	t0,216 <__riscv_save_4>
    7de8:	84aa                	mv	s1,a0
    7dea:	4601                	li	a2,0
    7dec:	45d1                	li	a1,20
    7dee:	4505                	li	a0,1
    7df0:	9eefd0ef          	jal	ra,4fde <pbuf_alloc>
    7df4:	c529                	beqz	a0,7e3e <tcp_keepalive+0x5a>
    7df6:	842a                	mv	s0,a0
    7df8:	50a8                	lw	a0,96(s1)
    7dfa:	00448913          	addi	s2,s1,4
    7dfe:	157d                	addi	a0,a0,-1
    7e00:	dd1fb0ef          	jal	ra,3bd0 <htonl>
    7e04:	404c                	lw	a1,4(s0)
    7e06:	862a                	mv	a2,a0
    7e08:	8526                	mv	a0,s1
    7e0a:	c74ff0ef          	jal	ra,727e <tcp_output_set_header.isra.0.constprop.1>
    7e0e:	241a                	lhu	a4,8(s0)
    7e10:	89aa                	mv	s3,a0
    7e12:	4699                	li	a3,6
    7e14:	864a                	mv	a2,s2
    7e16:	85a6                	mv	a1,s1
    7e18:	8522                	mv	a0,s0
    7e1a:	0f7000ef          	jal	ra,8710 <inet_chksum_pseudo>
    7e1e:	00a98823          	sb	a0,16(s3)
    7e22:	8121                	srli	a0,a0,0x8
    7e24:	00a988a3          	sb	a0,17(s3)
    7e28:	34b4                	lbu	a3,11(s1)
    7e2a:	4799                	li	a5,6
    7e2c:	4701                	li	a4,0
    7e2e:	864a                	mv	a2,s2
    7e30:	85a6                	mv	a1,s1
    7e32:	8522                	mv	a0,s0
    7e34:	a0cfc0ef          	jal	ra,4040 <ip_output>
    7e38:	8522                	mv	a0,s0
    7e3a:	956fd0ef          	jal	ra,4f90 <pbuf_free>
    7e3e:	c0cf806f          	j	24a <__riscv_restore_4>

00007e42 <tcp_zero_window_probe>:
tcp_zero_window_probe():
    7e42:	bd4f82ef          	jal	t0,216 <__riscv_save_4>
    7e46:	08052403          	lw	s0,128(a0)
    7e4a:	e019                	bnez	s0,7e50 <tcp_zero_window_probe+0xe>
    7e4c:	5d60                	lw	s0,124(a0)
    7e4e:	c45d                	beqz	s0,7efc <tcp_zero_window_probe+0xba>
    7e50:	481c                	lw	a5,16(s0)
    7e52:	84aa                	mv	s1,a0
    7e54:	27c8                	lbu	a0,12(a5)
    7e56:	37dc                	lbu	a5,13(a5)
    7e58:	07a2                	slli	a5,a5,0x8
    7e5a:	8d5d                	or	a0,a0,a5
    7e5c:	d67fb0ef          	jal	ra,3bc2 <ntohs>
    7e60:	8905                	andi	a0,a0,1
    7e62:	cd59                	beqz	a0,7f00 <tcp_zero_window_probe+0xbe>
    7e64:	245e                	lhu	a5,12(s0)
    7e66:	efc9                	bnez	a5,7f00 <tcp_zero_window_probe+0xbe>
    7e68:	4a05                	li	s4,1
    7e6a:	45d1                	li	a1,20
    7e6c:	4601                	li	a2,0
    7e6e:	4505                	li	a0,1
    7e70:	96efd0ef          	jal	ra,4fde <pbuf_alloc>
    7e74:	892a                	mv	s2,a0
    7e76:	c159                	beqz	a0,7efc <tcp_zero_window_probe+0xba>
    7e78:	4818                	lw	a4,16(s0)
    7e7a:	414c                	lw	a1,4(a0)
    7e7c:	8526                	mv	a0,s1
    7e7e:	3350                	lbu	a2,5(a4)
    7e80:	235c                	lbu	a5,4(a4)
    7e82:	0622                	slli	a2,a2,0x8
    7e84:	8e5d                	or	a2,a2,a5
    7e86:	237c                	lbu	a5,6(a4)
    7e88:	07c2                	slli	a5,a5,0x10
    7e8a:	8fd1                	or	a5,a5,a2
    7e8c:	3370                	lbu	a2,7(a4)
    7e8e:	0662                	slli	a2,a2,0x18
    7e90:	8e5d                	or	a2,a2,a5
    7e92:	becff0ef          	jal	ra,727e <tcp_output_set_header.isra.0.constprop.1>
    7e96:	89aa                	mv	s3,a0
    7e98:	060a0763          	beqz	s4,7f06 <tcp_zero_window_probe+0xc4>
    7e9c:	3540                	lbu	s0,13(a0)
    7e9e:	255c                	lbu	a5,12(a0)
    7ea0:	6541                	lui	a0,0x10
    7ea2:	0422                	slli	s0,s0,0x8
    7ea4:	fc050513          	addi	a0,a0,-64 # ffc0 <_data_lma+0x436c>
    7ea8:	8c5d                	or	s0,s0,a5
    7eaa:	d0bfb0ef          	jal	ra,3bb4 <htons>
    7eae:	8c69                	and	s0,s0,a0
    7eb0:	4545                	li	a0,17
    7eb2:	d03fb0ef          	jal	ra,3bb4 <htons>
    7eb6:	8c49                	or	s0,s0,a0
    7eb8:	01041793          	slli	a5,s0,0x10
    7ebc:	83c1                	srli	a5,a5,0x10
    7ebe:	00f98623          	sb	a5,12(s3)
    7ec2:	83a1                	srli	a5,a5,0x8
    7ec4:	00f986a3          	sb	a5,13(s3)
    7ec8:	00895703          	lhu	a4,8(s2)
    7ecc:	00448413          	addi	s0,s1,4
    7ed0:	4699                	li	a3,6
    7ed2:	8622                	mv	a2,s0
    7ed4:	85a6                	mv	a1,s1
    7ed6:	854a                	mv	a0,s2
    7ed8:	039000ef          	jal	ra,8710 <inet_chksum_pseudo>
    7edc:	00a98823          	sb	a0,16(s3)
    7ee0:	8121                	srli	a0,a0,0x8
    7ee2:	00a988a3          	sb	a0,17(s3)
    7ee6:	34b4                	lbu	a3,11(s1)
    7ee8:	4799                	li	a5,6
    7eea:	4701                	li	a4,0
    7eec:	8622                	mv	a2,s0
    7eee:	85a6                	mv	a1,s1
    7ef0:	854a                	mv	a0,s2
    7ef2:	94efc0ef          	jal	ra,4040 <ip_output>
    7ef6:	854a                	mv	a0,s2
    7ef8:	898fd0ef          	jal	ra,4f90 <pbuf_free>
    7efc:	b4ef806f          	j	24a <__riscv_restore_4>
    7f00:	4a01                	li	s4,0
    7f02:	45d5                	li	a1,21
    7f04:	b7a5                	j	7e6c <tcp_zero_window_probe+0x2a>
    7f06:	4418                	lw	a4,8(s0)
    7f08:	00492783          	lw	a5,4(s2)
    7f0c:	00070703          	lb	a4,0(a4)
    7f10:	abd8                	sb	a4,20(a5)
    7f12:	bf5d                	j	7ec8 <tcp_zero_window_probe+0x86>

00007f14 <udp_input>:
udp_input():
    7f14:	aecf82ef          	jal	t0,200 <__riscv_save_12>
    7f18:	4140                	lw	s0,4(a0)
    7f1a:	2506                	lhu	s1,8(a0)
    7f1c:	892a                	mv	s2,a0
    7f1e:	301c                	lbu	a5,1(s0)
    7f20:	2008                	lbu	a0,0(s0)
    7f22:	1141                	addi	sp,sp,-16
    7f24:	07a2                	slli	a5,a5,0x8
    7f26:	8d5d                	or	a0,a0,a5
    7f28:	8a2e                	mv	s4,a1
    7f2a:	c99fb0ef          	jal	ra,3bc2 <ntohs>
    7f2e:	8121                	srli	a0,a0,0x8
    7f30:	893d                	andi	a0,a0,15
    7f32:	0509                	addi	a0,a0,2
    7f34:	050a                	slli	a0,a0,0x2
    7f36:	02a4c263          	blt	s1,a0,7f5a <udp_input+0x46>
    7f3a:	301c                	lbu	a5,1(s0)
    7f3c:	2008                	lbu	a0,0(s0)
    7f3e:	07a2                	slli	a5,a5,0x8
    7f40:	8d5d                	or	a0,a0,a5
    7f42:	c81fb0ef          	jal	ra,3bc2 <ntohs>
    7f46:	00655593          	srli	a1,a0,0x6
    7f4a:	03c5f593          	andi	a1,a1,60
    7f4e:	40b005b3          	neg	a1,a1
    7f52:	854a                	mv	a0,s2
    7f54:	fcffc0ef          	jal	ra,4f22 <pbuf_header>
    7f58:	c519                	beqz	a0,7f66 <udp_input+0x52>
    7f5a:	854a                	mv	a0,s2
    7f5c:	834fd0ef          	jal	ra,4f90 <pbuf_free>
    7f60:	0141                	addi	sp,sp,16
    7f62:	adaf806f          	j	23c <__riscv_restore_12>
    7f66:	00492a83          	lw	s5,4(s2)
    7f6a:	01040c13          	addi	s8,s0,16
    7f6e:	85d2                	mv	a1,s4
    7f70:	8562                	mv	a0,s8
    7f72:	904fc0ef          	jal	ra,4076 <ip_addr_isbroadcast>
    7f76:	001ac783          	lbu	a5,1(s5)
    7f7a:	8b2a                	mv	s6,a0
    7f7c:	000ac503          	lbu	a0,0(s5)
    7f80:	07a2                	slli	a5,a5,0x8
    7f82:	8d5d                	or	a0,a0,a5
    7f84:	c3ffb0ef          	jal	ra,3bc2 <ntohs>
    7f88:	003ac783          	lbu	a5,3(s5)
    7f8c:	8baa                	mv	s7,a0
    7f8e:	002ac503          	lbu	a0,2(s5)
    7f92:	07a2                	slli	a5,a5,0x8
    7f94:	8d5d                	or	a0,a0,a5
    7f96:	c2dfb0ef          	jal	ra,3bc2 <ntohs>
    7f9a:	04400793          	li	a5,68
    7f9e:	86aa                	mv	a3,a0
    7fa0:	06f51d63          	bne	a0,a5,801a <udp_input+0x106>
    7fa4:	04300793          	li	a5,67
    7fa8:	12fb9963          	bne	s7,a5,80da <udp_input+0x1c6>
    7fac:	020a2783          	lw	a5,32(s4)
    7fb0:	12078563          	beqz	a5,80da <udp_input+0x1c6>
    7fb4:	43c4                	lw	s1,4(a5)
    7fb6:	12048263          	beqz	s1,80da <udp_input+0x1c6>
    7fba:	40d4                	lw	a3,4(s1)
    7fbc:	ce89                	beqz	a3,7fd6 <udp_input+0xc2>
    7fbe:	3458                	lbu	a4,13(s0)
    7fc0:	245c                	lbu	a5,12(s0)
    7fc2:	0722                	slli	a4,a4,0x8
    7fc4:	8f5d                	or	a4,a4,a5
    7fc6:	247c                	lbu	a5,14(s0)
    7fc8:	07c2                	slli	a5,a5,0x10
    7fca:	8f5d                	or	a4,a4,a5
    7fcc:	347c                	lbu	a5,15(s0)
    7fce:	07e2                	slli	a5,a5,0x18
    7fd0:	8fd9                	or	a5,a5,a4
    7fd2:	10f69463          	bne	a3,a5,80da <udp_input+0x1c6>
    7fd6:	007ac783          	lbu	a5,7(s5)
    7fda:	006ac703          	lbu	a4,6(s5)
    7fde:	07a2                	slli	a5,a5,0x8
    7fe0:	8fd9                	or	a5,a5,a4
    7fe2:	cb99                	beqz	a5,7ff8 <udp_input+0xe4>
    7fe4:	00895703          	lhu	a4,8(s2)
    7fe8:	46c5                	li	a3,17
    7fea:	8662                	mv	a2,s8
    7fec:	00c40593          	addi	a1,s0,12
    7ff0:	854a                	mv	a0,s2
    7ff2:	71e000ef          	jal	ra,8710 <inet_chksum_pseudo>
    7ff6:	f135                	bnez	a0,7f5a <udp_input+0x46>
    7ff8:	55e1                	li	a1,-8
    7ffa:	854a                	mv	a0,s2
    7ffc:	f27fc0ef          	jal	ra,4f22 <pbuf_header>
    8000:	fd29                	bnez	a0,7f5a <udp_input+0x46>
    8002:	0e048c63          	beqz	s1,80fa <udp_input+0x1e6>
    8006:	4c9c                	lw	a5,24(s1)
    8008:	dba9                	beqz	a5,7f5a <udp_input+0x46>
    800a:	4cc8                	lw	a0,28(s1)
    800c:	875e                	mv	a4,s7
    800e:	00c40693          	addi	a3,s0,12
    8012:	864a                	mv	a2,s2
    8014:	85a6                	mv	a1,s1
    8016:	9782                	jalr	a5
    8018:	b7a1                	j	7f60 <udp_input+0x4c>
    801a:	92c1a483          	lw	s1,-1748(gp) # 2000014c <udp_pcbs>
    801e:	4d01                	li	s10,0
    8020:	4d81                	li	s11,0
    8022:	92c18c93          	addi	s9,gp,-1748 # 2000014c <udp_pcbs>
    8026:	76c00613          	li	a2,1900
    802a:	e489                	bnez	s1,8034 <udp_input+0x120>
    802c:	0a0d0763          	beqz	s10,80da <udp_input+0x1c6>
    8030:	84ea                	mv	s1,s10
    8032:	b755                	j	7fd6 <udp_input+0xc2>
    8034:	28be                	lhu	a5,18(s1)
    8036:	08d79c63          	bne	a5,a3,80ce <udp_input+0x1ba>
    803a:	4098                	lw	a4,0(s1)
    803c:	040b1563          	bnez	s6,8086 <udp_input+0x172>
    8040:	e339                	bnez	a4,8086 <udp_input+0x172>
    8042:	000d1663          	bnez	s10,804e <udp_input+0x13a>
    8046:	289c                	lbu	a5,16(s1)
    8048:	8b91                	andi	a5,a5,4
    804a:	e391                	bnez	a5,804e <udp_input+0x13a>
    804c:	8d26                	mv	s10,s1
    804e:	28de                	lhu	a5,20(s1)
    8050:	09779263          	bne	a5,s7,80d4 <udp_input+0x1c0>
    8054:	40cc                	lw	a1,4(s1)
    8056:	cd89                	beqz	a1,8070 <udp_input+0x15c>
    8058:	3458                	lbu	a4,13(s0)
    805a:	245c                	lbu	a5,12(s0)
    805c:	0722                	slli	a4,a4,0x8
    805e:	8f5d                	or	a4,a4,a5
    8060:	247c                	lbu	a5,14(s0)
    8062:	07c2                	slli	a5,a5,0x10
    8064:	8f5d                	or	a4,a4,a5
    8066:	347c                	lbu	a5,15(s0)
    8068:	07e2                	slli	a5,a5,0x18
    806a:	8fd9                	or	a5,a5,a4
    806c:	06f59463          	bne	a1,a5,80d4 <udp_input+0x1c0>
    8070:	f60d83e3          	beqz	s11,7fd6 <udp_input+0xc2>
    8074:	44dc                	lw	a5,12(s1)
    8076:	00fda623          	sw	a5,12(s11)
    807a:	000ca783          	lw	a5,0(s9)
    807e:	009ca023          	sw	s1,0(s9)
    8082:	c4dc                	sw	a5,12(s1)
    8084:	bf89                	j	7fd6 <udp_input+0xc2>
    8086:	381c                	lbu	a5,17(s0)
    8088:	01044983          	lbu	s3,16(s0)
    808c:	07a2                	slli	a5,a5,0x8
    808e:	0137e7b3          	or	a5,a5,s3
    8092:	01244983          	lbu	s3,18(s0)
    8096:	09c2                	slli	s3,s3,0x10
    8098:	00f9e7b3          	or	a5,s3,a5
    809c:	01344983          	lbu	s3,19(s0)
    80a0:	09e2                	slli	s3,s3,0x18
    80a2:	00f9e9b3          	or	s3,s3,a5
    80a6:	f8e98ee3          	beq	s3,a4,8042 <udp_input+0x12e>
    80aa:	f0000537          	lui	a0,0xf0000
    80ae:	c636                	sw	a3,12(sp)
    80b0:	b45fb0ef          	jal	ra,3bf4 <ntohl>
    80b4:	00a9f9b3          	and	s3,s3,a0
    80b8:	e0000537          	lui	a0,0xe0000
    80bc:	b39fb0ef          	jal	ra,3bf4 <ntohl>
    80c0:	46b2                	lw	a3,12(sp)
    80c2:	76c00613          	li	a2,1900
    80c6:	f6a98ee3          	beq	s3,a0,8042 <udp_input+0x12e>
    80ca:	f60b1ce3          	bnez	s6,8042 <udp_input+0x12e>
    80ce:	8da6                	mv	s11,s1
    80d0:	44c4                	lw	s1,12(s1)
    80d2:	bfa1                	j	802a <udp_input+0x116>
    80d4:	fec69de3          	bne	a3,a2,80ce <udp_input+0x1ba>
    80d8:	bdfd                	j	7fd6 <udp_input+0xc2>
    80da:	3818                	lbu	a4,17(s0)
    80dc:	281c                	lbu	a5,16(s0)
    80de:	0722                	slli	a4,a4,0x8
    80e0:	8f5d                	or	a4,a4,a5
    80e2:	283c                	lbu	a5,18(s0)
    80e4:	07c2                	slli	a5,a5,0x10
    80e6:	8f5d                	or	a4,a4,a5
    80e8:	383c                	lbu	a5,19(s0)
    80ea:	07e2                	slli	a5,a5,0x18
    80ec:	8fd9                	or	a5,a5,a4
    80ee:	004a2703          	lw	a4,4(s4)
    80f2:	e6f714e3          	bne	a4,a5,7f5a <udp_input+0x46>
    80f6:	4481                	li	s1,0
    80f8:	bdf9                	j	7fd6 <udp_input+0xc2>
    80fa:	e60b10e3          	bnez	s6,7f5a <udp_input+0x46>
    80fe:	381c                	lbu	a5,17(s0)
    8100:	2804                	lbu	s1,16(s0)
    8102:	f0000537          	lui	a0,0xf0000
    8106:	07a2                	slli	a5,a5,0x8
    8108:	8fc5                	or	a5,a5,s1
    810a:	2824                	lbu	s1,18(s0)
    810c:	04c2                	slli	s1,s1,0x10
    810e:	8fc5                	or	a5,a5,s1
    8110:	3824                	lbu	s1,19(s0)
    8112:	04e2                	slli	s1,s1,0x18
    8114:	8cdd                	or	s1,s1,a5
    8116:	adffb0ef          	jal	ra,3bf4 <ntohl>
    811a:	8ce9                	and	s1,s1,a0
    811c:	e0000537          	lui	a0,0xe0000
    8120:	ad5fb0ef          	jal	ra,3bf4 <ntohl>
    8124:	e2a48be3          	beq	s1,a0,7f5a <udp_input+0x46>
    8128:	301c                	lbu	a5,1(s0)
    812a:	2008                	lbu	a0,0(s0)
    812c:	07a2                	slli	a5,a5,0x8
    812e:	8d5d                	or	a0,a0,a5
    8130:	a93fb0ef          	jal	ra,3bc2 <ntohs>
    8134:	00855593          	srli	a1,a0,0x8
    8138:	89bd                	andi	a1,a1,15
    813a:	0589                	addi	a1,a1,2
    813c:	058a                	slli	a1,a1,0x2
    813e:	854a                	mv	a0,s2
    8140:	de3fc0ef          	jal	ra,4f22 <pbuf_header>
    8144:	458d                	li	a1,3
    8146:	854a                	mv	a0,s2
    8148:	230d                	jal	866a <icmp_dest_unreach>
    814a:	bd01                	j	7f5a <udp_input+0x46>

0000814c <udp_bind>:
udp_bind():
    814c:	92c1a883          	lw	a7,-1748(gp) # 2000014c <udp_pcbs>
    8150:	86aa                	mv	a3,a0
    8152:	4301                	li	t1,0
    8154:	87c6                	mv	a5,a7
    8156:	92c18813          	addi	a6,gp,-1748 # 2000014c <udp_pcbs>
    815a:	e79d                	bnez	a5,8188 <udp_bind+0x3c>
    815c:	c999                	beqz	a1,8172 <udp_bind+0x26>
    815e:	3198                	lbu	a4,1(a1)
    8160:	219c                	lbu	a5,0(a1)
    8162:	0722                	slli	a4,a4,0x8
    8164:	8f5d                	or	a4,a4,a5
    8166:	21bc                	lbu	a5,2(a1)
    8168:	07c2                	slli	a5,a5,0x10
    816a:	8f5d                	or	a4,a4,a5
    816c:	31bc                	lbu	a5,3(a1)
    816e:	07e2                	slli	a5,a5,0x18
    8170:	8fd9                	or	a5,a5,a4
    8172:	c29c                	sw	a5,0(a3)
    8174:	c625                	beqz	a2,81dc <udp_bind+0x90>
    8176:	aab2                	sh	a2,18(a3)
    8178:	4501                	li	a0,0
    817a:	00031663          	bnez	t1,8186 <udp_bind+0x3a>
    817e:	0116a623          	sw	a7,12(a3)
    8182:	00d82023          	sw	a3,0(a6)
    8186:	8082                	ret
    8188:	02d78b63          	beq	a5,a3,81be <udp_bind+0x72>
    818c:	2bba                	lhu	a4,18(a5)
    818e:	02c71663          	bne	a4,a2,81ba <udp_bind+0x6e>
    8192:	0007ae03          	lw	t3,0(a5) # 5000 <pbuf_alloc+0x22>
    8196:	000e1463          	bnez	t3,819e <udp_bind+0x52>
    819a:	5555                	li	a0,-11
    819c:	8082                	ret
    819e:	ddf5                	beqz	a1,819a <udp_bind+0x4e>
    81a0:	3188                	lbu	a0,1(a1)
    81a2:	2198                	lbu	a4,0(a1)
    81a4:	0522                	slli	a0,a0,0x8
    81a6:	8d59                	or	a0,a0,a4
    81a8:	21b8                	lbu	a4,2(a1)
    81aa:	0742                	slli	a4,a4,0x10
    81ac:	8d59                	or	a0,a0,a4
    81ae:	31b8                	lbu	a4,3(a1)
    81b0:	0762                	slli	a4,a4,0x18
    81b2:	8f49                	or	a4,a4,a0
    81b4:	d37d                	beqz	a4,819a <udp_bind+0x4e>
    81b6:	feee02e3          	beq	t3,a4,819a <udp_bind+0x4e>
    81ba:	47dc                	lw	a5,12(a5)
    81bc:	bf79                	j	815a <udp_bind+0xe>
    81be:	4305                	li	t1,1
    81c0:	bfed                	j	81ba <udp_bind+0x6e>
    81c2:	2bae                	lhu	a1,18(a5)
    81c4:	00c59a63          	bne	a1,a2,81d8 <udp_bind+0x8c>
    81c8:	0605                	addi	a2,a2,1
    81ca:	0642                	slli	a2,a2,0x10
    81cc:	8241                	srli	a2,a2,0x10
    81ce:	87c6                	mv	a5,a7
    81d0:	d3dd                	beqz	a5,8176 <udp_bind+0x2a>
    81d2:	fee618e3          	bne	a2,a4,81c2 <udp_bind+0x76>
    81d6:	b7d1                	j	819a <udp_bind+0x4e>
    81d8:	47dc                	lw	a5,12(a5)
    81da:	bfdd                	j	81d0 <udp_bind+0x84>
    81dc:	6721                	lui	a4,0x8
    81de:	87c6                	mv	a5,a7
    81e0:	6605                	lui	a2,0x1
    81e2:	177d                	addi	a4,a4,-1
    81e4:	b7f5                	j	81d0 <udp_bind+0x84>

000081e6 <udp_sendto_if>:
udp_sendto_if():
    81e6:	830f82ef          	jal	t0,216 <__riscv_save_4>
    81ea:	293e                	lhu	a5,18(a0)
    81ec:	892a                	mv	s2,a0
    81ee:	89ae                	mv	s3,a1
    81f0:	8ab2                	mv	s5,a2
    81f2:	8b36                	mv	s6,a3
    81f4:	8a3a                	mv	s4,a4
    81f6:	c7ad                	beqz	a5,8260 <udp_sendto_if+0x7a>
    81f8:	45a1                	li	a1,8
    81fa:	854e                	mv	a0,s3
    81fc:	d27fc0ef          	jal	ra,4f22 <pbuf_header>
    8200:	84ce                	mv	s1,s3
    8202:	cd01                	beqz	a0,821a <udp_sendto_if+0x34>
    8204:	4601                	li	a2,0
    8206:	45a1                	li	a1,8
    8208:	4505                	li	a0,1
    820a:	dd5fc0ef          	jal	ra,4fde <pbuf_alloc>
    820e:	84aa                	mv	s1,a0
    8210:	547d                	li	s0,-1
    8212:	cd29                	beqz	a0,826c <udp_sendto_if+0x86>
    8214:	85ce                	mv	a1,s3
    8216:	f99fc0ef          	jal	ra,51ae <pbuf_chain>
    821a:	01295503          	lhu	a0,18(s2)
    821e:	40c0                	lw	s0,4(s1)
    8220:	995fb0ef          	jal	ra,3bb4 <htons>
    8224:	a008                	sb	a0,0(s0)
    8226:	8121                	srli	a0,a0,0x8
    8228:	b008                	sb	a0,1(s0)
    822a:	855a                	mv	a0,s6
    822c:	989fb0ef          	jal	ra,3bb4 <htons>
    8230:	00092783          	lw	a5,0(s2)
    8234:	a028                	sb	a0,2(s0)
    8236:	8121                	srli	a0,a0,0x8
    8238:	b028                	sb	a0,3(s0)
    823a:	00040323          	sb	zero,6(s0)
    823e:	000403a3          	sb	zero,7(s0)
    8242:	004a0b13          	addi	s6,s4,4
    8246:	c795                	beqz	a5,8272 <udp_sendto_if+0x8c>
    8248:	004a2703          	lw	a4,4(s4)
    824c:	8b4a                	mv	s6,s2
    824e:	02e78263          	beq	a5,a4,8272 <udp_sendto_if+0x8c>
    8252:	545d                	li	s0,-9
    8254:	01348c63          	beq	s1,s3,826c <udp_sendto_if+0x86>
    8258:	8526                	mv	a0,s1
    825a:	d37fc0ef          	jal	ra,4f90 <pbuf_free>
    825e:	a039                	j	826c <udp_sendto_if+0x86>
    8260:	4601                	li	a2,0
    8262:	85aa                	mv	a1,a0
    8264:	ee9ff0ef          	jal	ra,814c <udp_bind>
    8268:	842a                	mv	s0,a0
    826a:	d559                	beqz	a0,81f8 <udp_sendto_if+0x12>
    826c:	8522                	mv	a0,s0
    826e:	fddf706f          	j	24a <__riscv_restore_4>
    8272:	248a                	lhu	a0,8(s1)
    8274:	941fb0ef          	jal	ra,3bb4 <htons>
    8278:	a048                	sb	a0,4(s0)
    827a:	8121                	srli	a0,a0,0x8
    827c:	b048                	sb	a0,5(s0)
    827e:	01094783          	lbu	a5,16(s2)
    8282:	8b85                	andi	a5,a5,1
    8284:	eb99                	bnez	a5,829a <udp_sendto_if+0xb4>
    8286:	249a                	lhu	a4,8(s1)
    8288:	46c5                	li	a3,17
    828a:	8656                	mv	a2,s5
    828c:	85da                	mv	a1,s6
    828e:	8526                	mv	a0,s1
    8290:	2141                	jal	8710 <inet_chksum_pseudo>
    8292:	c10d                	beqz	a0,82b4 <udp_sendto_if+0xce>
    8294:	a068                	sb	a0,6(s0)
    8296:	8121                	srli	a0,a0,0x8
    8298:	b068                	sb	a0,7(s0)
    829a:	00a94703          	lbu	a4,10(s2)
    829e:	00b94683          	lbu	a3,11(s2)
    82a2:	8852                	mv	a6,s4
    82a4:	47c5                	li	a5,17
    82a6:	8656                	mv	a2,s5
    82a8:	85da                	mv	a1,s6
    82aa:	8526                	mv	a0,s1
    82ac:	c3bfb0ef          	jal	ra,3ee6 <ip_output_if>
    82b0:	842a                	mv	s0,a0
    82b2:	b74d                	j	8254 <udp_sendto_if+0x6e>
    82b4:	57fd                	li	a5,-1
    82b6:	a07c                	sb	a5,6(s0)
    82b8:	b07c                	sb	a5,7(s0)
    82ba:	b7c5                	j	829a <udp_sendto_if+0xb4>

000082bc <udp_sendto>:
udp_sendto():
    82bc:	f75f72ef          	jal	t0,230 <__riscv_save_0>
    82c0:	1141                	addi	sp,sp,-16
    82c2:	842a                	mv	s0,a0
    82c4:	8532                	mv	a0,a2
    82c6:	c62e                	sw	a1,12(sp)
    82c8:	c436                	sw	a3,8(sp)
    82ca:	c232                	sw	a2,4(sp)
    82cc:	935fb0ef          	jal	ra,3c00 <ip_route>
    82d0:	c919                	beqz	a0,82e6 <udp_sendto+0x2a>
    82d2:	46a2                	lw	a3,8(sp)
    82d4:	4612                	lw	a2,4(sp)
    82d6:	45b2                	lw	a1,12(sp)
    82d8:	872a                	mv	a4,a0
    82da:	8522                	mv	a0,s0
    82dc:	f0bff0ef          	jal	ra,81e6 <udp_sendto_if>
    82e0:	0141                	addi	sp,sp,16
    82e2:	f73f706f          	j	254 <__riscv_restore_0>
    82e6:	5571                	li	a0,-4
    82e8:	bfe5                	j	82e0 <udp_sendto+0x24>

000082ea <udp_send>:
udp_send():
    82ea:	f47f72ef          	jal	t0,230 <__riscv_save_0>
    82ee:	2956                	lhu	a3,20(a0)
    82f0:	00450613          	addi	a2,a0,4 # e0000004 <_eusrstack+0xbfff0004>
    82f4:	fc9ff0ef          	jal	ra,82bc <udp_sendto>
    82f8:	f5df706f          	j	254 <__riscv_restore_0>

000082fc <udp_connect>:
udp_connect():
    82fc:	f35f72ef          	jal	t0,230 <__riscv_save_0>
    8300:	293e                	lhu	a5,18(a0)
    8302:	842a                	mv	s0,a0
    8304:	84ae                	mv	s1,a1
    8306:	8932                	mv	s2,a2
    8308:	cbb1                	beqz	a5,835c <udp_connect+0x60>
    830a:	4781                	li	a5,0
    830c:	c899                	beqz	s1,8322 <udp_connect+0x26>
    830e:	3098                	lbu	a4,1(s1)
    8310:	209c                	lbu	a5,0(s1)
    8312:	0722                	slli	a4,a4,0x8
    8314:	8f5d                	or	a4,a4,a5
    8316:	20bc                	lbu	a5,2(s1)
    8318:	07c2                	slli	a5,a5,0x10
    831a:	8f5d                	or	a4,a4,a5
    831c:	30bc                	lbu	a5,3(s1)
    831e:	07e2                	slli	a5,a5,0x18
    8320:	8fd9                	or	a5,a5,a4
    8322:	2818                	lbu	a4,16(s0)
    8324:	c05c                	sw	a5,4(s0)
    8326:	01241a23          	sh	s2,20(s0)
    832a:	00476713          	ori	a4,a4,4
    832e:	a818                	sb	a4,16(s0)
    8330:	4018                	lw	a4,0(s0)
    8332:	ef05                	bnez	a4,836a <udp_connect+0x6e>
    8334:	cf85                	beqz	a5,836c <udp_connect+0x70>
    8336:	00440513          	addi	a0,s0,4
    833a:	8c7fb0ef          	jal	ra,3c00 <ip_route>
    833e:	87aa                	mv	a5,a0
    8340:	5571                	li	a0,-4
    8342:	c395                	beqz	a5,8366 <udp_connect+0x6a>
    8344:	43dc                	lw	a5,4(a5)
    8346:	c01c                	sw	a5,0(s0)
    8348:	92c1a683          	lw	a3,-1748(gp) # 2000014c <udp_pcbs>
    834c:	92c18793          	addi	a5,gp,-1748 # 2000014c <udp_pcbs>
    8350:	8736                	mv	a4,a3
    8352:	e305                	bnez	a4,8372 <udp_connect+0x76>
    8354:	c454                	sw	a3,12(s0)
    8356:	c380                	sw	s0,0(a5)
    8358:	4501                	li	a0,0
    835a:	a031                	j	8366 <udp_connect+0x6a>
    835c:	4601                	li	a2,0
    835e:	85aa                	mv	a1,a0
    8360:	dedff0ef          	jal	ra,814c <udp_bind>
    8364:	d15d                	beqz	a0,830a <udp_connect+0xe>
    8366:	eeff706f          	j	254 <__riscv_restore_0>
    836a:	fff9                	bnez	a5,8348 <udp_connect+0x4c>
    836c:	00042023          	sw	zero,0(s0)
    8370:	bfe1                	j	8348 <udp_connect+0x4c>
    8372:	fe8703e3          	beq	a4,s0,8358 <udp_connect+0x5c>
    8376:	4758                	lw	a4,12(a4)
    8378:	bfe9                	j	8352 <udp_connect+0x56>

0000837a <udp_recv>:
udp_recv():
    837a:	cd0c                	sw	a1,24(a0)
    837c:	cd50                	sw	a2,28(a0)
    837e:	8082                	ret

00008380 <udp_new>:
udp_new():
    8380:	eb1f72ef          	jal	t0,230 <__riscv_save_0>
    8384:	4505                	li	a0,1
    8386:	a19fc0ef          	jal	ra,4d9e <memp_malloc>
    838a:	842a                	mv	s0,a0
    838c:	c909                	beqz	a0,839e <udp_new+0x1e>
    838e:	02000613          	li	a2,32
    8392:	4581                	li	a1,0
    8394:	ecdf70ef          	jal	ra,260 <memset>
    8398:	f8000793          	li	a5,-128
    839c:	b43c                	sb	a5,11(s0)
    839e:	8522                	mv	a0,s0
    83a0:	eb5f706f          	j	254 <__riscv_restore_0>

000083a4 <icmp_send_response.isra.0>:
icmp_send_response.isra.0():
    83a4:	e73f72ef          	jal	t0,216 <__riscv_save_4>
    83a8:	842a                	mv	s0,a0
    83aa:	8a2e                	mv	s4,a1
    83ac:	89b2                	mv	s3,a2
    83ae:	02400593          	li	a1,36
    83b2:	4601                	li	a2,0
    83b4:	4505                	li	a0,1
    83b6:	c29fc0ef          	jal	ra,4fde <pbuf_alloc>
    83ba:	cd31                	beqz	a0,8416 <icmp_send_response.isra.0+0x72>
    83bc:	00042903          	lw	s2,0(s0)
    83c0:	4140                	lw	s0,4(a0)
    83c2:	84aa                	mv	s1,a0
    83c4:	4671                	li	a2,28
    83c6:	85ca                	mv	a1,s2
    83c8:	01440023          	sb	s4,0(s0)
    83cc:	013400a3          	sb	s3,1(s0)
    83d0:	00040223          	sb	zero,4(s0)
    83d4:	000402a3          	sb	zero,5(s0)
    83d8:	00040323          	sb	zero,6(s0)
    83dc:	000403a3          	sb	zero,7(s0)
    83e0:	00840513          	addi	a0,s0,8
    83e4:	27f000ef          	jal	ra,8e62 <memcpy>
    83e8:	24ae                	lhu	a1,10(s1)
    83ea:	00040123          	sb	zero,2(s0)
    83ee:	000401a3          	sb	zero,3(s0)
    83f2:	8522                	mv	a0,s0
    83f4:	211d                	jal	881a <inet_chksum>
    83f6:	a028                	sb	a0,2(s0)
    83f8:	8121                	srli	a0,a0,0x8
    83fa:	b028                	sb	a0,3(s0)
    83fc:	4785                	li	a5,1
    83fe:	4701                	li	a4,0
    8400:	08000693          	li	a3,128
    8404:	00c90613          	addi	a2,s2,12
    8408:	4581                	li	a1,0
    840a:	8526                	mv	a0,s1
    840c:	c35fb0ef          	jal	ra,4040 <ip_output>
    8410:	8526                	mv	a0,s1
    8412:	b7ffc0ef          	jal	ra,4f90 <pbuf_free>
    8416:	e35f706f          	j	24a <__riscv_restore_4>

0000841a <icmp_input>:
icmp_input():
    841a:	deff72ef          	jal	t0,208 <__riscv_save_10>
    841e:	4140                	lw	s0,4(a0)
    8420:	84aa                	mv	s1,a0
    8422:	1141                	addi	sp,sp,-16
    8424:	301c                	lbu	a5,1(s0)
    8426:	2008                	lbu	a0,0(s0)
    8428:	89ae                	mv	s3,a1
    842a:	07a2                	slli	a5,a5,0x8
    842c:	8d5d                	or	a0,a0,a5
    842e:	f94fb0ef          	jal	ra,3bc2 <ntohs>
    8432:	00655913          	srli	s2,a0,0x6
    8436:	03c97913          	andi	s2,s2,60
    843a:	41200ab3          	neg	s5,s2
    843e:	0ac2                	slli	s5,s5,0x10
    8440:	410ada93          	srai	s5,s5,0x10
    8444:	85d6                	mv	a1,s5
    8446:	8526                	mv	a0,s1
    8448:	adbfc0ef          	jal	ra,4f22 <pbuf_header>
    844c:	e139                	bnez	a0,8492 <icmp_input+0x78>
    844e:	249e                	lhu	a5,8(s1)
    8450:	468d                	li	a3,3
    8452:	04f6f063          	bgeu	a3,a5,8492 <icmp_input+0x78>
    8456:	40dc                	lw	a5,4(s1)
    8458:	2398                	lbu	a4,0(a5)
    845a:	04d71263          	bne	a4,a3,849e <icmp_input+0x84>
    845e:	2798                	lbu	a4,8(a5)
    8460:	00878693          	addi	a3,a5,8
    8464:	3f88                	lbu	a0,25(a5)
    8466:	8b3d                	andi	a4,a4,15
    8468:	070a                	slli	a4,a4,0x2
    846a:	9736                	add	a4,a4,a3
    846c:	232c                	lbu	a1,2(a4)
    846e:	00374803          	lbu	a6,3(a4) # 8003 <udp_input+0xef>
    8472:	2f98                	lbu	a4,24(a5)
    8474:	0522                	slli	a0,a0,0x8
    8476:	3394                	lbu	a3,1(a5)
    8478:	8d59                	or	a0,a0,a4
    847a:	2fb8                	lbu	a4,26(a5)
    847c:	3b90                	lbu	a2,17(a5)
    847e:	05a2                	slli	a1,a1,0x8
    8480:	0742                	slli	a4,a4,0x10
    8482:	8f49                	or	a4,a4,a0
    8484:	3fa8                	lbu	a0,27(a5)
    8486:	0105e5b3          	or	a1,a1,a6
    848a:	0562                	slli	a0,a0,0x18
    848c:	8d59                	or	a0,a0,a4
    848e:	dbffa0ef          	jal	ra,324c <LwipUnreachPort>
    8492:	8526                	mv	a0,s1
    8494:	afdfc0ef          	jal	ra,4f90 <pbuf_free>
    8498:	0141                	addi	sp,sp,16
    849a:	da7f706f          	j	240 <__riscv_restore_10>
    849e:	47a1                	li	a5,8
    84a0:	fef719e3          	bne	a4,a5,8492 <icmp_input+0x78>
    84a4:	381c                	lbu	a5,17(s0)
    84a6:	01044a03          	lbu	s4,16(s0)
    84aa:	f0000537          	lui	a0,0xf0000
    84ae:	07a2                	slli	a5,a5,0x8
    84b0:	0147e7b3          	or	a5,a5,s4
    84b4:	01244a03          	lbu	s4,18(s0)
    84b8:	4b01                	li	s6,0
    84ba:	0a42                	slli	s4,s4,0x10
    84bc:	00fa67b3          	or	a5,s4,a5
    84c0:	01344a03          	lbu	s4,19(s0)
    84c4:	0a62                	slli	s4,s4,0x18
    84c6:	00fa6a33          	or	s4,s4,a5
    84ca:	f2afb0ef          	jal	ra,3bf4 <ntohl>
    84ce:	8c2a                	mv	s8,a0
    84d0:	e0000537          	lui	a0,0xe0000
    84d4:	f20fb0ef          	jal	ra,3bf4 <ntohl>
    84d8:	8baa                	mv	s7,a0
    84da:	85ce                	mv	a1,s3
    84dc:	01040513          	addi	a0,s0,16
    84e0:	b97fb0ef          	jal	ra,4076 <ip_addr_isbroadcast>
    84e4:	e519                	bnez	a0,84f2 <icmp_input+0xd8>
    84e6:	018a7533          	and	a0,s4,s8
    84ea:	41750533          	sub	a0,a0,s7
    84ee:	00a03b33          	snez	s6,a0
    84f2:	d4dfa0ef          	jal	ra,323e <QueryPingEnable>
    84f6:	dd51                	beqz	a0,8492 <icmp_input+0x78>
    84f8:	f80b0de3          	beqz	s6,8492 <icmp_input+0x78>
    84fc:	249a                	lhu	a4,8(s1)
    84fe:	479d                	li	a5,7
    8500:	f8e7f9e3          	bgeu	a5,a4,8492 <icmp_input+0x78>
    8504:	8526                	mv	a0,s1
    8506:	2625                	jal	882e <inet_chksum_pbuf>
    8508:	f549                	bnez	a0,8492 <icmp_input+0x78>
    850a:	0942                	slli	s2,s2,0x10
    850c:	02200593          	li	a1,34
    8510:	8526                	mv	a0,s1
    8512:	41095913          	srai	s2,s2,0x10
    8516:	a0dfc0ef          	jal	ra,4f22 <pbuf_header>
    851a:	12050463          	beqz	a0,8642 <icmp_input+0x228>
    851e:	85ca                	mv	a1,s2
    8520:	8526                	mv	a0,s1
    8522:	a01fc0ef          	jal	ra,4f22 <pbuf_header>
    8526:	f535                	bnez	a0,8492 <icmp_input+0x78>
    8528:	248e                	lhu	a1,8(s1)
    852a:	4601                	li	a2,0
    852c:	4509                	li	a0,2
    852e:	ab1fc0ef          	jal	ra,4fde <pbuf_alloc>
    8532:	8a2a                	mv	s4,a0
    8534:	dd39                	beqz	a0,8492 <icmp_input+0x78>
    8536:	85a6                	mv	a1,s1
    8538:	c8bfc0ef          	jal	ra,51c2 <pbuf_copy>
    853c:	f939                	bnez	a0,8492 <icmp_input+0x78>
    853e:	85d6                	mv	a1,s5
    8540:	8552                	mv	a0,s4
    8542:	004a2403          	lw	s0,4(s4)
    8546:	9ddfc0ef          	jal	ra,4f22 <pbuf_header>
    854a:	f521                	bnez	a0,8492 <icmp_input+0x78>
    854c:	8526                	mv	a0,s1
    854e:	a43fc0ef          	jal	ra,4f90 <pbuf_free>
    8552:	84d2                	mv	s1,s4
    8554:	3458                	lbu	a4,13(s0)
    8556:	245c                	lbu	a5,12(s0)
    8558:	3814                	lbu	a3,17(s0)
    855a:	0722                	slli	a4,a4,0x8
    855c:	8f5d                	or	a4,a4,a5
    855e:	247c                	lbu	a5,14(s0)
    8560:	06a2                	slli	a3,a3,0x8
    8562:	0044aa03          	lw	s4,4(s1)
    8566:	07c2                	slli	a5,a5,0x10
    8568:	8f5d                	or	a4,a4,a5
    856a:	347c                	lbu	a5,15(s0)
    856c:	653d                	lui	a0,0xf
    856e:	7ff50513          	addi	a0,a0,2047 # f7ff <_data_lma+0x3bab>
    8572:	07e2                	slli	a5,a5,0x18
    8574:	8fd9                	or	a5,a5,a4
    8576:	2818                	lbu	a4,16(s0)
    8578:	a81c                	sb	a5,16(s0)
    857a:	8ed9                	or	a3,a3,a4
    857c:	2838                	lbu	a4,18(s0)
    857e:	0742                	slli	a4,a4,0x10
    8580:	8ed9                	or	a3,a3,a4
    8582:	3838                	lbu	a4,19(s0)
    8584:	0762                	slli	a4,a4,0x18
    8586:	8f55                	or	a4,a4,a3
    8588:	00875693          	srli	a3,a4,0x8
    858c:	a458                	sb	a4,12(s0)
    858e:	b454                	sb	a3,13(s0)
    8590:	01075693          	srli	a3,a4,0x10
    8594:	8361                	srli	a4,a4,0x18
    8596:	b478                	sb	a4,15(s0)
    8598:	0087d713          	srli	a4,a5,0x8
    859c:	b818                	sb	a4,17(s0)
    859e:	0107d713          	srli	a4,a5,0x10
    85a2:	83e1                	srli	a5,a5,0x18
    85a4:	a474                	sb	a3,14(s0)
    85a6:	a838                	sb	a4,18(s0)
    85a8:	b83c                	sb	a5,19(s0)
    85aa:	003a4a83          	lbu	s5,3(s4)
    85ae:	002a4783          	lbu	a5,2(s4)
    85b2:	000a0023          	sb	zero,0(s4)
    85b6:	0aa2                	slli	s5,s5,0x8
    85b8:	00faeab3          	or	s5,s5,a5
    85bc:	df8fb0ef          	jal	ra,3bb4 <htons>
    85c0:	08aae963          	bltu	s5,a0,8652 <icmp_input+0x238>
    85c4:	6505                	lui	a0,0x1
    85c6:	80050513          	addi	a0,a0,-2048 # 800 <__stack_size>
    85ca:	deafb0ef          	jal	ra,3bb4 <htons>
    85ce:	003a4783          	lbu	a5,3(s4)
    85d2:	002a4703          	lbu	a4,2(s4)
    85d6:	07a2                	slli	a5,a5,0x8
    85d8:	8fd9                	or	a5,a5,a4
    85da:	0785                	addi	a5,a5,1
    85dc:	953e                	add	a0,a0,a5
    85de:	0542                	slli	a0,a0,0x10
    85e0:	8141                	srli	a0,a0,0x10
    85e2:	00aa0123          	sb	a0,2(s4)
    85e6:	8121                	srli	a0,a0,0x8
    85e8:	00aa01a3          	sb	a0,3(s4)
    85ec:	341c                	lbu	a5,9(s0)
    85ee:	2408                	lbu	a0,8(s0)
    85f0:	07a2                	slli	a5,a5,0x8
    85f2:	8d5d                	or	a0,a0,a5
    85f4:	dcefb0ef          	jal	ra,3bc2 <ntohs>
    85f8:	67a1                	lui	a5,0x8
    85fa:	0ff57513          	andi	a0,a0,255
    85fe:	8d5d                	or	a0,a0,a5
    8600:	db4fb0ef          	jal	ra,3bb4 <htons>
    8604:	a408                	sb	a0,8(s0)
    8606:	8121                	srli	a0,a0,0x8
    8608:	b408                	sb	a0,9(s0)
    860a:	45d1                	li	a1,20
    860c:	00040523          	sb	zero,10(s0)
    8610:	000405a3          	sb	zero,11(s0)
    8614:	8522                	mv	a0,s0
    8616:	2411                	jal	881a <inet_chksum>
    8618:	a428                	sb	a0,10(s0)
    861a:	8121                	srli	a0,a0,0x8
    861c:	b428                	sb	a0,11(s0)
    861e:	85ca                	mv	a1,s2
    8620:	8526                	mv	a0,s1
    8622:	901fc0ef          	jal	ra,4f22 <pbuf_header>
    8626:	e60516e3          	bnez	a0,8492 <icmp_input+0x78>
    862a:	884e                	mv	a6,s3
    862c:	4785                	li	a5,1
    862e:	4701                	li	a4,0
    8630:	08000693          	li	a3,128
    8634:	4601                	li	a2,0
    8636:	00c40593          	addi	a1,s0,12
    863a:	8526                	mv	a0,s1
    863c:	8abfb0ef          	jal	ra,3ee6 <ip_output_if>
    8640:	bd89                	j	8492 <icmp_input+0x78>
    8642:	fde00593          	li	a1,-34
    8646:	8526                	mv	a0,s1
    8648:	8dbfc0ef          	jal	ra,4f22 <pbuf_header>
    864c:	f00504e3          	beqz	a0,8554 <icmp_input+0x13a>
    8650:	b589                	j	8492 <icmp_input+0x78>
    8652:	6505                	lui	a0,0x1
    8654:	80050513          	addi	a0,a0,-2048 # 800 <__stack_size>
    8658:	d5cfb0ef          	jal	ra,3bb4 <htons>
    865c:	003a4783          	lbu	a5,3(s4)
    8660:	002a4703          	lbu	a4,2(s4)
    8664:	07a2                	slli	a5,a5,0x8
    8666:	8fd9                	or	a5,a5,a4
    8668:	bf95                	j	85dc <icmp_input+0x1c2>

0000866a <icmp_dest_unreach>:
icmp_dest_unreach():
    866a:	bc7f72ef          	jal	t0,230 <__riscv_save_0>
    866e:	0ff5f613          	andi	a2,a1,255
    8672:	0511                	addi	a0,a0,4
    8674:	458d                	li	a1,3
    8676:	d2fff0ef          	jal	ra,83a4 <icmp_send_response.isra.0>
    867a:	bdbf706f          	j	254 <__riscv_restore_0>

0000867e <icmp_time_exceeded>:
icmp_time_exceeded():
    867e:	bb3f72ef          	jal	t0,230 <__riscv_save_0>
    8682:	0ff5f613          	andi	a2,a1,255
    8686:	0511                	addi	a0,a0,4
    8688:	45ad                	li	a1,11
    868a:	d1bff0ef          	jal	ra,83a4 <icmp_send_response.isra.0>
    868e:	bc7f706f          	j	254 <__riscv_restore_0>

00008692 <lwip_standard_chksum>:
lwip_standard_chksum():
    8692:	b9ff72ef          	jal	t0,230 <__riscv_save_0>
    8696:	00b50833          	add	a6,a0,a1
    869a:	0842                	slli	a6,a6,0x10
    869c:	86aa                	mv	a3,a0
    869e:	4701                	li	a4,0
    86a0:	01085813          	srli	a6,a6,0x10
    86a4:	4885                	li	a7,1
    86a6:	40d807b3          	sub	a5,a6,a3
    86aa:	07c2                	slli	a5,a5,0x10
    86ac:	83c1                	srli	a5,a5,0x10
    86ae:	04f8e463          	bltu	a7,a5,86f6 <lwip_standard_chksum+0x64>
    86b2:	0015d793          	srli	a5,a1,0x1
    86b6:	00179693          	slli	a3,a5,0x1
    86ba:	9536                	add	a0,a0,a3
    86bc:	56f9                	li	a3,-2
    86be:	02d787b3          	mul	a5,a5,a3
    86c2:	95be                	add	a1,a1,a5
    86c4:	05c2                	slli	a1,a1,0x10
    86c6:	81c1                	srli	a1,a1,0x10
    86c8:	c581                	beqz	a1,86d0 <lwip_standard_chksum+0x3e>
    86ca:	211c                	lbu	a5,0(a0)
    86cc:	07a2                	slli	a5,a5,0x8
    86ce:	973e                	add	a4,a4,a5
    86d0:	6541                	lui	a0,0x10
    86d2:	fff50693          	addi	a3,a0,-1 # ffff <_data_lma+0x43ab>
    86d6:	01075793          	srli	a5,a4,0x10
    86da:	8f75                	and	a4,a4,a3
    86dc:	00e78533          	add	a0,a5,a4
    86e0:	77c1                	lui	a5,0xffff0
    86e2:	8fe9                	and	a5,a5,a0
    86e4:	c399                	beqz	a5,86ea <lwip_standard_chksum+0x58>
    86e6:	8d75                	and	a0,a0,a3
    86e8:	0505                	addi	a0,a0,1
    86ea:	0542                	slli	a0,a0,0x10
    86ec:	8141                	srli	a0,a0,0x10
    86ee:	cc6fb0ef          	jal	ra,3bb4 <htons>
    86f2:	b63f706f          	j	254 <__riscv_restore_0>
    86f6:	329c                	lbu	a5,1(a3)
    86f8:	2290                	lbu	a2,0(a3)
    86fa:	0689                	addi	a3,a3,2
    86fc:	07a2                	slli	a5,a5,0x8
    86fe:	8fd1                	or	a5,a5,a2
    8700:	00879613          	slli	a2,a5,0x8
    8704:	83a1                	srli	a5,a5,0x8
    8706:	8fd1                	or	a5,a5,a2
    8708:	07c2                	slli	a5,a5,0x10
    870a:	83c1                	srli	a5,a5,0x10
    870c:	973e                	add	a4,a4,a5
    870e:	bf61                	j	86a6 <lwip_standard_chksum+0x14>

00008710 <inet_chksum_pseudo>:
inet_chksum_pseudo():
    8710:	af9f72ef          	jal	t0,208 <__riscv_save_10>
    8714:	200067b7          	lui	a5,0x20006
    8718:	2647a783          	lw	a5,612(a5) # 20006264 <WCHCfg+0x14>
    871c:	84ba                	mv	s1,a4
    871e:	1141                	addi	sp,sp,-16
    8720:	00579713          	slli	a4,a5,0x5
    8724:	0e074963          	bltz	a4,8816 <inet_chksum_pseudo+0x106>
    8728:	6b41                	lui	s6,0x10
    872a:	892a                	mv	s2,a0
    872c:	8aae                	mv	s5,a1
    872e:	8a32                	mv	s4,a2
    8730:	4981                	li	s3,0
    8732:	4401                	li	s0,0
    8734:	1b7d                	addi	s6,s6,-1
    8736:	4b85                	li	s7,1
    8738:	08091e63          	bnez	s2,87d4 <inet_chksum_pseudo+0xc4>
    873c:	00098b63          	beqz	s3,8752 <inet_chksum_pseudo+0x42>
    8740:	6741                	lui	a4,0x10
    8742:	00841793          	slli	a5,s0,0x8
    8746:	177d                	addi	a4,a4,-1
    8748:	8021                	srli	s0,s0,0x8
    874a:	8ff9                	and	a5,a5,a4
    874c:	0ff47413          	andi	s0,s0,255
    8750:	8c5d                	or	s0,s0,a5
    8752:	001ac503          	lbu	a0,1(s5)
    8756:	000ac783          	lbu	a5,0(s5)
    875a:	000a4703          	lbu	a4,0(s4)
    875e:	0522                	slli	a0,a0,0x8
    8760:	8d5d                	or	a0,a0,a5
    8762:	002ac783          	lbu	a5,2(s5)
    8766:	003a4603          	lbu	a2,3(s4)
    876a:	6941                	lui	s2,0x10
    876c:	07c2                	slli	a5,a5,0x10
    876e:	8d5d                	or	a0,a0,a5
    8770:	003ac783          	lbu	a5,3(s5)
    8774:	0662                	slli	a2,a2,0x18
    8776:	197d                	addi	s2,s2,-1
    8778:	07e2                	slli	a5,a5,0x18
    877a:	8fc9                	or	a5,a5,a0
    877c:	001a4503          	lbu	a0,1(s4)
    8780:	0522                	slli	a0,a0,0x8
    8782:	8f49                	or	a4,a4,a0
    8784:	002a4503          	lbu	a0,2(s4)
    8788:	0542                	slli	a0,a0,0x10
    878a:	8d59                	or	a0,a0,a4
    878c:	8e49                	or	a2,a2,a0
    878e:	01267533          	and	a0,a2,s2
    8792:	8241                	srli	a2,a2,0x10
    8794:	0127f733          	and	a4,a5,s2
    8798:	9532                	add	a0,a0,a2
    879a:	953a                	add	a0,a0,a4
    879c:	83c1                	srli	a5,a5,0x10
    879e:	953e                	add	a0,a0,a5
    87a0:	942a                	add	s0,s0,a0
    87a2:	8536                	mv	a0,a3
    87a4:	c10fb0ef          	jal	ra,3bb4 <htons>
    87a8:	942a                	add	s0,s0,a0
    87aa:	8526                	mv	a0,s1
    87ac:	c08fb0ef          	jal	ra,3bb4 <htons>
    87b0:	9522                	add	a0,a0,s0
    87b2:	01055413          	srli	s0,a0,0x10
    87b6:	01257533          	and	a0,a0,s2
    87ba:	942a                	add	s0,s0,a0
    87bc:	01045513          	srli	a0,s0,0x10
    87c0:	01247433          	and	s0,s0,s2
    87c4:	9522                	add	a0,a0,s0
    87c6:	fff54513          	not	a0,a0
    87ca:	0542                	slli	a0,a0,0x10
    87cc:	8141                	srli	a0,a0,0x10
    87ce:	0141                	addi	sp,sp,16
    87d0:	a71f706f          	j	240 <__riscv_restore_10>
    87d4:	00a95583          	lhu	a1,10(s2) # 1000a <_data_lma+0x43b6>
    87d8:	00492503          	lw	a0,4(s2)
    87dc:	c636                	sw	a3,12(sp)
    87de:	eb5ff0ef          	jal	ra,8692 <lwip_standard_chksum>
    87e2:	942a                	add	s0,s0,a0
    87e4:	01045793          	srli	a5,s0,0x10
    87e8:	01647433          	and	s0,s0,s6
    87ec:	943e                	add	s0,s0,a5
    87ee:	00a95783          	lhu	a5,10(s2)
    87f2:	46b2                	lw	a3,12(sp)
    87f4:	8b85                	andi	a5,a5,1
    87f6:	cf89                	beqz	a5,8810 <inet_chksum_pseudo+0x100>
    87f8:	00841793          	slli	a5,s0,0x8
    87fc:	8021                	srli	s0,s0,0x8
    87fe:	413b89b3          	sub	s3,s7,s3
    8802:	0167f7b3          	and	a5,a5,s6
    8806:	0ff47413          	andi	s0,s0,255
    880a:	0ff9f993          	andi	s3,s3,255
    880e:	8c5d                	or	s0,s0,a5
    8810:	00092903          	lw	s2,0(s2)
    8814:	b715                	j	8738 <inet_chksum_pseudo+0x28>
    8816:	4501                	li	a0,0
    8818:	bf5d                	j	87ce <inet_chksum_pseudo+0xbe>

0000881a <inet_chksum>:
inet_chksum():
    881a:	a17f72ef          	jal	t0,230 <__riscv_save_0>
    881e:	e75ff0ef          	jal	ra,8692 <lwip_standard_chksum>
    8822:	fff54513          	not	a0,a0
    8826:	0542                	slli	a0,a0,0x10
    8828:	8141                	srli	a0,a0,0x10
    882a:	a2bf706f          	j	254 <__riscv_restore_0>

0000882e <inet_chksum_pbuf>:
inet_chksum_pbuf():
    882e:	9e9f72ef          	jal	t0,216 <__riscv_save_4>
    8832:	69c1                	lui	s3,0x10
    8834:	84aa                	mv	s1,a0
    8836:	4901                	li	s2,0
    8838:	4401                	li	s0,0
    883a:	19fd                	addi	s3,s3,-1
    883c:	4a05                	li	s4,1
    883e:	e095                	bnez	s1,8862 <inet_chksum_pbuf+0x34>
    8840:	00090b63          	beqz	s2,8856 <inet_chksum_pbuf+0x28>
    8844:	6741                	lui	a4,0x10
    8846:	00841793          	slli	a5,s0,0x8
    884a:	177d                	addi	a4,a4,-1
    884c:	8021                	srli	s0,s0,0x8
    884e:	8ff9                	and	a5,a5,a4
    8850:	0ff47413          	andi	s0,s0,255
    8854:	8c5d                	or	s0,s0,a5
    8856:	fff44513          	not	a0,s0
    885a:	0542                	slli	a0,a0,0x10
    885c:	8141                	srli	a0,a0,0x10
    885e:	9edf706f          	j	24a <__riscv_restore_4>
    8862:	24ae                	lhu	a1,10(s1)
    8864:	40c8                	lw	a0,4(s1)
    8866:	e2dff0ef          	jal	ra,8692 <lwip_standard_chksum>
    886a:	942a                	add	s0,s0,a0
    886c:	01045793          	srli	a5,s0,0x10
    8870:	01347433          	and	s0,s0,s3
    8874:	943e                	add	s0,s0,a5
    8876:	24be                	lhu	a5,10(s1)
    8878:	8b85                	andi	a5,a5,1
    887a:	cf89                	beqz	a5,8894 <inet_chksum_pbuf+0x66>
    887c:	00841793          	slli	a5,s0,0x8
    8880:	8021                	srli	s0,s0,0x8
    8882:	412a0933          	sub	s2,s4,s2
    8886:	0137f7b3          	and	a5,a5,s3
    888a:	0ff47413          	andi	s0,s0,255
    888e:	0ff97913          	andi	s2,s2,255
    8892:	8c5d                	or	s0,s0,a5
    8894:	4084                	lw	s1,0(s1)
    8896:	b765                	j	883e <inet_chksum_pbuf+0x10>

00008898 <printchar>:
printchar():
    8898:	1101                	addi	sp,sp,-32
    889a:	ce06                	sw	ra,28(sp)
    889c:	c62e                	sw	a1,12(sp)
    889e:	cd0d                	beqz	a0,88d8 <printchar+0x40>
    88a0:	4118                	lw	a4,0(a0)
    88a2:	87aa                	mv	a5,a0
    88a4:	c305                	beqz	a4,88c4 <printchar+0x2c>
    88a6:	4158                	lw	a4,4(a0)
    88a8:	557d                	li	a0,-1
    88aa:	cb11                	beqz	a4,88be <printchar+0x26>
    88ac:	4685                	li	a3,1
    88ae:	00d71b63          	bne	a4,a3,88c4 <printchar+0x2c>
    88b2:	4798                	lw	a4,8(a5)
    88b4:	00070023          	sb	zero,0(a4) # 10000 <_data_lma+0x43ac>
    88b8:	0007a223          	sw	zero,4(a5)
    88bc:	4505                	li	a0,1
    88be:	40f2                	lw	ra,28(sp)
    88c0:	6105                	addi	sp,sp,32
    88c2:	8082                	ret
    88c4:	4798                	lw	a4,8(a5)
    88c6:	46b2                	lw	a3,12(sp)
    88c8:	a314                	sb	a3,0(a4)
    88ca:	4798                	lw	a4,8(a5)
    88cc:	0705                	addi	a4,a4,1
    88ce:	c798                	sw	a4,8(a5)
    88d0:	43d8                	lw	a4,4(a5)
    88d2:	177d                	addi	a4,a4,-1
    88d4:	c3d8                	sw	a4,4(a5)
    88d6:	b7dd                	j	88bc <printchar+0x24>
    88d8:	4605                	li	a2,1
    88da:	006c                	addi	a1,sp,12
    88dc:	f52f90ef          	jal	ra,202e <_write>
    88e0:	bff1                	j	88bc <printchar+0x24>

000088e2 <prints>:
prints():
    88e2:	7179                	addi	sp,sp,-48
    88e4:	d422                	sw	s0,40(sp)
    88e6:	d226                	sw	s1,36(sp)
    88e8:	ce4e                	sw	s3,28(sp)
    88ea:	cc52                	sw	s4,24(sp)
    88ec:	ca56                	sw	s5,20(sp)
    88ee:	d606                	sw	ra,44(sp)
    88f0:	d04a                	sw	s2,32(sp)
    88f2:	c85a                	sw	s6,16(sp)
    88f4:	8a2a                	mv	s4,a0
    88f6:	8aae                	mv	s5,a1
    88f8:	8432                	mv	s0,a2
    88fa:	4481                	li	s1,0
    88fc:	02000993          	li	s3,32
    8900:	02064463          	bltz	a2,8928 <prints+0x46>
    8904:	009a87b3          	add	a5,s5,s1
    8908:	00078783          	lb	a5,0(a5)
    890c:	e39d                	bnez	a5,8932 <prints+0x50>
    890e:	0284d663          	bge	s1,s0,893a <prints+0x58>
    8912:	02e4d263          	bge	s1,a4,8936 <prints+0x54>
    8916:	8c19                	sub	s0,s0,a4
    8918:	0026f793          	andi	a5,a3,2
    891c:	02000993          	li	s3,32
    8920:	c781                	beqz	a5,8928 <prints+0x46>
    8922:	e319                	bnez	a4,8928 <prints+0x46>
    8924:	03000993          	li	s3,48
    8928:	8a85                	andi	a3,a3,1
    892a:	4901                	li	s2,0
    892c:	ea85                	bnez	a3,895c <prints+0x7a>
    892e:	8922                	mv	s2,s0
    8930:	a831                	j	894c <prints+0x6a>
    8932:	0485                	addi	s1,s1,1
    8934:	bfc1                	j	8904 <prints+0x22>
    8936:	8c05                	sub	s0,s0,s1
    8938:	b7c5                	j	8918 <prints+0x36>
    893a:	4401                	li	s0,0
    893c:	bff1                	j	8918 <prints+0x36>
    893e:	85ce                	mv	a1,s3
    8940:	8552                	mv	a0,s4
    8942:	c63a                	sw	a4,12(sp)
    8944:	f55ff0ef          	jal	ra,8898 <printchar>
    8948:	4732                	lw	a4,12(sp)
    894a:	197d                	addi	s2,s2,-1
    894c:	ff2049e3          	bgtz	s2,893e <prints+0x5c>
    8950:	8922                	mv	s2,s0
    8952:	00045363          	bgez	s0,8958 <prints+0x76>
    8956:	4901                	li	s2,0
    8958:	41240433          	sub	s0,s0,s2
    895c:	02e4cb63          	blt	s1,a4,8992 <prints+0xb0>
    8960:	84ca                	mv	s1,s2
    8962:	412487b3          	sub	a5,s1,s2
    8966:	97d6                	add	a5,a5,s5
    8968:	00078583          	lb	a1,0(a5)
    896c:	e1a1                	bnez	a1,89ac <prints+0xca>
    896e:	8922                	mv	s2,s0
    8970:	05204363          	bgtz	s2,89b6 <prints+0xd4>
    8974:	00045363          	bgez	s0,897a <prints+0x98>
    8978:	4401                	li	s0,0
    897a:	00940533          	add	a0,s0,s1
    897e:	50b2                	lw	ra,44(sp)
    8980:	5422                	lw	s0,40(sp)
    8982:	5492                	lw	s1,36(sp)
    8984:	5902                	lw	s2,32(sp)
    8986:	49f2                	lw	s3,28(sp)
    8988:	4a62                	lw	s4,24(sp)
    898a:	4ad2                	lw	s5,20(sp)
    898c:	4b42                	lw	s6,16(sp)
    898e:	6145                	addi	sp,sp,48
    8990:	8082                	ret
    8992:	409704b3          	sub	s1,a4,s1
    8996:	8b26                	mv	s6,s1
    8998:	03000593          	li	a1,48
    899c:	8552                	mv	a0,s4
    899e:	1b7d                	addi	s6,s6,-1
    89a0:	ef9ff0ef          	jal	ra,8898 <printchar>
    89a4:	fe0b1ae3          	bnez	s6,8998 <prints+0xb6>
    89a8:	9926                	add	s2,s2,s1
    89aa:	bf5d                	j	8960 <prints+0x7e>
    89ac:	8552                	mv	a0,s4
    89ae:	eebff0ef          	jal	ra,8898 <printchar>
    89b2:	0485                	addi	s1,s1,1
    89b4:	b77d                	j	8962 <prints+0x80>
    89b6:	85ce                	mv	a1,s3
    89b8:	8552                	mv	a0,s4
    89ba:	edfff0ef          	jal	ra,8898 <printchar>
    89be:	197d                	addi	s2,s2,-1
    89c0:	bf45                	j	8970 <prints+0x8e>

000089c2 <printInt>:
printInt():
    89c2:	715d                	addi	sp,sp,-80
    89c4:	c2a6                	sw	s1,68(sp)
    89c6:	dc52                	sw	s4,56(sp)
    89c8:	c686                	sw	ra,76(sp)
    89ca:	c4a2                	sw	s0,72(sp)
    89cc:	c0ca                	sw	s2,64(sp)
    89ce:	de4e                	sw	s3,60(sp)
    89d0:	da56                	sw	s5,52(sp)
    89d2:	84ba                	mv	s1,a4
    89d4:	8a3e                	mv	s4,a5
    89d6:	e19d                	bnez	a1,89fc <printInt+0x3a>
    89d8:	03000793          	li	a5,48
    89dc:	4701                	li	a4,0
    89de:	86d2                	mv	a3,s4
    89e0:	8626                	mv	a2,s1
    89e2:	082c                	addi	a1,sp,24
    89e4:	84fc                	sh	a5,24(sp)
    89e6:	efdff0ef          	jal	ra,88e2 <prints>
    89ea:	40b6                	lw	ra,76(sp)
    89ec:	4426                	lw	s0,72(sp)
    89ee:	4496                	lw	s1,68(sp)
    89f0:	4906                	lw	s2,64(sp)
    89f2:	59f2                	lw	s3,60(sp)
    89f4:	5a62                	lw	s4,56(sp)
    89f6:	5ad2                	lw	s5,52(sp)
    89f8:	6161                	addi	sp,sp,80
    89fa:	8082                	ret
    89fc:	892a                	mv	s2,a0
    89fe:	8436                	mv	s0,a3
    8a00:	8ac6                	mv	s5,a7
    8a02:	ca91                	beqz	a3,8a16 <printInt+0x54>
    8a04:	47a9                	li	a5,10
    8a06:	4401                	li	s0,0
    8a08:	00f61763          	bne	a2,a5,8a16 <printInt+0x54>
    8a0c:	0005d563          	bgez	a1,8a16 <printInt+0x54>
    8a10:	40b005b3          	neg	a1,a1
    8a14:	4405                	li	s0,1
    8a16:	020107a3          	sb	zero,47(sp)
    8a1a:	02f10793          	addi	a5,sp,47
    8a1e:	46a5                	li	a3,9
    8a20:	fc680513          	addi	a0,a6,-58
    8a24:	02c5f733          	remu	a4,a1,a2
    8a28:	00e6d363          	bge	a3,a4,8a2e <printInt+0x6c>
    8a2c:	972a                	add	a4,a4,a0
    8a2e:	03070713          	addi	a4,a4,48
    8a32:	fee78fa3          	sb	a4,-1(a5)
    8a36:	fff78993          	addi	s3,a5,-1
    8a3a:	02c5d733          	divu	a4,a1,a2
    8a3e:	04c5fb63          	bgeu	a1,a2,8a94 <printInt+0xd2>
    8a42:	cc09                	beqz	s0,8a5c <printInt+0x9a>
    8a44:	c8b9                	beqz	s1,8a9a <printInt+0xd8>
    8a46:	002a7713          	andi	a4,s4,2
    8a4a:	cb21                	beqz	a4,8a9a <printInt+0xd8>
    8a4c:	02d00593          	li	a1,45
    8a50:	854a                	mv	a0,s2
    8a52:	c642                	sw	a6,12(sp)
    8a54:	e45ff0ef          	jal	ra,8898 <printchar>
    8a58:	4832                	lw	a6,12(sp)
    8a5a:	14fd                	addi	s1,s1,-1
    8a5c:	004a7793          	andi	a5,s4,4
    8a60:	c38d                	beqz	a5,8a82 <printInt+0xc0>
    8a62:	06100793          	li	a5,97
    8a66:	03000593          	li	a1,48
    8a6a:	854a                	mv	a0,s2
    8a6c:	02f81f63          	bne	a6,a5,8aaa <printInt+0xe8>
    8a70:	e29ff0ef          	jal	ra,8898 <printchar>
    8a74:	07800593          	li	a1,120
    8a78:	854a                	mv	a0,s2
    8a7a:	e1fff0ef          	jal	ra,8898 <printchar>
    8a7e:	0409                	addi	s0,s0,2
    8a80:	14f9                	addi	s1,s1,-2
    8a82:	8756                	mv	a4,s5
    8a84:	86d2                	mv	a3,s4
    8a86:	8626                	mv	a2,s1
    8a88:	85ce                	mv	a1,s3
    8a8a:	854a                	mv	a0,s2
    8a8c:	e57ff0ef          	jal	ra,88e2 <prints>
    8a90:	9522                	add	a0,a0,s0
    8a92:	bfa1                	j	89ea <printInt+0x28>
    8a94:	85ba                	mv	a1,a4
    8a96:	87ce                	mv	a5,s3
    8a98:	b771                	j	8a24 <printInt+0x62>
    8a9a:	02d00713          	li	a4,45
    8a9e:	fee98fa3          	sb	a4,-1(s3) # ffff <_data_lma+0x43ab>
    8aa2:	4401                	li	s0,0
    8aa4:	ffe78993          	addi	s3,a5,-2
    8aa8:	bf55                	j	8a5c <printInt+0x9a>
    8aaa:	defff0ef          	jal	ra,8898 <printchar>
    8aae:	05800593          	li	a1,88
    8ab2:	b7d9                	j	8a78 <printInt+0xb6>

00008ab4 <printLongLongInt>:
printLongLongInt():
    8ab4:	4501                	li	a0,0
    8ab6:	8082                	ret

00008ab8 <printDouble>:
printDouble():
    8ab8:	4501                	li	a0,0
    8aba:	8082                	ret

00008abc <print>:
print():
    8abc:	7139                	addi	sp,sp,-64
    8abe:	d05a                	sw	s6,32(sp)
    8ac0:	0000cb37          	lui	s6,0xc
    8ac4:	dc22                	sw	s0,56(sp)
    8ac6:	da26                	sw	s1,52(sp)
    8ac8:	d84a                	sw	s2,48(sp)
    8aca:	d64e                	sw	s3,44(sp)
    8acc:	d452                	sw	s4,40(sp)
    8ace:	d256                	sw	s5,36(sp)
    8ad0:	ce5e                	sw	s7,28(sp)
    8ad2:	cc62                	sw	s8,24(sp)
    8ad4:	de06                	sw	ra,60(sp)
    8ad6:	ca66                	sw	s9,20(sp)
    8ad8:	89aa                	mv	s3,a0
    8ada:	892e                	mv	s2,a1
    8adc:	8432                	mv	s0,a2
    8ade:	4a01                	li	s4,0
    8ae0:	4481                	li	s1,0
    8ae2:	02500b93          	li	s7,37
    8ae6:	02b00a93          	li	s5,43
    8aea:	4c29                	li	s8,10
    8aec:	c4cb0b13          	addi	s6,s6,-948 # bc4c <tcp_backoff+0x30>
    8af0:	00090583          	lb	a1,0(s2)
    8af4:	e58d                	bnez	a1,8b1e <print+0x62>
    8af6:	00098663          	beqz	s3,8b02 <print+0x46>
    8afa:	4581                	li	a1,0
    8afc:	854e                	mv	a0,s3
    8afe:	d9bff0ef          	jal	ra,8898 <printchar>
    8b02:	50f2                	lw	ra,60(sp)
    8b04:	5462                	lw	s0,56(sp)
    8b06:	8526                	mv	a0,s1
    8b08:	5942                	lw	s2,48(sp)
    8b0a:	54d2                	lw	s1,52(sp)
    8b0c:	59b2                	lw	s3,44(sp)
    8b0e:	5a22                	lw	s4,40(sp)
    8b10:	5a92                	lw	s5,36(sp)
    8b12:	5b02                	lw	s6,32(sp)
    8b14:	4bf2                	lw	s7,28(sp)
    8b16:	4c62                	lw	s8,24(sp)
    8b18:	4cd2                	lw	s9,20(sp)
    8b1a:	6121                	addi	sp,sp,64
    8b1c:	8082                	ret
    8b1e:	01758863          	beq	a1,s7,8b2e <print+0x72>
    8b22:	854e                	mv	a0,s3
    8b24:	d75ff0ef          	jal	ra,8898 <printchar>
    8b28:	0485                	addi	s1,s1,1
    8b2a:	0905                	addi	s2,s2,1
    8b2c:	b7d1                	j	8af0 <print+0x34>
    8b2e:	00190783          	lb	a5,1(s2)
    8b32:	00190c93          	addi	s9,s2,1
    8b36:	01779a63          	bne	a5,s7,8b4a <print+0x8e>
    8b3a:	02500593          	li	a1,37
    8b3e:	854e                	mv	a0,s3
    8b40:	d59ff0ef          	jal	ra,8898 <printchar>
    8b44:	0485                	addi	s1,s1,1
    8b46:	8966                	mv	s2,s9
    8b48:	b7cd                	j	8b2a <print+0x6e>
    8b4a:	d7d5                	beqz	a5,8af6 <print+0x3a>
    8b4c:	05578763          	beq	a5,s5,8b9a <print+0xde>
    8b50:	00fac863          	blt	s5,a5,8b60 <print+0xa4>
    8b54:	02300713          	li	a4,35
    8b58:	04e78463          	beq	a5,a4,8ba0 <print+0xe4>
    8b5c:	4781                	li	a5,0
    8b5e:	a005                	j	8b7e <print+0xc2>
    8b60:	02d00713          	li	a4,45
    8b64:	00e78a63          	beq	a5,a4,8b78 <print+0xbc>
    8b68:	03000713          	li	a4,48
    8b6c:	fee798e3          	bne	a5,a4,8b5c <print+0xa0>
    8b70:	00290c93          	addi	s9,s2,2
    8b74:	4789                	li	a5,2
    8b76:	a021                	j	8b7e <print+0xc2>
    8b78:	00290c93          	addi	s9,s2,2
    8b7c:	4785                	li	a5,1
    8b7e:	000c8703          	lb	a4,0(s9)
    8b82:	05570363          	beq	a4,s5,8bc8 <print+0x10c>
    8b86:	02eac163          	blt	s5,a4,8ba8 <print+0xec>
    8b8a:	02300693          	li	a3,35
    8b8e:	02d70b63          	beq	a4,a3,8bc4 <print+0x108>
    8b92:	8966                	mv	s2,s9
    8b94:	4601                	li	a2,0
    8b96:	45a5                	li	a1,9
    8b98:	a835                	j	8bd4 <print+0x118>
    8b9a:	00290c93          	addi	s9,s2,2
    8b9e:	bf7d                	j	8b5c <print+0xa0>
    8ba0:	00290c93          	addi	s9,s2,2
    8ba4:	4791                	li	a5,4
    8ba6:	bfe1                	j	8b7e <print+0xc2>
    8ba8:	02d00693          	li	a3,45
    8bac:	00d70963          	beq	a4,a3,8bbe <print+0x102>
    8bb0:	03000693          	li	a3,48
    8bb4:	fcd71fe3          	bne	a4,a3,8b92 <print+0xd6>
    8bb8:	0027e793          	ori	a5,a5,2
    8bbc:	a031                	j	8bc8 <print+0x10c>
    8bbe:	0c85                	addi	s9,s9,1
    8bc0:	4785                	li	a5,1
    8bc2:	bfc1                	j	8b92 <print+0xd6>
    8bc4:	0047e793          	ori	a5,a5,4
    8bc8:	0c85                	addi	s9,s9,1
    8bca:	b7e1                	j	8b92 <print+0xd6>
    8bcc:	03860633          	mul	a2,a2,s8
    8bd0:	0905                	addi	s2,s2,1
    8bd2:	9636                	add	a2,a2,a3
    8bd4:	00090703          	lb	a4,0(s2)
    8bd8:	fd070693          	addi	a3,a4,-48
    8bdc:	0ff6f513          	andi	a0,a3,255
    8be0:	fea5f6e3          	bgeu	a1,a0,8bcc <print+0x110>
    8be4:	02e00593          	li	a1,46
    8be8:	4699                	li	a3,6
    8bea:	00b71e63          	bne	a4,a1,8c06 <print+0x14a>
    8bee:	0905                	addi	s2,s2,1
    8bf0:	4681                	li	a3,0
    8bf2:	45a5                	li	a1,9
    8bf4:	00090703          	lb	a4,0(s2)
    8bf8:	fd070713          	addi	a4,a4,-48
    8bfc:	0ff77513          	andi	a0,a4,255
    8c00:	02a5f563          	bgeu	a1,a0,8c2a <print+0x16e>
    8c04:	8a36                	mv	s4,a3
    8c06:	00090703          	lb	a4,0(s2)
    8c0a:	06a00593          	li	a1,106
    8c0e:	0ab70163          	beq	a4,a1,8cb0 <print+0x1f4>
    8c12:	02e5c163          	blt	a1,a4,8c34 <print+0x178>
    8c16:	04c00593          	li	a1,76
    8c1a:	08b70b63          	beq	a4,a1,8cb0 <print+0x1f4>
    8c1e:	06800593          	li	a1,104
    8c22:	08b70063          	beq	a4,a1,8ca2 <print+0x1e6>
    8c26:	4581                	li	a1,0
    8c28:	a02d                	j	8c52 <print+0x196>
    8c2a:	038686b3          	mul	a3,a3,s8
    8c2e:	0905                	addi	s2,s2,1
    8c30:	96ba                	add	a3,a3,a4
    8c32:	b7c9                	j	8bf4 <print+0x138>
    8c34:	07400593          	li	a1,116
    8c38:	06b70c63          	beq	a4,a1,8cb0 <print+0x1f4>
    8c3c:	07a00593          	li	a1,122
    8c40:	06b70863          	beq	a4,a1,8cb0 <print+0x1f4>
    8c44:	06c00513          	li	a0,108
    8c48:	4581                	li	a1,0
    8c4a:	00a71463          	bne	a4,a0,8c52 <print+0x196>
    8c4e:	0905                	addi	s2,s2,1
    8c50:	4591                	li	a1,4
    8c52:	00090703          	lb	a4,0(s2)
    8c56:	06000513          	li	a0,96
    8c5a:	06100813          	li	a6,97
    8c5e:	00e54463          	blt	a0,a4,8c66 <print+0x1aa>
    8c62:	04100813          	li	a6,65
    8c66:	06700513          	li	a0,103
    8c6a:	06e54063          	blt	a0,a4,8cca <print+0x20e>
    8c6e:	06500513          	li	a0,101
    8c72:	14a75563          	bge	a4,a0,8dbc <print+0x300>
    8c76:	04700513          	li	a0,71
    8c7a:	02e54d63          	blt	a0,a4,8cb4 <print+0x1f8>
    8c7e:	04500593          	li	a1,69
    8c82:	12b75d63          	bge	a4,a1,8dbc <print+0x300>
    8c86:	04300693          	li	a3,67
    8c8a:	ead710e3          	bne	a4,a3,8b2a <print+0x6e>
    8c8e:	4018                	lw	a4,0(s0)
    8c90:	00440c93          	addi	s9,s0,4
    8c94:	000106a3          	sb	zero,13(sp)
    8c98:	8658                	sb	a4,12(sp)
    8c9a:	86be                	mv	a3,a5
    8c9c:	4701                	li	a4,0
    8c9e:	006c                	addi	a1,sp,12
    8ca0:	a041                	j	8d20 <print+0x264>
    8ca2:	00190503          	lb	a0,1(s2)
    8ca6:	4581                	li	a1,0
    8ca8:	fae515e3          	bne	a0,a4,8c52 <print+0x196>
    8cac:	0909                	addi	s2,s2,2
    8cae:	b755                	j	8c52 <print+0x196>
    8cb0:	0905                	addi	s2,s2,1
    8cb2:	bf95                	j	8c26 <print+0x16a>
    8cb4:	06300693          	li	a3,99
    8cb8:	fcd70be3          	beq	a4,a3,8c8e <print+0x1d2>
    8cbc:	06e6c663          	blt	a3,a4,8d28 <print+0x26c>
    8cc0:	05800693          	li	a3,88
    8cc4:	02d70363          	beq	a4,a3,8cea <print+0x22e>
    8cc8:	b58d                	j	8b2a <print+0x6e>
    8cca:	07300693          	li	a3,115
    8cce:	04d70163          	beq	a4,a3,8d10 <print+0x254>
    8cd2:	02e6c863          	blt	a3,a4,8d02 <print+0x246>
    8cd6:	06f00693          	li	a3,111
    8cda:	0ad70e63          	beq	a4,a3,8d96 <print+0x2da>
    8cde:	07000693          	li	a3,112
    8ce2:	0047e793          	ori	a5,a5,4
    8ce6:	e4d712e3          	bne	a4,a3,8b2a <print+0x6e>
    8cea:	cdd9                	beqz	a1,8d88 <print+0x2cc>
    8cec:	041d                	addi	s0,s0,7
    8cee:	ff847593          	andi	a1,s0,-8
    8cf2:	88c2                	mv	a7,a6
    8cf4:	00858413          	addi	s0,a1,8
    8cf8:	883e                	mv	a6,a5
    8cfa:	4701                	li	a4,0
    8cfc:	87b2                	mv	a5,a2
    8cfe:	46c1                	li	a3,16
    8d00:	a83d                	j	8d3e <print+0x282>
    8d02:	07500693          	li	a3,117
    8d06:	06d70063          	beq	a4,a3,8d66 <print+0x2aa>
    8d0a:	07800693          	li	a3,120
    8d0e:	bf5d                	j	8cc4 <print+0x208>
    8d10:	4018                	lw	a4,0(s0)
    8d12:	00440c93          	addi	s9,s0,4
    8d16:	85da                	mv	a1,s6
    8d18:	c311                	beqz	a4,8d1c <print+0x260>
    8d1a:	85ba                	mv	a1,a4
    8d1c:	8752                	mv	a4,s4
    8d1e:	86be                	mv	a3,a5
    8d20:	854e                	mv	a0,s3
    8d22:	bc1ff0ef          	jal	ra,88e2 <prints>
    8d26:	a82d                	j	8d60 <print+0x2a4>
    8d28:	c195                	beqz	a1,8d4c <print+0x290>
    8d2a:	041d                	addi	s0,s0,7
    8d2c:	ff847593          	andi	a1,s0,-8
    8d30:	88c2                	mv	a7,a6
    8d32:	00858413          	addi	s0,a1,8
    8d36:	883e                	mv	a6,a5
    8d38:	4705                	li	a4,1
    8d3a:	87b2                	mv	a5,a2
    8d3c:	46a9                	li	a3,10
    8d3e:	41d0                	lw	a2,4(a1)
    8d40:	418c                	lw	a1,0(a1)
    8d42:	854e                	mv	a0,s3
    8d44:	d71ff0ef          	jal	ra,8ab4 <printLongLongInt>
    8d48:	94aa                	add	s1,s1,a0
    8d4a:	b3c5                	j	8b2a <print+0x6e>
    8d4c:	00440c93          	addi	s9,s0,4
    8d50:	88d2                	mv	a7,s4
    8d52:	8732                	mv	a4,a2
    8d54:	4685                	li	a3,1
    8d56:	4629                	li	a2,10
    8d58:	400c                	lw	a1,0(s0)
    8d5a:	854e                	mv	a0,s3
    8d5c:	c67ff0ef          	jal	ra,89c2 <printInt>
    8d60:	94aa                	add	s1,s1,a0
    8d62:	8466                	mv	s0,s9
    8d64:	b3d9                	j	8b2a <print+0x6e>
    8d66:	c999                	beqz	a1,8d7c <print+0x2c0>
    8d68:	041d                	addi	s0,s0,7
    8d6a:	ff847593          	andi	a1,s0,-8
    8d6e:	88c2                	mv	a7,a6
    8d70:	00858413          	addi	s0,a1,8
    8d74:	883e                	mv	a6,a5
    8d76:	4701                	li	a4,0
    8d78:	87b2                	mv	a5,a2
    8d7a:	b7c9                	j	8d3c <print+0x280>
    8d7c:	00440c93          	addi	s9,s0,4
    8d80:	88d2                	mv	a7,s4
    8d82:	8732                	mv	a4,a2
    8d84:	4681                	li	a3,0
    8d86:	bfc1                	j	8d56 <print+0x29a>
    8d88:	8732                	mv	a4,a2
    8d8a:	00440c93          	addi	s9,s0,4
    8d8e:	88d2                	mv	a7,s4
    8d90:	4681                	li	a3,0
    8d92:	4641                	li	a2,16
    8d94:	b7d1                	j	8d58 <print+0x29c>
    8d96:	cd81                	beqz	a1,8dae <print+0x2f2>
    8d98:	041d                	addi	s0,s0,7
    8d9a:	ff847593          	andi	a1,s0,-8
    8d9e:	88c2                	mv	a7,a6
    8da0:	00858413          	addi	s0,a1,8
    8da4:	883e                	mv	a6,a5
    8da6:	4701                	li	a4,0
    8da8:	87b2                	mv	a5,a2
    8daa:	46a1                	li	a3,8
    8dac:	bf49                	j	8d3e <print+0x282>
    8dae:	8732                	mv	a4,a2
    8db0:	00440c93          	addi	s9,s0,4
    8db4:	88d2                	mv	a7,s4
    8db6:	4681                	li	a3,0
    8db8:	4621                	li	a2,8
    8dba:	bf79                	j	8d58 <print+0x29c>
    8dbc:	041d                	addi	s0,s0,7
    8dbe:	ff847593          	andi	a1,s0,-8
    8dc2:	00858413          	addi	s0,a1,8
    8dc6:	8732                	mv	a4,a2
    8dc8:	41d0                	lw	a2,4(a1)
    8dca:	418c                	lw	a1,0(a1)
    8dcc:	88c2                	mv	a7,a6
    8dce:	854e                	mv	a0,s3
    8dd0:	883e                	mv	a6,a5
    8dd2:	87b6                	mv	a5,a3
    8dd4:	46a9                	li	a3,10
    8dd6:	ce3ff0ef          	jal	ra,8ab8 <printDouble>
    8dda:	b7bd                	j	8d48 <print+0x28c>

00008ddc <printf>:
printf():
    8ddc:	7139                	addi	sp,sp,-64
    8dde:	d22e                	sw	a1,36(sp)
    8de0:	d432                	sw	a2,40(sp)
    8de2:	85aa                	mv	a1,a0
    8de4:	1050                	addi	a2,sp,36
    8de6:	4501                	li	a0,0
    8de8:	ce06                	sw	ra,28(sp)
    8dea:	d636                	sw	a3,44(sp)
    8dec:	d83a                	sw	a4,48(sp)
    8dee:	da3e                	sw	a5,52(sp)
    8df0:	dc42                	sw	a6,56(sp)
    8df2:	de46                	sw	a7,60(sp)
    8df4:	c632                	sw	a2,12(sp)
    8df6:	cc7ff0ef          	jal	ra,8abc <print>
    8dfa:	40f2                	lw	ra,28(sp)
    8dfc:	6121                	addi	sp,sp,64
    8dfe:	8082                	ret

00008e00 <puts>:
puts():
    8e00:	1101                	addi	sp,sp,-32
    8e02:	cc22                	sw	s0,24(sp)
    8e04:	ca26                	sw	s1,20(sp)
    8e06:	ce06                	sw	ra,28(sp)
    8e08:	211c                	lbu	a5,0(a0)
    8e0a:	84aa                	mv	s1,a0
    8e0c:	4401                	li	s0,0
    8e0e:	87dc                	sb	a5,15(sp)
    8e10:	00f10783          	lb	a5,15(sp)
    8e14:	0405                	addi	s0,s0,1
    8e16:	ef99                	bnez	a5,8e34 <puts+0x34>
    8e18:	47a9                	li	a5,10
    8e1a:	00f10593          	addi	a1,sp,15
    8e1e:	4605                	li	a2,1
    8e20:	4501                	li	a0,0
    8e22:	87dc                	sb	a5,15(sp)
    8e24:	a0af90ef          	jal	ra,202e <_write>
    8e28:	8522                	mv	a0,s0
    8e2a:	40f2                	lw	ra,28(sp)
    8e2c:	4462                	lw	s0,24(sp)
    8e2e:	44d2                	lw	s1,20(sp)
    8e30:	6105                	addi	sp,sp,32
    8e32:	8082                	ret
    8e34:	4605                	li	a2,1
    8e36:	00f10593          	addi	a1,sp,15
    8e3a:	4501                	li	a0,0
    8e3c:	9f2f90ef          	jal	ra,202e <_write>
    8e40:	008487b3          	add	a5,s1,s0
    8e44:	239c                	lbu	a5,0(a5)
    8e46:	87dc                	sb	a5,15(sp)
    8e48:	b7e1                	j	8e10 <puts+0x10>

00008e4a <putchar>:
putchar():
    8e4a:	1101                	addi	sp,sp,-32
    8e4c:	c62a                	sw	a0,12(sp)
    8e4e:	006c                	addi	a1,sp,12
    8e50:	4605                	li	a2,1
    8e52:	4501                	li	a0,0
    8e54:	ce06                	sw	ra,28(sp)
    8e56:	9d8f90ef          	jal	ra,202e <_write>
    8e5a:	40f2                	lw	ra,28(sp)
    8e5c:	4505                	li	a0,1
    8e5e:	6105                	addi	sp,sp,32
    8e60:	8082                	ret

00008e62 <memcpy>:
memcpy():
    8e62:	00a5c7b3          	xor	a5,a1,a0
    8e66:	8b8d                	andi	a5,a5,3
    8e68:	00c50733          	add	a4,a0,a2
    8e6c:	e781                	bnez	a5,8e74 <memcpy+0x12>
    8e6e:	478d                	li	a5,3
    8e70:	00c7ed63          	bltu	a5,a2,8e8a <memcpy+0x28>
    8e74:	87aa                	mv	a5,a0
    8e76:	08e57e63          	bgeu	a0,a4,8f12 <memcpy+0xb0>
    8e7a:	2194                	lbu	a3,0(a1)
    8e7c:	0785                	addi	a5,a5,1
    8e7e:	0585                	addi	a1,a1,1
    8e80:	fed78fa3          	sb	a3,-1(a5)
    8e84:	fee7ebe3          	bltu	a5,a4,8e7a <memcpy+0x18>
    8e88:	8082                	ret
    8e8a:	00357693          	andi	a3,a0,3
    8e8e:	87aa                	mv	a5,a0
    8e90:	ca89                	beqz	a3,8ea2 <memcpy+0x40>
    8e92:	2194                	lbu	a3,0(a1)
    8e94:	0785                	addi	a5,a5,1
    8e96:	0585                	addi	a1,a1,1
    8e98:	fed78fa3          	sb	a3,-1(a5)
    8e9c:	0037f693          	andi	a3,a5,3
    8ea0:	bfc5                	j	8e90 <memcpy+0x2e>
    8ea2:	ffc77693          	andi	a3,a4,-4
    8ea6:	fe068613          	addi	a2,a3,-32
    8eaa:	06c7f063          	bgeu	a5,a2,8f0a <memcpy+0xa8>
    8eae:	0005a383          	lw	t2,0(a1)
    8eb2:	0045a283          	lw	t0,4(a1)
    8eb6:	0085af83          	lw	t6,8(a1)
    8eba:	00c5af03          	lw	t5,12(a1)
    8ebe:	0105ae83          	lw	t4,16(a1)
    8ec2:	0145ae03          	lw	t3,20(a1)
    8ec6:	0185a303          	lw	t1,24(a1)
    8eca:	01c5a883          	lw	a7,28(a1)
    8ece:	02458593          	addi	a1,a1,36
    8ed2:	0077a023          	sw	t2,0(a5)
    8ed6:	ffc5a803          	lw	a6,-4(a1)
    8eda:	0057a223          	sw	t0,4(a5)
    8ede:	01f7a423          	sw	t6,8(a5)
    8ee2:	01e7a623          	sw	t5,12(a5)
    8ee6:	01d7a823          	sw	t4,16(a5)
    8eea:	01c7aa23          	sw	t3,20(a5)
    8eee:	0067ac23          	sw	t1,24(a5)
    8ef2:	0117ae23          	sw	a7,28(a5)
    8ef6:	02478793          	addi	a5,a5,36
    8efa:	ff07ae23          	sw	a6,-4(a5)
    8efe:	b775                	j	8eaa <memcpy+0x48>
    8f00:	4190                	lw	a2,0(a1)
    8f02:	0791                	addi	a5,a5,4
    8f04:	0591                	addi	a1,a1,4
    8f06:	fec7ae23          	sw	a2,-4(a5)
    8f0a:	fed7ebe3          	bltu	a5,a3,8f00 <memcpy+0x9e>
    8f0e:	f6e7e6e3          	bltu	a5,a4,8e7a <memcpy+0x18>
    8f12:	8082                	ret

00008f14 <stpncpy>:
stpncpy():
    8f14:	e609                	bnez	a2,8f1e <stpncpy+0xa>
    8f16:	87aa                	mv	a5,a0
    8f18:	4501                	li	a0,0
    8f1a:	963e                	add	a2,a2,a5
    8f1c:	a839                	j	8f3a <stpncpy+0x26>
    8f1e:	0585                	addi	a1,a1,1
    8f20:	fff5c703          	lbu	a4,-1(a1)
    8f24:	00150793          	addi	a5,a0,1
    8f28:	167d                	addi	a2,a2,-1
    8f2a:	fee78fa3          	sb	a4,-1(a5)
    8f2e:	d775                	beqz	a4,8f1a <stpncpy+0x6>
    8f30:	853e                	mv	a0,a5
    8f32:	b7cd                	j	8f14 <stpncpy>
    8f34:	0785                	addi	a5,a5,1
    8f36:	fe078fa3          	sb	zero,-1(a5)
    8f3a:	fec79de3          	bne	a5,a2,8f34 <stpncpy+0x20>
    8f3e:	e111                	bnez	a0,8f42 <stpncpy+0x2e>
    8f40:	853e                	mv	a0,a5
    8f42:	8082                	ret
    8f44:	6148                	flw	fa0,4(a0)
    8f46:	6472                	flw	fs0,28(sp)
    8f48:	6146                	flw	ft2,80(sp)
    8f4a:	6c75                	lui	s8,0x1d
    8f4c:	5f74                	lw	a3,124(a4)
    8f4e:	6148                	flw	fa0,4(a0)
    8f50:	646e                	flw	fs0,216(sp)
    8f52:	656c                	flw	fa1,76(a0)
    8f54:	0d72                	slli	s10,s10,0x1c
    8f56:	0000                	unimp
    8f58:	656d                	lui	a0,0x1b
    8f5a:	6370                	flw	fa2,68(a4)
    8f5c:	2020                	lbu	s0,2(s0)
    8f5e:	253a                	lhu	a4,10(a0)
    8f60:	3830                	lbu	a2,19(s0)
    8f62:	0d78                	addi	a4,sp,668
    8f64:	000a                	c.slli	zero,0x2
    8f66:	0000                	unimp
    8f68:	636d                	lui	t1,0x1b
    8f6a:	7561                	lui	a0,0xffff8
    8f6c:	253a6573          	csrrsi	a0,0x253,20
    8f70:	3830                	lbu	a2,19(s0)
    8f72:	0d78                	addi	a4,sp,668
    8f74:	000a                	c.slli	zero,0x2
    8f76:	0000                	unimp
    8f78:	746d                	lui	s0,0xffffb
    8f7a:	6176                	flw	ft2,92(sp)
    8f7c:	206c                	lbu	a1,6(s0)
    8f7e:	253a                	lhu	a4,10(a0)
    8f80:	3830                	lbu	a2,19(s0)
    8f82:	0d78                	addi	a4,sp,668
    8f84:	000a                	c.slli	zero,0x2
    8f86:	0000                	unimp
    8f88:	4e484357          	0x4e484357
    8f8c:	5445                	li	s0,-15
    8f8e:	535f 636f 656b      	0x656b636f535f
    8f94:	4374                	lw	a3,68(a4)
    8f96:	6572                	flw	fa0,28(sp)
    8f98:	7461                	lui	s0,0xffff8
    8f9a:	2520                	lbu	s0,10(a0)
    8f9c:	0d64                	addi	s1,sp,668
    8f9e:	000a                	c.slli	zero,0x2
    8fa0:	76726573          	csrrsi	a0,0x767,4
    8fa4:	7265                	lui	tp,0xffff9
    8fa6:	645f 7461 3d61      	0x3d617461645f
    8fac:	7325                	lui	t1,0xfffe9
    8fae:	0000                	unimp
    8fb0:	544e4947          	0x544e4947
    8fb4:	535f 4154 5f54      	0x5f544154535f
    8fba:	4e55                	li	t3,21
    8fbc:	4552                	lw	a0,20(sp)
    8fbe:	4341                	li	t1,16
    8fc0:	0d48                	addi	a0,sp,660
    8fc2:	0000                	unimp
    8fc4:	544e4947          	0x544e4947
    8fc8:	535f 4154 5f54      	0x5f544154535f
    8fce:	5049                	c.li	zero,-14
    8fd0:	435f 4e4f 4c46      	0x4c464e4f435f
    8fd6:	0d49                	addi	s10,s10,18
    8fd8:	0000                	unimp
    8fda:	0000                	unimp
    8fdc:	4850                	lw	a2,20(s0)
    8fde:	2059                	jal	9064 <stpncpy+0x150>
    8fe0:	694c                	flw	fa1,20(a0)
    8fe2:	6b6e                	flw	fs6,216(sp)
    8fe4:	5320                	lw	s0,96(a4)
    8fe6:	6375                	lui	t1,0x1d
    8fe8:	73736563          	bltu	t1,s7,9712 <asc2_2412+0x42>
    8fec:	000d                	c.nop	3
    8fee:	0000                	unimp
    8ff0:	4354                	lw	a3,4(a4)
    8ff2:	2050                	lbu	a2,4(s0)
    8ff4:	6e6e6f43          	fmadd.q	ft10,ft8,ft6,fa3,unknown
    8ff8:	6365                	lui	t1,0x19
    8ffa:	2074                	lbu	a3,6(s0)
    8ffc:	63637553          	0x63637553
    9000:	7365                	lui	t1,0xffff9
    9002:	00000d73          	0xd73
    9006:	0000                	unimp
    9008:	6b636f73          	csrrsi	t5,0x6b6,6
    900c:	7465                	lui	s0,0xffff9
    900e:	6920                	flw	fs0,80(a0)
    9010:	3a64                	lbu	s1,23(a2)
    9012:	2520                	lbu	s0,10(a0)
    9014:	0d64                	addi	s1,sp,668
    9016:	000a                	c.slli	zero,0x2
    9018:	4354                	lw	a3,4(a4)
    901a:	2050                	lbu	a2,4(s0)
    901c:	6944                	flw	fs1,20(a0)
    901e:	6e6f6373          	csrrsi	t1,0x6e6,30
    9022:	656e                	flw	fa0,216(sp)
    9024:	000d7463          	bgeu	s10,zero,902c <stpncpy+0x118>
    9028:	4354                	lw	a3,4(a4)
    902a:	2050                	lbu	a2,4(s0)
    902c:	6954                	flw	fa3,20(a0)
    902e:	656d                	lui	a0,0x1b
    9030:	0d74756f          	jal	a0,50906 <_data_lma+0x44cb2>
    9034:	0000                	unimp
    9036:	0000                	unimp
    9038:	7245                	lui	tp,0xffff1
    903a:	6f72                	flw	ft10,28(sp)
    903c:	3a72                	lhu	a2,54(a2)
    903e:	2520                	lbu	s0,10(a0)
    9040:	3230                	lbu	a2,3(a2)
    9042:	0d58                	addi	a4,sp,660
    9044:	000a                	c.slli	zero,0x2
    9046:	0000                	unimp
    9048:	6354                	flw	fa3,4(a4)
    904a:	4370                	lw	a2,68(a4)
    904c:	696c                	flw	fa1,84(a0)
    904e:	6e65                	lui	t3,0x19
    9050:	2074                	lbu	a3,6(s0)
    9052:	6554                	flw	fa3,12(a0)
    9054:	000d7473          	csrrci	s0,ustatus,26
    9058:	74737953          	0x74737953
    905c:	6d65                	lui	s10,0x19
    905e:	3a6b6c43          	fmadd.d	fs8,fs6,ft6,ft7,unknown
    9062:	6425                	lui	s0,0x9
    9064:	0a0d                	addi	s4,s4,3
    9066:	0000                	unimp
    9068:	70696843          	fmadd.s	fa6,fs2,ft6,fa4,unknown
    906c:	4449                	li	s0,18
    906e:	253a                	lhu	a4,10(a0)
    9070:	3830                	lbu	a2,19(s0)
    9072:	0d78                	addi	a4,sp,668
    9074:	000a                	c.slli	zero,0x2
    9076:	0000                	unimp
    9078:	656e                	flw	fa0,216(sp)
    907a:	2074                	lbu	a3,6(s0)
    907c:	6576                	flw	fa0,92(sp)
    907e:	7372                	flw	ft6,60(sp)
    9080:	6f69                	lui	t5,0x1a
    9082:	3a6e                	lhu	a1,54(a2)
    9084:	7825                	lui	a6,0xfffe9
    9086:	000a                	c.slli	zero,0x2
    9088:	6576                	flw	fa0,92(sp)
    908a:	7372                	flw	ft6,60(sp)
    908c:	6f69                	lui	t5,0x1a
    908e:	206e                	lhu	a1,6(s0)
    9090:	7265                	lui	tp,0xffff9
    9092:	6f72                	flw	ft10,28(sp)
    9094:	2e72                	lhu	a2,30(a2)
    9096:	0000                	unimp
    9098:	616d                	addi	sp,sp,240
    909a:	64612063          	0x64612063
    909e:	7264                	flw	fs1,100(a2)
    90a0:	003a                	c.slli	zero,0xe
    90a2:	0000                	unimp
    90a4:	7825                	lui	a6,0xfffe9
    90a6:	0020                	addi	s0,sp,8
    90a8:	4e484357          	0x4e484357
    90ac:	5445                	li	s0,-15
    90ae:	4c5f 6269 6e49      	0x6e4962694c5f
    90b4:	7469                	lui	s0,0xffffa
    90b6:	5320                	lw	s0,96(a4)
    90b8:	6375                	lui	t1,0x1d
    90ba:	73736563          	bltu	t1,s7,97e4 <asc2_2412+0x114>
    90be:	000d                	c.nop	3

000090c0 <MemNum>:
    90c0:	0000 0000 0001 0000 0002 0004 0002 0004     ................

000090d0 <MemSize>:
    90d0:	001c 0020 00b4 0024 0014 0010 0010 0600     .. ...$.........

000090e0 <asc2_1608>:
	...
    90f4:	0000 cc1f 0c00 0000 0000 0000 0000 0008     ................
    9104:	0030 0060 0008 0030 0060 0000 2002 fc03     0.`...0.`.... ..
    9114:	201e 2002 fc03 201e 2002 0000 0000 180e     . . ... . ......
    9124:	0411 ff3f 8410 780c 0000 0000 000f 8410     ..?....x........
    9134:	380f c000 7807 8418 7800 0000 7800 840f     .8...x...x...x..
    9144:	c410 2411 980e e400 8400 0800 0008 0068     ...$..........h.
    9154:	0070 0000 0000 0000 0000 0000 0000 0000     p...............
    9164:	0000 e007 1818 0420 0240 0000 0000 0240     ...... .@.....@.
    9174:	0420 1818 e007 0000 0000 0000 4002 4002      ............@.@
    9184:	8001 f00f 8001 4002 4002 0000 8000 8000     .......@.@......
    9194:	8000 f80f 8000 8000 8000 0000 0100 0d00     ................
    91a4:	0e00 0000 0000 0000 0000 0000 0000 8000     ................
    91b4:	8000 8000 8000 8000 8000 8000 0000 0c00     ................
    91c4:	0c00 0000 0000 0000 0000 0000 0000 0600     ................
    91d4:	1800 6000 8001 0006 0018 0020 0000 f007     ...`...... .....
    91e4:	0808 0410 0410 0808 f007 0000 0000 0408     ................
    91f4:	0408 fc1f 0400 0400 0000 0000 0000 0c0e     ................
    9204:	1410 2410 4410 8411 0c0e 0000 0000 180c     ...$.D..........
    9214:	0410 0411 0411 8812 700c 0000 0000 e000     .........p......
    9224:	2003 2404 2408 fc1f 2400 0000 0000 981f     . .$.$...$......
    9234:	8410 0411 0411 8810 7010 0000 0000 f007     .........p......
    9244:	8808 0411 0411 8818 7000 0000 0000 001c     .........p......
    9254:	0010 fc10 0013 001c 0010 0000 0000 380e     ...............8
    9264:	4411 8410 8410 4411 380e 0000 0000 0007     .D.....D.8......
    9274:	8c08 4410 4410 8808 f007 0000 0000 0000     ...D.D..........
    9284:	0000 0c03 0c03 0000 0000 0000 0000 0000     ................
    9294:	0100 0601 0000 0000 0000 0000 0000 8000     ................
    92a4:	4001 2002 1004 0808 0410 0000 2002 2002     .@. ......... . 
    92b4:	2002 2002 2002 2002 2002 0000 0000 0410     . . . . . ......
    92c4:	0808 1004 2002 4001 8000 0000 0000 000e     ..... .@........
    92d4:	0012 0c10 6c10 8010 000f 0000 e003 180c     .....l..........
    92e4:	e413 2414 c417 2808 d007 0000 0400 3c00     ...$...(.......<
    92f4:	c403 401c 4007 e400 1c00 0400 0410 fc1f     ...@.@..........
    9304:	0411 0411 0411 880e 7000 0000 e003 180c     .........p......
    9314:	0410 0410 0410 0810 101c 0000 0410 fc1f     ................
    9324:	0410 0410 0410 0808 f007 0000 0410 fc1f     ................
    9334:	0411 0411 c417 0410 1808 0000 0410 fc1f     ................
    9344:	0411 0011 c017 0010 0008 0000 e003 180c     ................
    9354:	0410 0410 4410 781c 4000 0000 0410 fc1f     .....D.x.@......
    9364:	8410 8000 8000 8410 fc1f 0410 0000 0410     ................
    9374:	0410 fc1f 0410 0410 0000 0000 0300 0100     ................
    9384:	0110 0110 fe1f 0010 0010 0000 0410 fc1f     ................
    9394:	0411 8003 6414 1c18 0410 0000 0410 fc1f     .....d..........
    93a4:	0410 0400 0400 0400 0c00 0000 0410 fc1f     ................
    93b4:	001f fc00 001f fc1f 0410 0000 0410 fc1f     ................
    93c4:	040c 0003 e000 1810 fc1f 0010 f007 0808     ................
    93d4:	0410 0410 0410 0808 f007 0000 0410 fc1f     ................
    93e4:	8410 8010 8010 8010 000f 0000 f007 1808     ................
    93f4:	2410 2410 1c10 0a08 f207 0000 0410 fc1f     .$.$............
    9404:	0411 0011 c011 3011 0c0e 0400 0000 1c0e     .......0........
    9414:	0411 8410 8410 4410 381c 0000 0018 0010     .......D.8......
    9424:	0410 fc1f 0410 0010 0018 0000 0010 f81f     ................
    9434:	0410 0400 0400 0410 f81f 0010 0010 001e     ................
    9444:	e011 1c00 7000 8013 001c 0010 c01f 3c10     .....p.........<
    9454:	e000 001f e000 3c10 c01f 0000 0410 0c18     .......<........
    9464:	3416 c001 c001 3416 0c18 0410 0010 001c     .4.....4........
    9474:	0413 fc00 0413 001c 0010 0000 0408 1c10     ................
    9484:	6410 8410 0413 041c 1810 0000 0000 0000     .d..............
    9494:	0000 fe7f 0240 0240 0240 0000 0000 0030     ....@.@.@.....0.
    94a4:	000c 8003 6000 1c00 0300 0000 0000 0240     .....`........@.
    94b4:	0240 0240 fe7f 0000 0000 0000 0000 0000     @.@.............
    94c4:	0020 0040 0040 0040 0020 0000 0100 0100      .@.@.@. .......
    94d4:	0100 0100 0100 0100 0100 0100 0000 0040     ..............@.
    94e4:	0040 0020 0000 0000 0000 0000 0000 9800     @. .............
    94f4:	2401 4401 4401 4401 fc00 0400 0010 fc1f     .$.D.D.D........
    9504:	8800 0401 0401 8800 7000 0000 0000 7000     .........p.....p
    9514:	8800 0401 0401 0401 8800 0000 0000 7000     ...............p
    9524:	8800 0401 0401 0811 fc1f 0400 0000 f800     ................
    9534:	4401 4401 4401 4401 c800 0000 0000 0401     .D.D.D.D........
    9544:	0401 fc0f 0411 0411 0011 0018 0000 d600     ................
    9554:	2901 2901 2901 c901 0601 0000 0410 fc1f     .).).)..........
    9564:	8400 0001 0001 0401 fc00 0400 0000 0401     ................
    9574:	0419 fc19 0400 0400 0000 0000 0000 0300     ................
    9584:	0100 0101 0119 fe19 0000 0000 0410 fc1f     ................
    9594:	2400 4000 b401 0c01 0401 0000 0000 0410     .$.@............
    95a4:	0410 fc1f 0400 0400 0000 0000 0401 fc01     ................
    95b4:	0401 0001 fc01 0401 0001 fc00 0401 fc01     ................
    95c4:	8400 0001 0001 0401 fc00 0400 0000 f800     ................
    95d4:	0401 0401 0401 0401 f800 0000 0101 ff01     ................
    95e4:	8500 0401 0401 8800 7000 0000 0000 7000     .........p.....p
    95f4:	8800 0401 0401 0501 ff01 0100 0401 0401     ................
    9604:	fc01 8400 0401 0001 8001 0000 0000 cc00     ................
    9614:	2401 2401 2401 2401 9801 0000 0000 0001     .$.$.$.$........
    9624:	0001 f807 0401 0401 0000 0000 0001 f801     ................
    9634:	0400 0400 0400 0801 fc01 0400 0001 8001     ................
    9644:	7001 0c00 1000 6001 8001 0001 f001 0c01     .p.....`........
    9654:	3000 c001 3000 0c01 f001 0001 0000 0401     .0...0..........
    9664:	8c01 7400 7001 8c01 0401 0000 0101 8101     ...t.p..........
    9674:	7101 0e00 1800 6001 8001 0001 0000 8401     .q.....`........
    9684:	0c01 3401 4401 8401 0c01 0000 0000 0000     ...4.D..........
    9694:	0000 0000 0001 fc3e 0240 0240 0000 0000     ......>.@.@.....
    96a4:	0000 0000 ffff 0000 0000 0000 0000 0240     ..............@.
    96b4:	0240 fc3e 0001 0000 0000 0000 0000 0060     @.>...........`.
    96c4:	0080 0080 0040 0040 0020 0020               ....@.@. . .

000096d0 <asc2_2412>:
	...
    9700:	0000 0f00 3880 fe0f 0f38 3880 0000 0000     .....8..8..8....
	...
    971c:	0000 0001 0600 0000 000c 3800 0000 0031     ...........8..1.
    972c:	0600 0000 000c 3800 0000 0030 0000 0000     .......8..0.....
    973c:	0000 0000 8061 6700 07f8 80f9 6100 0080     ....a..g.....a..
    974c:	8061 6100 0080 8061 6700 07f8 80f9 6100     a..a..a..g.....a
    975c:	0080 0000 0000 0000 0000 c001 03e0 f0e0     ................
    976c:	3006 0408 0818 ff1f 04fe 080e 8707 03f0     .0..............
    977c:	e081 0000 0000 0000 f001 0600 000c 0404     ................
    978c:	0608 700c f901 00c0 000e 3b00 00e0 18ec     ...p.......;....
    979c:	0807 0408 180c 0300 00e0 0000 0100 00e0     ................
    97ac:	f007 f803 0418 081c 1704 0708 d0e1 c003     ................
    97bc:	00e0 b023 3c00 0008 0820 0000 0010 0000     ..#..<.. .......
    97cc:	0000 0100 0000 0031 3200 0000 001c 0000     ......1..2......
	...
    9800:	007f ff01 07c0 f080 000c 1018 0400 0020     .............. .
    9810:	0002 0000 0000 2000 0200 0010 0c04 1800     ....... ........
    9820:	8007 01f0 c0ff 7f00 0000 0000 0000 0000     ................
	...
    983c:	0042 6600 0000 0066 3c00 0000 0018 ff03     B..f..f..<......
    984c:	00c0 0018 3c00 0000 0066 6600 0000 0042     .....<..f..f..B.
    985c:	0000 0000 0008 0800 0000 0008 0800 0000     ................
    986c:	0008 ff01 00c0 0008 0800 0000 0008 0800     ................
    987c:	0000 0008 0000 0000 0100 0000 0031 3200     ............1..2
    988c:	0000 001c 0000 0000 0000 0000 0000 0000     ................
	...
    98a8:	0008 0800 0000 0008 0800 0000 0008 0800     ................
    98b8:	0000 0008 0800 0000 0008 0800 0000 0000     ................
	...
    98d0:	0038 3800 0000 0038 0000 0000 0000 0000     8..8..8.........
	...
    98f0:	0600 0000 001c 7000 0100 0080 000e 3800     .......p.......8
    9900:	0000 00c0 0007 1c00 0000 0030 0000 0000     ..........0.....
    9910:	0000 0000 807f ff01 03e0 7080 0006 0418     ...........p....
    9920:	0800 0004 0608 1800 8003 0170 e0ff 7f00     ..........p.....
    9930:	0080 0000 0000 0000 0000 0001 0108 0800     ................
    9940:	0001 0308 f8ff ff07 00f8 0800 0000 0008     ................
    9950:	0800 0000 0000 0000 0000 0100 38c0 c002     .............8..
    9960:	0458 9800 0104 0418 1802 0404 0618 181c     X...............
    9970:	f803 0118 f8e0 0000 0000 0000 0000 0100     ................
    9980:	e0c0 c003 04f0 0800 0804 0408 0808 1806     ................
    9990:	0308 18f4 e701 00f0 e001 0000 0000 0000     ................
    99a0:	0000 0000 0003 0d00 0000 0011 6100 0000     .............a..
    99b0:	0881 0103 0708 f8ff ff0f 00f8 0801 0100     ................
    99c0:	0008 0000 0000 0000 e000 fc07 06d0 0808     ................
    99d0:	1006 0608 0810 1006 0608 3818 0f06 06f0     ...........8....
    99e0:	c007 0000 0000 0000 0000 0000 803f ff01     ............?...
    99f0:	03e0 3084 0802 0418 0810 1004 0408 0810     ...0............
    9a00:	1807 0310 f00f 0700 00c0 0000 0000 0000     ................
    9a10:	0000 c003 0700 0000 0006 0600 f800 0706     ................
    9a20:	06f8 0018 e006 0700 0000 0006 0000 0000     ................
    9a30:	0000 0100 e0e1 f703 06f0 1034 1804 0408     ..........4.....
    9a40:	0818 0c04 0408 080c 1606 0318 f0f3 c101     ................
    9a50:	00e0 0000 0000 0000 00f8 fc03 0330 3806     ............0..8
    9a60:	0204 0408 0802 0204 0408 1004 0803 01f0     ................
    9a70:	c0ff 7f00 0000 0000 0000 0000 0000 0000     ................
	...
    9a88:	3870 7000 0038 3870 0000 0000 0000 0000     p8.p8.p8........
	...
    9aac:	1a30 3000 001c 0000 0000 0000 0000 0000     0..0............
	...
    9ac4:	0000 0800 0000 0014 2200 0000 0041 8000     ........."..A...
    9ad4:	0180 4000 0002 0420 1000 0008 0008 0000     ...@.. .........
    9ae4:	0000 0000 0021 2100 0000 0021 2100 0000     ....!..!..!..!..
    9af4:	0021 2100 0000 0021 2100 0000 0021 2100     !..!..!..!..!..!
	...
    9b0c:	0000 0008 0408 1000 0002 0120 4000 8000     .......... ..@..
    9b1c:	0080 0041 2200 0000 0014 0800 0000 0000     ..A.."..........
    9b2c:	0000 0300 00c0 c004 0400 0000 0008 0838     ..............8.
    9b3c:	380f 0808 0838 0010 300c 0700 00e0 c003     .8..8....0......
	...
    9b54:	803f ff00 03e0 7080 0f02 0610 8870 c004     ?......p....p...
    9b64:	0488 0883 7f04 0288 90c0 0103 0020 40fe     ............ ..@
    9b74:	0000 0008 1800 0100 00f8 083e c201 0700     ..........>.....
    9b84:	0002 e207 0000 00fe 1f00 00c8 f801 0000     ................
    9b94:	0038 0800 0004 0708 f8ff ff07 04f8 0808     8...............
    9ba4:	0804 0408 0808 0804 0608 0818 f403 0118     ................
    9bb4:	f0e7 0100 00e0 0000 0000 0000 803f ff01     ............?...
    9bc4:	03e0 7080 0002 0418 0800 0004 0408 0800     ...p............
    9bd4:	0004 0610 2000 8007 00c0 0000 0004 0708     ..... ..........
    9be4:	f8ff ff07 04f8 0800 0004 0408 0800 0004     ................
    9bf4:	0218 1000 8003 0170 e0ff 7f00 0080 0000     ......p.........
    9c04:	0004 0708 f8ff ff07 04f8 0808 0804 0408     ................
    9c14:	0808 0804 0408 083e 0004 0608 1800 0001     ......>.........
    9c24:	0060 0000 0004 0708 f8ff ff07 04f8 0808     `...............
    9c34:	0804 0400 0008 0804 0400 003e 0006 0600     ..........>.....
    9c44:	0000 8001 0000 0000 0000 0000 803f ff01     ............?...
    9c54:	03e0 7080 0006 0418 0800 0204 0408 0802     ...p............
    9c64:	0302 07f0 f083 0200 0000 0002 0004 0708     ................
    9c74:	f8ff ff07 04f8 0808 0800 0000 0008 0800     ................
    9c84:	0000 0008 0804 0708 f8ff ff07 04f8 0800     ................
    9c94:	0000 0000 0000 0004 0408 0800 0004 0708     ................
    9ca4:	f8ff ff07 04f8 0800 0004 0408 0800 0000     ................
	...
    9cbc:	0600 0000 0007 0100 0004 0401 0100 0004     ................
    9ccc:	0703 feff ff07 04fc 0000 0004 0400 0000     ................
    9cdc:	0004 0708 f8ff ff07 04f8 080c 1800 0000     ................
    9cec:	003e c704 0580 c803 0006 04f8 3800 0004     >............8..
    9cfc:	0018 0800 0004 0708 f8ff ff07 04f8 0800     ................
    9d0c:	0000 0008 0800 0000 0008 0800 0000 0008     ................
    9d1c:	1800 0000 0060 0000 0004 0708 f8ff 8007     ....`...........
    9d2c:	0708 00fc 7f00 00c0 f803 0700 00c0 0078     ..............x.
    9d3c:	8007 0708 f8ff ff07 04f8 0800 0004 0708     ................
    9d4c:	f8ff 0007 0308 00c0 e000 0000 0038 1e00     ............8...
    9d5c:	0000 0007 0100 04c0 f000 ff07 04f8 0000     ................
    9d6c:	0000 0000 807f ff01 03e0 7080 0006 0418     ...........p....
    9d7c:	0800 0004 0608 1800 0003 0130 e0ff 7f00     ..........0.....
    9d8c:	0080 0000 0004 0708 f8ff ff07 04f8 0804     ................
    9d9c:	0404 0400 0004 0404 0400 0004 0c06 0300     ................
    9dac:	00f8 f001 0000 0000 0000 0000 807f ff01     ................
    9dbc:	03e0 7080 0006 0488 8800 0004 06c8 3c00     ...p...........<
    9dcc:	0003 013e e6ff 7f00 0084 0000 0004 0708     ..>.............
    9ddc:	f8ff ff07 04f8 0808 0804 0400 000c 0f04     ................
    9dec:	0400 c00b 1006 03f0 38f0 e001 0008 0800     .........8......
    9dfc:	0000 0100 f8e0 f003 0630 1030 1804 0408     ........0.0.....
    9e0c:	0818 0c04 0408 080c 0602 0218 f007 8107     ................
    9e1c:	00e0 0000 8001 0600 0000 0004 0400 0000     ................
    9e2c:	0004 0708 f8ff ff07 04f8 0800 0004 0400     ................
    9e3c:	0000 0006 0100 0080 0004 0700 e0ff ff07     ................
    9e4c:	04f0 1800 0000 0008 0800 0000 0008 0800     ................
    9e5c:	0000 0408 1000 ff07 04e0 0000 0004 0600     ................
    9e6c:	0000 e007 0700 00fe 1f04 00e0 f801 0000     ................
    9e7c:	0038 e001 3e04 0700 00c0 0006 0400 0000     8....>..........
    9e8c:	0004 0700 00e0 ff07 04c0 f81f 0700 07c0     ................
    9e9c:	00f8 ff07 0480 f83f 0700 04c0 00f8 0007     ......?.........
    9eac:	0400 0000 0000 0400 0800 0006 0718 78c0     ...............x
    9ebc:	f105 00c8 003e 1f00 0480 e863 8007 06f8     ....>.....c.....
    9ecc:	1800 0004 0008 0000 0004 0600 0000 8007     ................
    9edc:	0700 08e0 7c04 0008 f81f 0700 00f8 0818     .....|..........
    9eec:	e004 0708 0000 0006 0400 0000 0000 0100     ................
    9efc:	0800 0006 0438 f800 0304 04e8 080f 7c04     ....8..........|
    9f0c:	0508 08f0 c007 0708 1800 0004 0060 0000     ............`...
	...
    9f28:	0000 3f00 feff 0020 2002 0200 0020 2002     ...?.. .. .. .. 
    9f38:	0200 0020 0002 0000 0000 0000 0000 0008     .. .............
    9f48:	0700 0000 c000 0000 0038 0600 0000 c001     ........8.......
    9f58:	0000 0030 0e00 0000 0001 0000 0000 0000     ..0.............
    9f68:	0000 0020 2002 0200 0020 2002 0200 0020     .. .. .. .. .. .
    9f78:	3f02 feff 0000 0000 0000 0000 0000 0000     .?..............
	...
    9f90:	0800 0000 0010 3000 0000 0020 3000 0000     .......0.. ..0..
    9fa0:	0010 0800 0000 0000 0000 0000 0000 0001     ................
    9fb0:	0100 0000 0001 0100 0000 0001 0100 0000     ................
    9fc0:	0001 0100 0000 0001 0100 0000 0001 0100     ................
	...
    9fd8:	2000 0000 0020 1000 0000 0010 0000 0000     . .. ...........
	...
    9ff8:	f000 1900 00f8 181b 2200 0008 0826 2400     ........."..&..$
    a008:	0008 1024 3f00 00f8 f81f 0000 0008 1800     ..$..?..........
    a018:	0000 0400 0000 ff07 0ff8 f0ff 1800 0018     ................
    a028:	0810 2000 0008 0820 3000 0018 f01f 0f00     ... .. ..0......
    a038:	00c0 0000 0000 0000 c007 1f00 00f0 3018     ...............0
    a048:	2000 0008 0820 2000 0008 083c 1c00 0010     . .. .. ..<.....
    a058:	6000 0000 0000 0000 0000 0000 c007 1f00     .`..............
    a068:	00f0 1838 2000 0008 0820 2000 0408 1010     ..8.. .. .. ....
    a078:	ff07 0ff8 f0ff 0000 0010 0000 0000 0000     ................
    a088:	0000 0700 00c0 f01f 1200 0030 1822 2200     ..........0.".."
    a098:	0008 0822 3200 0008 101e 0e00 0020 0000     .."..2...... ...
    a0a8:	0000 0000 0020 2000 0008 0820 ff01 03f8     .... .. .. .....
    a0b8:	f8ff 2006 0408 0820 2004 0708 0020 0003     ... .. .. .. ...
	...
    a0d0:	0e00 0e00 006e f31f 3100 00b1 b120 2000     ....n....1.. .. 
    a0e0:	00b1 9131 1f00 0013 1e2e 2000 000e 0030     ..1........ ..0.
    a0f0:	0000 0400 0800 ff07 0ff8 f8ff 1000 0008     ................
    a100:	0020 2000 0000 0820 3f00 00f8 f81f 0000      .. .. ..?......
    a110:	0008 0000 0000 0000 0000 2000 0008 0820     ........... .. .
    a120:	2000 0608 f83f 3f06 00f8 0800 0000 0008     . ..?..?........
    a130:	0800 0000 0000 0000 0000 0000 0000 0000     ................
    a140:	0003 0300 2000 0001 0120 2000 0603 fe3f     ..... .. .. ..?.
    a150:	3f06 00fc 0000 0000 0000 0000 0000 0400     .?..............
    a160:	0800 ff07 0ff8 f8ff 0100 0088 0003 2f00     .............../
    a170:	00c0 f838 2000 0038 0820 0000 0008 0000     ..8.. 8. .......
    a180:	0000 0000 0000 0004 0408 0800 0004 0708     ................
    a190:	f8ff ff0f 00f8 0800 0000 0008 0800 0000     ................
    a1a0:	0000 0000 2000 0008 f83f 3f00 00f8 0810     ..... ..?..?....
    a1b0:	2000 0000 f83f 3f00 00f8 0810 2000 0000     . ..?..?..... ..
    a1c0:	f83f 3f00 00f8 0800 0000 0000 0820 3f00     ?..?........ ..?
    a1d0:	00f8 f83f 1000 0008 0010 2000 0000 0820     ..?........ .. .
    a1e0:	3f00 00f8 f81f 0000 0008 0000 0000 0000     .?..............
    a1f0:	c007 0f00 00f0 3018 3000 0008 0820 2000     .......0.0.. .. 
    a200:	0008 0830 1800 0030 f00f 0700 00c0 0000     ..0...0.........
    a210:	0000 0000 0120 3f00 00ff ff3f 1000 0011     .... ..?..?.....
    a220:	0920 2000 0008 0820 3000 0038 f01f 0f00      .. .. ..08.....
    a230:	00c0 0000 0000 0000 c007 1f00 00f0 1838     ..............8.
    a240:	2000 0008 0820 2000 0009 1110 1f00 00ff     . .. .. ........
    a250:	ff3f 0000 0001 0000 2000 0008 0820 2000     ?........ .. .. 
    a260:	0008 f83f 3f00 00f8 0808 1000 0008 0820     ..?..?........ .
    a270:	2000 0000 0030 3000 0000 0000 0000 0000     . ..0..0........
    a280:	0000 0c00 0078 181e 3300 0008 0823 2100     ....x....3..#..!
    a290:	0008 8821 2100 0098 f030 3800 0060 0000     ..!..!..0..8`...
    a2a0:	0000 0000 0020 2000 0000 0020 ff00 03f0     .... .. .. .....
    a2b0:	f8ff 2000 0008 0820 2000 0008 3000 0000     ... .. .. ...0..
	...
    a2c8:	0020 3f00 00f0 f87f 0000 0018 0800 0000      ..?............
    a2d8:	0008 1020 3f00 00f8 f07f 0000 0010 0000     .. ..?..........
    a2e8:	0000 0000 0020 3000 0000 003c 3f00 0080     .... ..0..<..?..
    a2f8:	f023 0000 0078 7000 2300 0080 003c 3000     #...x..p.#..<..0
    a308:	0000 0020 2000 0000 003c 3f00 00e0 f823     .. .. ..<..?..#.
    a318:	0000 00e0 0027 3e00 0000 e03f 2100 00f8     ....'..>..?..!..
    a328:	e001 3e00 0000 0020 0000 0000 0820 2000     ...>.. ..... .. 
    a338:	0008 3838 3e00 0068 8027 0300 00c8 f82c     ..88.>h.'.....,.
    a348:	3800 0038 1820 2000 0008 0000 0000 0000     .88. .. ........
    a358:	0020 3000 0003 013c 3f00 0083 ec23 0000      ..0..<..?..#...
    a368:	0070 8023 3c00 0000 0020 2000 0000 0000     p.#..<.. .. ....
    a378:	0000 0000 0000 3800 0008 3820 2000 00f8     .......8.. 8. ..
    a388:	e823 2f00 0088 083e 3800 0008 1820 0000     #../..>..8.. ...
    a398:	0070 0000 0000 0000 0000 0000 0000 0000     p...............
    a3a8:	0000 0000 0008 1400 1f00 fcf7 0030 2006     ............0.. 
    a3b8:	0200 0000 0000 0000 0000 0000 0000 0000     ................
	...
    a3d0:	0000 ffff 00ff 0000 0000 0000 0000 0000     ................
	...
    a3e8:	0000 0020 3002 0600 f71f 00fc 0014 0800     .. ..0..........
	...
    a408:	0000 1800 0000 0060 4000 0000 0040 2000     ......`..@..@.. 
    a418:	0000 0010 0800 0000 0004 0400 0000 000c     ................
    a428:	1000 0000                                   ....

0000a42c <asc2_3216>:
	...
    a484:	f003 6000 ff03 f0f8 ff03 f0f8 f803 6000     ...`...........`
	...
    a4b4:	c000 0000 8001 0000 0007 0000 001e 0000     ................
    a4c4:	003c 0000 c038 0000 8001 0000 0007 0000     <...8...........
    a4d4:	001e 0000 003c 0000 0038 0000 0000 0000     ....<...8.......
	...
    a4f0:	1c00 000e 1c00 000e 1c00 f00f 1f00 00ff     ................
    a500:	fc03 000e 1c00 000e 1c00 000e 1c00 000e     ................
    a510:	1c00 000e 1c00 f00f 1f00 00ff fc03 000e     ................
    a520:	1c00 000e 1c00 000e 0000 0000 0000 0000     ................
    a530:	0000 0000 0000 c003 7800 e003 fe01 2003     .........x..... 
    a540:	0f01 1000 0302 1080 ff0f feff 0002 10e0     ................
    a550:	0002 30e0 3001 6078 f001 c03f f000 800f     ...0.0x`..?.....
	...
    a56c:	7e00 0000 ff01 0080 0003 00c0 0002 3040     .~............@0
    a57c:	0003 c0c1 ff01 0086 7e00 0038 0000 00c0     .........~8.....
    a58c:	0700 801f 3800 e07f c000 30c0 0003 1080     .....8.....0....
    a59c:	0000 30c0 0000 e07f 0000 801f 0000 0000     ...0............
    a5ac:	0000 801f 0000 c03f fe00 60c0 ff01 30c0     ......?....`...0
    a5bc:	0303 10f0 0102 107c 0602 101e fc03 a007     ......|.........
    a5cc:	f000 c001 0000 e081 0000 708e 0000 30f0     ...........p...0
    a5dc:	0000 3080 0000 6080 0000 c000 0000 0000     ...0...`........
    a5ec:	0000 0000 4000 0000 c038 0000 8038 0000     .....@..8...8...
    a5fc:	003f 0000 001e 0000 0000 0000 0000 0000     ?...............
	...
    a648:	0f00 00f8 3f00 00fe f000 8007 8003 e000     .....?..........
    a658:	0006 3000 000c 1800 0010 0400 0020 0200     ...0........ ...
	...
    a670:	0020 0200 0010 0400 000c 1800 0006 3000      ..............0
    a680:	8003 e000 f000 8007 3f00 00ff 0f00 00f8     .........?......
	...
    a6b4:	1800 0018 1c00 0038 0c00 0030 0600 0060     ......8...0...`.
    a6c4:	0200 0040 6100 008f ff00 00ff f100 0087     ..@..a..........
    a6d4:	0200 0040 0600 0060 0c00 0030 1c00 0038     ..@...`...0...8.
    a6e4:	1800 0018 0000 0000 0000 0000 0000 0000     ................
    a6f4:	0000 0080 0000 0080 0000 0080 0000 0080     ................
    a704:	0000 0080 0000 0080 7f00 00ff 0000 0080     ................
    a714:	0000 0080 0000 0080 0000 0080 0000 0080     ................
    a724:	0000 0080 0000 0000 0000 0000 0000 0100     ................
    a734:	0000 e300 0000 e200 0000 fc00 0000 7800     ...............x
	...
    a770:	0000 0080 0000 0080 0000 0080 0000 0080     ................
    a780:	0000 0080 0000 0080 0000 0080 0000 0080     ................
    a790:	0000 0080 0000 0080 0000 0080 0000 0080     ................
    a7a0:	0000 0080 0000 0080 0000 0000 0000 0000     ................
    a7b0:	0000 0000 0000 6000 0000 f000 0000 f000     .......`........
    a7c0:	0000 6000 0000 0000 0000 0000 0000 0000     ...`............
	...
    a7f0:	0000 0c00 0000 3800 0000 e000 0000 8003     .......8........
    a800:	0000 000e 0000 0038 0000 00e0 0300 0080     ......8.........
    a810:	0e00 0000 3800 0000 e000 0000 8003 0000     .....8..........
    a820:	000e 0000 0018 0000 0000 0000 0000 0000     ................
    a830:	0000 0000 0f00 00fc 7f00 80ff f000 c003     ................
    a840:	8001 6000 0003 3000 0002 1000 0002 1000     ...`...0........
    a850:	0002 1000 8001 6000 e000 c001 7f00 80ff     .......`........
    a860:	0f00 00fc 0000 0000 0000 0000 0000 0000     ................
	...
    a878:	8000 1000 8000 1000 8000 1000 8000 3000     ...............0
    a888:	ff01 f0ff ff03 f0ff 0000 3000 0000 1000     ...........0....
    a898:	0000 1000 0000 1000 0000 0000 0000 0000     ................
	...
    a8b4:	7800 7000 9800 b000 0001 3001 0002 3002     .x.p.......0...0
    a8c4:	0002 300c 0002 3018 0002 3030 0002 3060     ...0...0..00..`0
    a8d4:	0003 30c0 8301 3080 ff01 7000 7c00 c003     ...0...0...p.|..
	...
    a8f4:	f000 c003 f001 e003 0001 2000 0002 1000     ........... ....
    a904:	0002 1080 0002 1080 0002 1080 0103 10c0     ................
    a914:	8301 2040 fe00 6060 7c00 c03f 0000 000f     ..@ ..``.|?.....
	...
    a930:	0000 000c 0000 0034 0000 0064 0100 0084     ......4...d.....
    a940:	0600 0004 0800 1004 3000 1004 c000 1004     .........0......
    a950:	ff03 f0ff ff03 f0ff 0000 1004 0000 1004     ................
    a960:	0000 1004 0000 0000 0000 0000 0000 0000     ................
    a970:	0000 0000 0000 c003 ff00 20c3 0003 2080     ........... ... 
    a980:	0103 1000 0203 1000 0203 1000 0203 1000     ................
    a990:	0203 1000 0303 2000 0103 e080 0003 c0ff     ....... ........
    a9a0:	0003 003f 0000 0000 0000 0000 0000 0000     ..?.............
    a9b0:	0000 0000 0700 00fe 3f00 80ff e000 e0c1     .........?......
    a9c0:	8101 6000 0301 3000 0202 1000 0202 1000     ...`...0........
    a9d0:	0202 1000 0302 3000 c101 6080 c001 c0ff     .......0...`....
    a9e0:	0000 003f 0000 0000 0000 0000 0000 0000     ..?.............
    a9f0:	0000 0000 7000 0000 c003 0000 0003 0000     .....p..........
    aa00:	0003 0000 0003 f003 0003 f03f 0003 00c0     ..........?.....
    aa10:	0703 0000 1803 0000 6003 0000 8003 0000     .........`......
    aa20:	0003 0000 0000 0000 0000 0000 0000 0000     ................
    aa30:	0000 800f 7c00 c03f fe00 6070 8f01 2040     .....|?...p`..@ 
    aa40:	0303 1080 0302 1080 0102 1080 0002 10c0     ................
    aa50:	0002 10e0 0103 2070 8201 6078 fe00 c03f     ......p ..x`..?.
    aa60:	7800 800f 0000 0000 0000 0000 0000 0000     .x..............
    aa70:	3f00 0080 ff00 e0c0 c001 e0e0 0001 1030     .?............0.
    aa80:	0002 1010 0002 1010 0002 1010 0002 3010     ...............0
    aa90:	0002 6020 0001 c060 c000 8087 7f00 00fe     .. `..`.........
    aaa0:	1f00 00f8 0000 0000 0000 0000 0000 0000     ................
	...
    aac4:	0300 6000 0700 f080 0700 f080 0300 6000     ...`...........`
	...
    ab04:	0300 7680 0300 7e80 0300 7880 0000 0000     ...v...~...x....
	...
    ab38:	0000 00c0 0100 0020 0200 0010 0400 0008     ...... .........
    ab48:	0800 0004 1000 0002 2000 0001 4000 8000     ......... ...@..
    ab58:	8000 4000 0001 2000 0002 1000 0000 0000     ...@... ........
	...
    ab70:	0400 0010 0400 0010 0400 0010 0400 0010     ................
    ab80:	0400 0010 0400 0010 0400 0010 0400 0010     ................
    ab90:	0400 0010 0400 0010 0400 0010 0400 0010     ................
    aba0:	0400 0010 0400 0010 0000 0000 0000 0000     ................
    abb0:	0000 0000 0002 1000 0001 2000 8000 4000     ........... ...@
    abc0:	4000 8000 2000 0001 1000 0002 0800 0004     .@... ..........
    abd0:	0400 0008 0200 0010 0100 0020 0000 00c0     .......... .....
	...
    abf4:	3c00 0000 fc00 0000 9c01 0000 0001 0000     .<..............
    ac04:	0002 6000 0002 f000 0002 f07c 0002 60c0     ...`......|....`
    ac14:	0002 0080 0101 0080 8301 0000 fe00 0000     ................
    ac24:	7c00 0000 0000 0000 0000 0000 0700 00f8     .|..............
    ac34:	3f00 00ff 7000 c003 c000 6000 8101 20fc     .?...p.....`... 
    ac44:	0703 10fe 1e02 1002 3002 1004 2002 103c     .........0... <.
    ac54:	1f02 10fe 3c01 2002 8000 6004 6000 c018     .....<. ...`.`..
    ac64:	1f00 00e1 0000 0000 0000 1000 0000 3000     ...............0
    ac74:	0000 f001 0000 103e 0300 10f0 3e00 0010     ......>......>..
    ac84:	c003 0010 c003 0010 fc03 0010 3f00 00d0     .............?..
    ac94:	0100 10fe 0000 f01f 0000 f001 0000 3000     ...............0
    aca4:	0000 1000 0000 0000 0000 0000 0002 1000     ................
    acb4:	0002 1000 ff03 f0ff ff03 f0ff 0002 1080     ................
    acc4:	0002 1080 0002 1080 0002 1080 0002 1080     ................
    acd4:	0103 1080 8301 3040 fe01 6060 7c00 c03f     ......@0..``.|?.
    ace4:	0000 800f 0000 0000 0000 0000 0700 00fc     ................
    acf4:	3f00 00ff 7800 c003 c000 6000 0001 2000     .?...x.....`... 
    ad04:	0003 1000 0002 1000 0002 1000 0002 1000     ................
    ad14:	0002 1000 0001 2000 8001 4000 c001 8000     ....... ...@....
    ad24:	7000 0003 0000 0000 0000 0000 0002 1000     .p..............
    ad34:	0002 1000 ff03 f0ff ff03 f0ff 0002 1000     ................
    ad44:	0002 1000 0002 1000 0002 1000 0003 3000     ...............0
    ad54:	0001 2000 8001 c000 f000 c003 3f00 00ff     ... .........?..
    ad64:	0f00 00f8 0000 0000 0000 0000 0002 1000     ................
    ad74:	0002 1000 ff03 f0ff ff03 f0ff 0002 1080     ................
    ad84:	0002 1080 0002 1080 0002 1080 0002 1080     ................
    ad94:	0102 10c0 0702 10f0 0003 3000 8003 7000     ...........0...p
    ada4:	6000 8001 0000 0000 0000 0000 0002 1000     .`..............
    adb4:	0002 1000 ff03 f0ff ff03 f0ff 0002 1080     ................
    adc4:	0002 1080 0002 0080 0002 0080 0002 0080     ................
    add4:	0102 00c0 0703 00f8 0003 0000 8003 0000     ................
    ade4:	6000 0000 0000 0000 0000 0000 0700 00f8     .`..............
    adf4:	3f00 00ff 7000 c003 c001 6000 0001 3000     .?...p.....`...0
    ae04:	0002 1000 0002 1000 0002 1000 0002 1020     .............. .
    ae14:	0001 2020 c001 c03f 7000 c03f 0000 0020     ..  ..?..p?... .
    ae24:	0000 0020 0000 0000 0002 1000 0002 1000     .. .............
    ae34:	ff03 f0ff ff03 f0ff 0002 1080 0002 1080     ................
    ae44:	0000 0080 0000 0080 0000 0080 0000 0080     ................
    ae54:	0002 1080 0002 1080 ff03 f0ff ff03 f0ff     ................
    ae64:	0002 1000 0002 1000 0000 0000 0000 0000     ................
    ae74:	0000 0000 0002 1000 0002 1000 0002 1000     ................
    ae84:	0002 1000 ff03 f0ff ff03 f0ff 0002 1000     ................
    ae94:	0002 1000 0002 1000 0002 1000 0000 0000     ................
	...
    aeb0:	0000 0e00 0000 0f00 0000 0f00 0000 0100     ................
    aec0:	0002 0100 0002 0100 0002 0300 0002 0600     ................
    aed0:	ff03 fcff ff03 f8ff 0002 0000 0002 0000     ................
    aee0:	0002 0000 0002 0000 0000 0000 0000 0000     ................
    aef0:	0002 1000 0002 1000 ff03 f0ff ff03 f0ff     ................
    af00:	0002 10c0 0102 1000 0700 00c0 1800 00f0     ................
    af10:	6002 003c c003 900f 0003 f003 0002 7000     .`<............p
    af20:	0002 1000 0000 1000 0000 0000 0000 0000     ................
    af30:	0002 1000 0002 1000 ff03 f0ff ff03 f0ff     ................
    af40:	0002 1000 0002 1000 0000 1000 0000 1000     ................
    af50:	0000 1000 0000 1000 0000 1000 0000 3000     ...............0
    af60:	0000 7000 0000 8001 0000 0000 0002 1000     ...p............
    af70:	0002 1000 ff03 f0ff f003 1000 ff01 0080     ................
    af80:	0f00 00f8 0000 c07f 0000 f003 0000 000f     ................
    af90:	0100 00f0 1e00 1000 e001 1000 ff03 f0ff     ................
    afa0:	ff03 f0ff 0002 1000 0002 1000 0002 1000     ................
    afb0:	0002 1000 ff03 f0ff 8003 1000 e001 1000     ................
    afc0:	7800 0000 1e00 0000 0700 0080 0100 00e0     .x..............
    afd0:	0000 0078 0000 001e 0002 8007 0002 e001     ..x.............
    afe0:	ff03 f0ff 0002 0000 0002 0000 0000 0000     ................
    aff0:	0f00 00f8 3f00 00ff f000 c003 8001 6000     .....?.........`
    b000:	0001 2000 0002 1000 0002 1000 0002 1000     ... ............
    b010:	0002 1000 0001 2000 8001 6000 f000 c003     ....... ...`....
    b020:	3f00 00ff 0700 00fc 0000 0000 0000 0000     .?..............
    b030:	0002 1000 0002 1000 ff03 f0ff ff03 f0ff     ................
    b040:	0002 1040 0002 1040 0002 0040 0002 0040     ..@...@...@...@.
    b050:	0002 0040 0002 0040 0003 0080 8101 0080     ..@...@.........
    b060:	ff00 0000 7e00 0000 0000 0000 0000 0000     .....~..........
    b070:	0f00 00fc 3f00 80ff f000 c001 8001 e001     .....?..........
    b080:	0001 2002 0002 1002 0002 1002 0002 1003     ... ............
    b090:	0002 f001 0001 fc00 8001 6e00 f000 c601     ...........n....
    b0a0:	3f00 86ff 0f00 08fc 0000 0000 0000 0000     .?..............
    b0b0:	0002 1000 0002 1000 ff03 f0ff ff03 f0ff     ................
    b0c0:	0002 1080 0002 1080 0002 0080 0002 00e0     ................
    b0d0:	0002 00fc 0103 809f 8301 f003 fe01 7000     ...............p
    b0e0:	7c00 1000 0000 1000 0000 0000 0000 0000     .|..............
    b0f0:	7c00 0007 fe00 f001 8701 6000 0303 2000     .|.........`... 
    b100:	0302 1080 0102 1080 0102 10c0 0002 10c0     ................
    b110:	0003 10e0 0001 3060 c001 6078 f003 c03f     ......`0..x`..?.
    b120:	0000 800f 0000 0000 0000 0000 0000 0000     ................
    b130:	6000 0000 8003 0000 0003 0000 0002 0000     .`..............
    b140:	0002 1000 0002 1000 ff03 f0ff ff03 f0ff     ................
    b150:	0002 1000 0002 1000 0002 0000 0002 0000     ................
    b160:	8003 0000 e000 0000 0000 0000 0002 0000     ................
    b170:	0002 0000 ff03 80ff ff03 e0ff 0002 6000     ...............`
    b180:	0002 3000 0000 1000 0000 1000 0000 1000     ...0............
    b190:	0000 1000 0002 2000 0002 4000 ff03 80ff     ....... ...@....
    b1a0:	0002 0000 0002 0000 0000 0000 0000 0000     ................
    b1b0:	0002 0000 0002 0000 e003 0000 ff03 0000     ................
    b1c0:	1f02 00f0 0000 00ff 0000 f00f 0000 c001     ................
    b1d0:	0000 001e 0100 00e0 1e02 0000 e003 0000     ................
    b1e0:	0003 0000 0002 0000 0000 0000 0002 0000     ................
    b1f0:	8003 0000 ff03 0000 1f02 00fc 0000 f03f     ..............?.
    b200:	0000 c007 0002 0078 cf03 0080 ff03 0080     ......x.........
    b210:	1f02 00ff 0000 f03f 0000 800f 0302 00f0     ......?.........
    b220:	fc03 0000 0003 0000 0002 0000 0000 0000     ................
    b230:	0002 1000 0002 1000 8003 7000 e003 d001     ...........p....
    b240:	7802 1006 1e00 0018 0700 00e0 0300 00f0     .x..............
    b250:	0c00 003e 3002 900f c002 f003 0003 7000     ..>..0.........p
    b260:	0002 3000 0002 1000 0000 0000 0000 0000     ...0............
    b270:	0002 0000 0003 0000 c003 0000 f803 0000     ................
    b280:	3e02 1000 0702 10c0 0100 f0ff 0000 f07f     .>..............
    b290:	0100 1080 0e02 1000 7002 0000 8003 0000     .........p......
    b2a0:	0002 0000 0002 0000 0000 0000 0000 0000     ................
    b2b0:	0000 1000 6000 7000 c003 f001 8003 9003     .....`.p........
    b2c0:	0003 100e 0002 103c 0002 10f0 0302 10c0     ......<.........
    b2d0:	0f02 1000 1c02 1000 7002 3000 e003 3000     .........p.0...0
    b2e0:	8003 f000 0002 8001 0000 0000 0000 0000     ................
	...
    b304:	ff1f fcff ff1f fcff 0010 0400 0010 0400     ................
    b314:	0010 0400 0010 0400 0010 0400 0010 0400     ................
	...
    b338:	0006 0000 8007 0000 f000 0000 3c00 0000     .............<..
    b348:	0700 0080 0100 00e0 0000 003c 0000 800f     ..........<.....
    b358:	0000 e003 0000 7c00 0000 1e00 0000 0200     .......|........
	...
    b374:	0010 0400 0010 0400 0010 0400 0010 0400     ................
    b384:	0010 0400 0010 0400 ff1f fcff ff1f fcff     ................
	...
    b3bc:	0004 0000 0008 0000 0038 0000 0030 0000     ........8...0...
    b3cc:	0030 0000 0030 0000 0018 0000 0004 0000     0...0...........
	...
    b3ec:	0000 0100 0000 0100 0000 0100 0000 0100     ................
    b3fc:	0000 0100 0000 0100 0000 0100 0000 0100     ................
    b40c:	0000 0100 0000 0100 0000 0100 0000 0100     ................
    b41c:	0000 0100 0000 0100 0000 0100 0000 0100     ................
	...
    b438:	0020 0000 0020 0000 0020 0000 0030 0000      ... ... ...0...
    b448:	0010 0000 0008 0000 0000 0000 0000 0000     ................
	...
    b470:	0000 c003 0100 e0c7 0300 30cc 0200 1008     ...........0....
    b480:	0400 1018 0400 1010 0400 1010 0400 1010     ................
    b490:	0400 2010 0600 2020 0300 e0ff 0100 f0ff     ... ..  ........
    b4a0:	0000 1000 0000 1000 0000 6000 0000 0000     ...........`....
    b4b0:	0002 0000 0002 0000 ff03 f0ff ff07 e0ff     ................
    b4c0:	0100 6080 0200 1000 0400 1000 0400 1000     ...`............
    b4d0:	0400 1000 0600 3000 0300 6000 0300 c0ff     .......0...`....
    b4e0:	0000 00ff 0000 0000 0000 0000 0000 0000     ................
    b4f0:	0000 0000 0000 007f 0000 c0ff 0300 e080     ................
    b500:	0300 2000 0600 1000 0400 1000 0400 1000     ... ............
    b510:	0400 1000 0400 1000 0300 20c0 0100 40c0     ........... ...@
    b520:	0000 8001 0000 0000 0000 0000 0000 0000     ................
    b530:	0000 0000 0000 007f 0100 c0ff 0300 6080     ...............`
    b540:	0600 3000 0400 1000 0400 1000 0400 1000     ...0............
    b550:	0402 2000 0202 4000 ff03 f0ff ff07 e0ff     ... ...@........
    b560:	0000 2000 0000 2000 0000 0000 0000 0000     ... ... ........
    b570:	0000 0000 0000 007f 0000 c0ff 0300 e088     ................
    b580:	0200 2008 0400 3008 0400 1008 0400 1008     ... ...0........
    b590:	0400 1008 0200 1008 0300 2008 0100 60f8     ........... ...`
    b5a0:	0000 8078 0000 0000 0000 0000 0000 0000     ..x.............
    b5b0:	0000 0000 0400 0000 0400 1000 0400 1000     ................
    b5c0:	0400 1000 7f00 f0ff ff01 f0ff 0401 1000     ................
    b5d0:	0402 1000 0402 1000 0402 1000 0402 0000     ................
    b5e0:	c003 0000 c001 0000 0000 0000 0000 0000     ................
    b5f0:	0000 0000 0000 1c00 0000 bee3 0300 e2ff     ................
    b600:	0200 c10c 0400 c104 0400 c104 0400 c104     ................
    b610:	0400 c104 0600 410c 0300 62f8 0500 7ef0     .......A...b...~
    b620:	0600 3c00 0600 0000 0000 0000 0000 0000     ...<............
    b630:	0002 1000 0002 1000 ff03 f0ff ff07 f0ff     ................
    b640:	0100 1000 0200 1000 0400 0000 0400 0000     ................
    b650:	0400 1000 0600 1000 0300 f0ff 0100 f0ff     ................
    b660:	0000 1000 0000 1000 0000 0000 0000 0000     ................
	...
    b678:	0400 1000 0400 1000 0400 1000 0401 1000     ................
    b688:	8703 f0ff 8f03 f0ff 0001 1000 0000 1000     ................
    b698:	0000 1000 0000 1000 0000 0000 0000 0000     ................
	...
    b6b8:	0000 0600 0000 0700 0000 0100 0400 0100     ................
    b6c8:	0400 0100 0400 0100 0401 0600 8703 fcff     ................
    b6d8:	8f03 f8ff 0003 0000 0000 0000 0000 0000     ................
	...
    b6f0:	0002 1000 0002 1000 ff03 f0ff ff07 f0ff     ................
    b700:	0000 100c 0000 1018 0000 0030 0000 007c     ..........0...|.
    b710:	0400 008e 0700 9003 0600 f001 0400 7000     ...............p
    b720:	0400 3000 0000 1000 0000 0000 0000 0000     ...0............
	...
    b738:	0002 1000 0002 1000 0002 1000 0002 1000     ................
    b748:	ff03 f0ff ff07 f0ff 0000 1000 0000 1000     ................
    b758:	0000 1000 0000 1000 0000 0000 0000 0000     ................
    b768:	0000 0000 0400 1000 0700 f0ff 0f00 f0ff     ................
    b778:	0200 1000 0400 0000 0400 0000 0400 1000     ................
    b788:	0700 f0ff 0300 f0ff 0200 1000 0400 0000     ................
    b798:	0400 0000 0400 1000 0700 f0ff 0300 f0ff     ................
    b7a8:	0000 1000 0000 0000 0200 1000 0200 1000     ................
    b7b8:	0300 f0ff 0700 f0ff 0100 1000 0200 1000     ................
    b7c8:	0400 0000 0400 0000 0400 1000 0600 1000     ................
    b7d8:	0300 f0ff 0100 f0ff 0000 1000 0000 1000     ................
	...
    b7f4:	0000 003f 0000 c0ff 0300 e080 0200 2000     ..?............ 
    b804:	0400 1000 0400 1000 0400 1000 0400 1000     ................
    b814:	0200 2000 0300 e080 0100 c0ff 0000 007f     ... ............
	...
    b830:	0200 0100 0200 0100 0300 ffff 0700 ffff     ................
    b840:	0100 6100 0200 2100 0400 1000 0400 1000     ...a...!........
    b850:	0400 1000 0600 3000 0300 e000 0100 c0ff     .......0........
    b860:	0000 007f 0000 0000 0000 0000 0000 0000     ................
    b870:	0000 0000 0000 007f 0100 c0ff 0300 6080     ...............`
    b880:	0200 3000 0400 1000 0400 1000 0400 1000     ...0............
    b890:	0600 2100 0300 6100 0300 ffff 0700 ffff     ...!...a........
    b8a0:	0000 0100 0000 0100 0000 0000 0000 0000     ................
    b8b0:	0200 1000 0200 1000 0200 1000 0200 1000     ................
    b8c0:	0700 f0ff 0700 f0ff 0000 10c0 0100 1080     ................
    b8d0:	0200 1000 0200 1000 0400 0000 0400 0000     ................
    b8e0:	0700 0000 0300 0000 0000 0000 0000 0000     ................
	...
    b8f8:	0000 f001 0100 60e0 0300 20f0 0600 1030     .......`... ..0.
    b908:	0400 1018 0400 1018 0400 101c 0400 100c     ................
    b918:	0200 300e 0300 e007 0700 c0c3 0000 0000     ...0............
	...
    b934:	0400 0000 0400 0000 0400 0000 0c00 0000     ................
    b944:	1f00 c0ff ff00 e0ff 0400 3000 0400 1000     ...........0....
    b954:	0400 1000 0400 1000 0400 2000 0000 c000     ........... ....
	...
    b970:	0400 0000 0400 0000 0700 c0ff 0f00 e0ff     ................
    b980:	0000 3000 0000 1000 0000 1000 0000 1000     ...0............
    b990:	0400 2000 0400 4000 0700 f0ff 0f00 e0ff     ... ...@........
    b9a0:	0000 2000 0000 2000 0000 0000 0000 0000     ... ... ........
    b9b0:	0400 0000 0400 0000 0700 0080 0700 00e0     ................
    b9c0:	0400 007c 0000 800f 0000 f003 0000 e000     ..|.............
    b9d0:	0000 8003 0400 001c 0400 00e0 0700 0080     ................
    b9e0:	0600 0000 0400 0000 0000 0000 0400 0000     ................
    b9f0:	0600 0000 0700 00e0 0400 00fe 0400 e00f     ................
    ba00:	0000 f001 0400 000f 0700 00f0 0700 00f8     ................
    ba10:	0400 803f 0000 f003 0000 c003 0400 003c     ..?...........<.
    ba20:	0700 00c0 0600 0000 0400 0000 0000 0000     ................
    ba30:	0000 1000 0400 1000 0400 3000 0700 7000     ...........0...p
    ba40:	0700 9081 0500 00e2 0000 007c 0000 001c     ..........|.....
    ba50:	0400 1067 0400 9083 0700 f000 0400 7000     ..g............p
    ba60:	0400 1000 0000 1000 0000 0000 0000 0000     ................
    ba70:	0400 0000 0400 0300 0700 0300 0700 03c0     ................
    ba80:	0400 0378 0000 061e 0000 f803 0000 c000     ..x.............
    ba90:	0000 0007 0400 0038 0700 00c0 0600 0000     ......8.........
    baa0:	0400 0000 0400 0000 0000 0000 0000 0000     ................
    bab0:	0000 0000 0700 30c0 0700 7000 0400 d001     .......0...p....
    bac0:	0400 9003 0400 100f 0400 101c 0400 1078     ..............x.
    bad0:	0400 10e0 0700 10c0 0700 3000 0600 7000     ...........0...p
    bae0:	0000 c001 0000 0000 0000 0000 0000 0000     ................
	...
    bb08:	0000 0080 0100 0080 0100 0040 fe0f f83f     ..........@...?.
    bb18:	0010 0400 0020 0200 0020 0200 0000 0000     .... ... .......
	...
    bb4c:	ffff ffff 0000 0000 0000 0000 0000 0000     ................
	...
    bb78:	0020 0200 0020 0200 0010 0400 fe0f f83f      ... .........?.
    bb88:	0100 0040 0100 0080 0000 0080 0000 0000     ..@.............
	...
    bbb0:	0018 0000 0020 0000 0040 0000 0040 0000     .... ...@...@...
    bbc0:	0040 0000 0060 0000 0030 0000 001c 0000     @...`...0.......
    bbd0:	0004 0000 0006 0000 0002 0000 0002 0000     ................
    bbe0:	0004 0000 0018 0000 0000 0000               ............

0000bbec <ErrTable>:
    bbec:	1100 1312 1514 1716 1918 1b1a 1d1c 1f1e     ................
    bbfc:	59c6 0000 5a0c 0000 5a26 0000 5a36 0000     .Y...Z..&Z..6Z..
    bc0c:	5a36 0000 5a22 0000 5a22 0000 5a44 0000     6Z.."Z.."Z..DZ..

0000bc1c <tcp_backoff>:
    bc1c:	0201 0403 0605 0707 0707 0707 0007 0000     ................
    bc2c:	6eae 0000 6fba 0000 70a6 0000 70ae 0000     .n...o...p...p..
    bc3c:	7154 0000 70a6 0000 719a 0000 71d6 0000     Tq...p...q...q..
    bc4c:	6e28 6c75 296c 0000                         (null)..
